
build/wren/main.exe:     file format elf32-msp430


Disassembly of section .text:

00004400 <__watchdog_support>:
    4400:	55 42 5c 01 	mov.b	&0x015c,r5	
    4404:	35 d0 08 5a 	bis	#23048,	r5	;#0x5a08
    4408:	82 45 76 23 	mov	r5,	&0x2376	

0000440c <__init_stack>:
    440c:	31 40 00 44 	mov	#17408,	r1	;#0x4400

00004410 <__do_copy_data>:
    4410:	3f 40 46 00 	mov	#70,	r15	;#0x0046
    4414:	0f 93       	tst	r15		
    4416:	08 24       	jz	$+18     	;abs 0x4428
    4418:	92 42 76 23 5c 01 	mov	&0x2376,&0x015c	
    441e:	2f 83       	decd	r15		
    4420:	9f 4f 48 c3 00 1c 	mov	-15544(r15),7168(r15);0xc348(r15), 0x1c00(r15)
    4426:	f8 23       	jnz	$-14     	;abs 0x4418

00004428 <__do_clear_bss>:
    4428:	3f 40 2a 06 	mov	#1578,	r15	;#0x062a
    442c:	0f 93       	tst	r15		
    442e:	07 24       	jz	$+16     	;abs 0x443e
    4430:	92 42 76 23 5c 01 	mov	&0x2376,&0x015c	
    4436:	1f 83       	dec	r15		
    4438:	cf 43 46 1c 	mov.b	#0,	7238(r15);r3 As==00, 0x1c46(r15)
    443c:	f9 23       	jnz	$-12     	;abs 0x4430

0000443e <main>:
    443e:	31 82       	sub	#8,	r1	;r2 As==11
    4440:	0b 42       	mov	r2,	r11	
    4442:	3b f2       	and	#8,	r11	;r2 As==11
    4444:	32 c2       	dint			
    4446:	03 43       	nop			
    4448:	3d 40 23 00 	mov	#35,	r13	;#0x0023
    444c:	3e 40 ff 00 	mov	#255,	r14	;#0x00ff
    4450:	3f 40 f6 1c 	mov	#7414,	r15	;#0x1cf6
    4454:	b0 12 78 bb 	call	#0xbb78	
    4458:	f2 43 4a 21 	mov.b	#-1,	&0x214a	;r3 As==11
    445c:	f2 43 51 22 	mov.b	#-1,	&0x2251	;r3 As==11
    4460:	e2 c2 44 02 	bic.b	#4,	&0x0244	;r2 As==10
    4464:	e2 c2 42 02 	bic.b	#4,	&0x0242	;r2 As==10
    4468:	b0 12 60 4e 	call	#0x4e60	
    446c:	b0 12 72 4e 	call	#0x4e72	
    4470:	f2 d2 44 02 	bis.b	#8,	&0x0244	;r2 As==11
    4474:	b0 12 84 4e 	call	#0x4e84	
    4478:	f2 d0 80 ff 25 02 	bis.b	#-128,	&0x0225	;#0xff80
    447e:	b0 12 96 4e 	call	#0x4e96	
    4482:	b2 40 e7 1f 44 22 	mov	#8167,	&0x2244	;#0x1fe7
    4488:	c2 43 38 1f 	mov.b	#0,	&0x1f38	;r3 As==00
    448c:	f2 40 5a 00 3c 21 	mov.b	#90,	&0x213c	;#0x005a
    4492:	b2 40 80 5a 5c 01 	mov	#23168,	&0x015c	;#0x5a80
    4498:	e2 d3 45 02 	bis.b	#2,	&0x0245	;r3 As==10
    449c:	e2 d2 45 02 	bis.b	#4,	&0x0245	;r2 As==10
    44a0:	f2 d0 80 ff 44 02 	bis.b	#-128,	&0x0244	;#0xff80
    44a6:	b0 12 aa 4e 	call	#0x4eaa	
    44aa:	b0 12 bc 4e 	call	#0x4ebc	
    44ae:	b0 12 ce 4e 	call	#0x4ece	
    44b2:	f2 d0 30 00 4a 02 	bis.b	#48,	&0x024a	;#0x0030
    44b8:	92 c3 6c 01 	bic	#1,	&0x016c	;r3 As==01
    44bc:	82 43 f8 20 	mov	#0,	&0x20f8	;r3 As==00
    44c0:	92 53 f8 20 	inc	&0x20f8	
    44c4:	b2 f0 fc ff 6e 01 	and	#-4,	&0x016e	;#0xfffc
    44ca:	a2 c3 02 01 	bic	#2,	&0x0102	;r3 As==10
    44ce:	03 43       	nop			
    44d0:	03 43       	nop			
    44d2:	a2 b3 02 01 	bit	#2,	&0x0102	;r3 As==10
    44d6:	03 24       	jz	$+8      	;abs 0x44de
    44d8:	82 93 f8 20 	tst	&0x20f8	
    44dc:	f1 23       	jnz	$-28     	;abs 0x44c0
    44de:	a2 b3 6e 01 	bit	#2,	&0x016e	;r3 As==10
    44e2:	07 24       	jz	$+16     	;abs 0x44f2
    44e4:	f2 f0 cf ff 4a 02 	and.b	#-49,	&0x024a	;#0xffcf
    44ea:	92 d3 6c 01 	bis	#1,	&0x016c	;r3 As==01
    44ee:	03 43       	nop			
    44f0:	fe 3f       	jmp	$-2      	;abs 0x44ee
    44f2:	b2 f0 3f ff 6c 01 	and	#-193,	&0x016c	;#0xff3f
    44f8:	b0 12 72 4c 	call	#0x4c72	
    44fc:	32 d0 40 00 	bis	#64,	r2	;#0x0040
    4500:	82 43 66 01 	mov	#0,	&0x0166	;r3 As==00
    4504:	82 43 60 01 	mov	#0,	&0x0160	;r3 As==00
    4508:	b2 40 40 00 62 01 	mov	#64,	&0x0162	;#0x0040
    450e:	b2 40 f3 00 64 01 	mov	#243,	&0x0164	;#0x00f3
    4514:	32 c0 40 00 	bic	#64,	r2	;#0x0040
    4518:	82 43 f8 20 	mov	#0,	&0x20f8	;r3 As==00
    451c:	d2 43 72 22 	mov.b	#1,	&0x2272	;r3 As==01
    4520:	1a 42 f8 20 	mov	&0x20f8,r10	
    4524:	1a 53       	inc	r10		
    4526:	82 4a f8 20 	mov	r10,	&0x20f8	
    452a:	c2 93 72 22 	tst.b	&0x2272	
    452e:	0b 24       	jz	$+24     	;abs 0x4546
    4530:	3d 40 00 01 	mov	#256,	r13	;#0x0100
    4534:	0e 43       	clr	r14		
    4536:	3f 40 74 22 	mov	#8820,	r15	;#0x2274
    453a:	b0 12 78 bb 	call	#0xbb78	
    453e:	c2 43 72 22 	mov.b	#0,	&0x2272	;r3 As==00
    4542:	82 43 70 22 	mov	#0,	&0x2270	;r3 As==00
    4546:	b2 90 80 00 70 22 	cmp	#128,	&0x2270	;#0x0080
    454c:	02 28       	jnc	$+6      	;abs 0x4552
    454e:	82 43 70 22 	mov	#0,	&0x2270	;r3 As==00
    4552:	1f 42 70 22 	mov	&0x2270,r15	
    4556:	1d 42 60 01 	mov	&0x0160,r13	
    455a:	0e 4f       	mov	r15,	r14	
    455c:	5e 02       	rlam	#1,	r14	
    455e:	8e 4d 74 22 	mov	r13,	8820(r14);0x2274(r14)
    4562:	1f 53       	inc	r15		
    4564:	82 4f 70 22 	mov	r15,	&0x2270	
    4568:	1a 92 74 23 	cmp	&0x2374,r10	
    456c:	01 20       	jnz	$+4      	;abs 0x4570
    456e:	03 43       	nop			
    4570:	82 93 f8 20 	tst	&0x20f8	
    4574:	d5 23       	jnz	$-84     	;abs 0x4520
    4576:	b2 f0 fc ff 6e 01 	and	#-4,	&0x016e	;#0xfffc
    457c:	a2 c3 02 01 	bic	#2,	&0x0102	;r3 As==10
    4580:	92 b3 6e 01 	bit	#1,	&0x016e	;r3 As==01
    4584:	f8 23       	jnz	$-14     	;abs 0x4576
    4586:	b2 40 33 00 68 01 	mov	#51,	&0x0168	;#0x0033
    458c:	82 43 6a 01 	mov	#0,	&0x016a	;r3 As==00
    4590:	b2 40 26 01 40 03 	mov	#294,	&0x0340	;#0x0126
    4596:	82 43 50 03 	mov	#0,	&0x0350	;r3 As==00
    459a:	b2 40 e6 02 80 03 	mov	#742,	&0x0380	;#0x02e6
    45a0:	82 43 90 03 	mov	#0,	&0x0390	;r3 As==00
    45a4:	f2 d0 20 00 04 02 	bis.b	#32,	&0x0204	;#0x0020
    45aa:	f2 d0 20 00 02 02 	bis.b	#32,	&0x0202	;#0x0020
    45b0:	f2 d0 c1 ff 25 02 	bis.b	#-63,	&0x0225	;#0xffc1
    45b6:	f2 d0 c1 ff 23 02 	bis.b	#-63,	&0x0223	;#0xffc1
    45bc:	f2 d0 80 ff 44 02 	bis.b	#-128,	&0x0244	;#0xff80
    45c2:	f2 d0 80 ff 42 02 	bis.b	#-128,	&0x0242	;#0xff80
    45c8:	f2 d0 06 00 45 02 	bis.b	#6,	&0x0245	;#0x0006
    45ce:	f2 d0 06 00 43 02 	bis.b	#6,	&0x0243	;#0x0006
    45d4:	f2 d2 44 02 	bis.b	#8,	&0x0244	;r2 As==11
    45d8:	f2 d2 42 02 	bis.b	#8,	&0x0242	;r2 As==11
    45dc:	b2 d0 05 00 24 03 	bis	#5,	&0x0324	;#0x0005
    45e2:	b2 d0 05 00 22 03 	bis	#5,	&0x0322	;#0x0005
    45e8:	b0 12 82 4a 	call	#0x4a82	
    45ec:	7f 93       	cmp.b	#-1,	r15	;r3 As==11
    45ee:	03 24       	jz	$+8      	;abs 0x45f6
    45f0:	b0 12 cc 96 	call	#0x96cc	
    45f4:	f9 3f       	jmp	$-12     	;abs 0x45e8
    45f6:	b2 40 e2 1c 4c 21 	mov	#7394,	&0x214c	;#0x1ce2
    45fc:	c2 43 c8 1e 	mov.b	#0,	&0x1ec8	;r3 As==00
    4600:	b0 12 d4 4b 	call	#0x4bd4	
    4604:	82 43 0e 07 	mov	#0,	&0x070e	;r3 As==00
    4608:	82 43 0a 07 	mov	#0,	&0x070a	;r3 As==00
    460c:	b0 12 1e 4a 	call	#0x4a1e	
    4610:	c1 4f 06 00 	mov.b	r15,	6(r1)	;0x0006(r1)
    4614:	8f 10       	swpb	r15		
    4616:	c1 4f 07 00 	mov.b	r15,	7(r1)	;0x0007(r1)
    461a:	91 41 06 00 02 00 	mov	6(r1),	2(r1)	;0x0006(r1), 0x0002(r1)
    4620:	a1 d2 02 00 	bis	#4,	2(r1)	;r2 As==10, 0x0002(r1)
    4624:	1f 41 02 00 	mov	2(r1),	r15	;0x0002(r1)
    4628:	3f d2       	bis	#8,	r15	;r2 As==11
    462a:	81 4f 02 00 	mov	r15,	2(r1)	;0x0002(r1)
    462e:	81 4f 00 00 	mov	r15,	0(r1)	;0x0000(r1)
    4632:	b0 12 02 4a 	call	#0x4a02	
    4636:	b2 f0 7f ff b0 01 	and	#-129,	&0x01b0	;#0xff7f
    463c:	c2 43 00 1e 	mov.b	#0,	&0x1e00	;r3 As==00
    4640:	c2 43 02 1e 	mov.b	#0,	&0x1e02	;r3 As==00
    4644:	f2 40 0a 00 de 1f 	mov.b	#10,	&0x1fde	;#0x000a
    464a:	c2 43 b7 1d 	mov.b	#0,	&0x1db7	;r3 As==00
    464e:	c2 43 c4 1d 	mov.b	#0,	&0x1dc4	;r3 As==00
    4652:	c2 43 4e 21 	mov.b	#0,	&0x214e	;r3 As==00
    4656:	82 43 68 22 	mov	#0,	&0x2268	;r3 As==00
    465a:	c2 43 48 22 	mov.b	#0,	&0x2248	;r3 As==00
    465e:	c2 43 c6 1e 	mov.b	#0,	&0x1ec6	;r3 As==00
    4662:	b0 12 64 4a 	call	#0x4a64	
    4666:	c2 43 61 1e 	mov.b	#0,	&0x1e61	;r3 As==00
    466a:	c2 43 60 1e 	mov.b	#0,	&0x1e60	;r3 As==00
    466e:	f2 43 54 21 	mov.b	#-1,	&0x2154	;r3 As==11
    4672:	f2 43 55 21 	mov.b	#-1,	&0x2155	;r3 As==11
    4676:	c2 43 41 1d 	mov.b	#0,	&0x1d41	;r3 As==00
    467a:	d2 43 78 1c 	mov.b	#1,	&0x1c78	;r3 As==01
    467e:	b2 40 00 20 1e 1d 	mov	#8192,	&0x1d1e	;#0x2000
    4684:	b2 40 00 20 1a 1d 	mov	#8192,	&0x1d1a	;#0x2000
    468a:	5f 42 1c 1d 	mov.b	&0x1d1c,r15	
    468e:	5f c3       	bic.b	#1,	r15	;r3 As==01
    4690:	5e 42 20 1d 	mov.b	&0x1d20,r14	
    4694:	7e f0 e0 ff 	and.b	#-32,	r14	;#0xffe0
    4698:	6f d3       	bis.b	#2,	r15	;r3 As==10
    469a:	6e d3       	bis.b	#2,	r14	;r3 As==10
    469c:	c2 4e 20 1d 	mov.b	r14,	&0x1d20	
    46a0:	7f f0 e2 ff 	and.b	#-30,	r15	;#0xffe2
    46a4:	c2 4f 1c 1d 	mov.b	r15,	&0x1d1c	
    46a8:	b0 12 ee 6c 	call	#0x6cee	
    46ac:	0f 93       	tst	r15		
    46ae:	04 20       	jnz	$+10     	;abs 0x46b8
    46b0:	7f 40 0d 00 	mov.b	#13,	r15	;#0x000d
    46b4:	b0 12 62 4d 	call	#0x4d62	
    46b8:	1f 42 44 1c 	mov	&0x1c44,r15	
    46bc:	0e 4f       	mov	r15,	r14	
    46be:	1e 53       	inc	r14		
    46c0:	82 4e 56 1d 	mov	r14,	&0x1d56	
    46c4:	82 43 58 1d 	mov	#0,	&0x1d58	;r3 As==00
    46c8:	b2 40 62 21 7c 1c 	mov	#8546,	&0x1c7c	;#0x2162
    46ce:	b2 40 ac 21 7e 1c 	mov	#8620,	&0x1c7e	;#0x21ac
    46d4:	b2 40 f6 21 80 1c 	mov	#8694,	&0x1c80	;#0x21f6
    46da:	b2 43 22 21 	mov	#-1,	&0x2122	;r3 As==11
    46de:	b2 43 24 21 	mov	#-1,	&0x2124	;r3 As==11
    46e2:	b2 43 26 21 	mov	#-1,	&0x2126	;r3 As==11
    46e6:	b2 43 28 21 	mov	#-1,	&0x2128	;r3 As==11
    46ea:	b2 43 2a 21 	mov	#-1,	&0x212a	;r3 As==11
    46ee:	4f 4f       	mov.b	r15,	r15	
    46f0:	5f 0e       	rlam	#4,	r15	
    46f2:	c2 4f 74 1c 	mov.b	r15,	&0x1c74	
    46f6:	f2 43 de 1c 	mov.b	#-1,	&0x1cde	;r3 As==11
    46fa:	b2 f0 ef ff 42 03 	and	#-17,	&0x0342	;#0xffef
    4700:	b2 40 00 40 42 03 	mov	#16384,	&0x0342	;#0x4000
    4706:	f2 43 40 1d 	mov.b	#-1,	&0x1d40	;r3 As==11
    470a:	f2 43 56 21 	mov.b	#-1,	&0x2156	;r3 As==11
    470e:	f2 43 c0 1d 	mov.b	#-1,	&0x1dc0	;r3 As==11
    4712:	82 43 ec 1c 	mov	#0,	&0x1cec	;r3 As==00
    4716:	82 43 ee 1c 	mov	#0,	&0x1cee	;r3 As==00
    471a:	82 43 8c 1c 	mov	#0,	&0x1c8c	;r3 As==00
    471e:	82 43 8e 1c 	mov	#0,	&0x1c8e	;r3 As==00
    4722:	82 43 22 1d 	mov	#0,	&0x1d22	;r3 As==00
    4726:	82 43 24 1d 	mov	#0,	&0x1d24	;r3 As==00
    472a:	b0 12 38 4f 	call	#0x4f38	
    472e:	b2 40 9c 1c dc 1c 	mov	#7324,	&0x1cdc	;#0x1c9c
    4734:	f2 43 9d 1c 	mov.b	#-1,	&0x1c9d	;r3 As==11
    4738:	f2 43 9c 1c 	mov.b	#-1,	&0x1c9c	;r3 As==11
    473c:	b2 40 6d 1d e2 1f 	mov	#7533,	&0x1fe2	;#0x1d6d
    4742:	e2 42 54 1d 	mov.b	#4,	&0x1d54	;r2 As==10
    4746:	1f 42 44 1c 	mov	&0x1c44,r15	
    474a:	1f 53       	inc	r15		
    474c:	82 4f 56 1d 	mov	r15,	&0x1d56	
    4750:	82 43 58 1d 	mov	#0,	&0x1d58	;r3 As==00
    4754:	b0 12 82 4a 	call	#0x4a82	
    4758:	7f 93       	cmp.b	#-1,	r15	;r3 As==11
    475a:	78 24       	jz	$+242    	;abs 0x484c
    475c:	b0 12 cc 96 	call	#0x96cc	
    4760:	f9 3f       	jmp	$-12     	;abs 0x4754
    4762:	32 d2       	eint			
    4764:	32 d2       	eint			
    4766:	b0 12 cc 4d 	call	#0x4dcc	
    476a:	c2 43 06 1e 	mov.b	#0,	&0x1e06	;r3 As==00
    476e:	1f 42 44 1c 	mov	&0x1c44,r15	
    4772:	1e 42 dc 1c 	mov	&0x1cdc,r14	
    4776:	ce 4f 03 00 	mov.b	r15,	3(r14)	;0x0003(r14)
    477a:	0d 4f       	mov	r15,	r13	
    477c:	8d 10       	swpb	r13		
    477e:	ce 4d 02 00 	mov.b	r13,	2(r14)	;0x0002(r14)
    4782:	1f 93       	cmp	#1,	r15	;r3 As==01
    4784:	17 20       	jnz	$+48     	;abs 0x47b4
    4786:	b0 12 4c 50 	call	#0x504c	
    478a:	4e 4e       	mov.b	r14,	r14	
    478c:	3e 50 80 03 	add	#896,	r14	;#0x0380
    4790:	02 12       	push	r2		
    4792:	32 c2       	dint			
    4794:	03 43       	nop			
    4796:	82 4e c0 04 	mov	r14,	&0x04c0	
    479a:	b2 40 0a 00 c8 04 	mov	#10,	&0x04c8	;#0x000a
    47a0:	1d 42 ca 04 	mov	&0x04ca,r13	
    47a4:	1e 42 cc 04 	mov	&0x04cc,r14	
    47a8:	32 41       	pop	r2		
    47aa:	7f 40 07 00 	mov.b	#7,	r15	;#0x0007
    47ae:	b0 12 f4 5a 	call	#0x5af4	
    47b2:	02 3c       	jmp	$+6      	;abs 0x47b8
    47b4:	e2 c3 18 1f 	bic.b	#2,	&0x1f18	;r3 As==10
    47b8:	c2 43 75 1c 	mov.b	#0,	&0x1c75	;r3 As==00
    47bc:	b0 12 cc 4d 	call	#0x4dcc	
    47c0:	b0 12 f4 51 	call	#0x51f4	
    47c4:	3d 40 98 3a 	mov	#15000,	r13	;#0x3a98
    47c8:	0e 43       	clr	r14		
    47ca:	7f 40 03 00 	mov.b	#3,	r15	;#0x0003
    47ce:	b0 12 f4 5a 	call	#0x5af4	
    47d2:	f2 b0 07 00 f6 20 	bit.b	#7,	&0x20f6	;#0x0007
    47d8:	3c 20       	jnz	$+122    	;abs 0x4852
    47da:	5f 42 f6 20 	mov.b	&0x20f6,r15	
    47de:	7f f0 f8 ff 	and.b	#-8,	r15	;#0xfff8
    47e2:	5f d3       	bis.b	#1,	r15	;r3 As==01
    47e4:	c2 4f f6 20 	mov.b	r15,	&0x20f6	
    47e8:	d2 c3 e5 1c 	bic.b	#1,	&0x1ce5	;r3 As==01
    47ec:	03 12       	push	#0		;r3 As==00
    47ee:	30 12 06 00 	push	#6		;#0x0006
    47f2:	30 12 7f 20 	push	#8319		;#0x207f
    47f6:	0c 43       	clr	r12		
    47f8:	0d 43       	clr	r13		
    47fa:	4e 43       	clr.b	r14		
    47fc:	6f 42       	mov.b	#4,	r15	;r2 As==10
    47fe:	b0 12 08 69 	call	#0x6908	
    4802:	31 50 06 00 	add	#6,	r1	;#0x0006
    4806:	0b 42       	mov	r2,	r11	
    4808:	3b f2       	and	#8,	r11	;r2 As==11
    480a:	32 c2       	dint			
    480c:	03 43       	nop			
    480e:	14 3c       	jmp	$+42     	;abs 0x4838
    4810:	1f 42 86 03 	mov	&0x0386,r15	
    4814:	7f f0 10 00 	and.b	#16,	r15	;#0x0010
    4818:	02 24       	jz	$+6      	;abs 0x481e
    481a:	5f 43       	mov.b	#1,	r15	;r3 As==01
    481c:	01 3c       	jmp	$+4      	;abs 0x4820
    481e:	6f 42       	mov.b	#4,	r15	;r2 As==10
    4820:	4f 4f       	mov.b	r15,	r15	
    4822:	5f 02       	rlam	#1,	r15	
    4824:	1f 4f 34 c2 	mov	-15820(r15),r15	;0xc234(r15)
    4828:	3f d2       	bis	#8,	r15	;r2 As==11
    482a:	81 4f 04 00 	mov	r15,	4(r1)	;0x0004(r1)
    482e:	12 d1 04 00 	bis	4(r1),	r2	;0x0004(r1)
    4832:	32 c2       	dint			
    4834:	03 43       	nop			
    4836:	03 43       	nop			
    4838:	b0 12 82 4a 	call	#0x4a82	
    483c:	7f 93       	cmp.b	#-1,	r15	;r3 As==11
    483e:	e8 27       	jz	$-46     	;abs 0x4810
    4840:	0b 93       	tst	r11		
    4842:	01 24       	jz	$+4      	;abs 0x4846
    4844:	32 d2       	eint			
    4846:	b0 12 cc 96 	call	#0x96cc	
    484a:	dd 3f       	jmp	$-68     	;abs 0x4806
    484c:	0b 93       	tst	r11		
    484e:	8a 27       	jz	$-234    	;abs 0x4764
    4850:	88 3f       	jmp	$-238    	;abs 0x4762
    4852:	b0 12 3a 50 	call	#0x503a	
    4856:	d7 3f       	jmp	$-80     	;abs 0x4806

00004858 <__stop_progExec__>:
    4858:	32 d0 f0 00 	bis	#240,	r2	;#0x00f0
    485c:	fd 3f       	jmp	$-4      	;abs 0x4858

0000485e <__ctors_end>:
    485e:	30 40 d4 bb 	br	#0xbbd4	

00004862 <Msp430CounterC__0__Counter__overflow>:
    4862:	92 53 68 1d 	inc	&0x1d68	
    4866:	82 63 6a 1d 	adc	&0x1d6a	
    486a:	92 53 6e 1e 	inc	&0x1e6e	
    486e:	82 63 70 1e 	adc	&0x1e70	
    4872:	30 41       	ret			

00004874 <Msp430HybridAlarmCounterP__now>:
    4874:	3b 15       	pushm	#4,	r11	
    4876:	0a 4d       	mov	r13,	r10	
    4878:	9f 42 50 03 00 00 	mov	&0x0350,0(r15)	;0x0000(r15)
    487e:	1b 42 90 03 	mov	&0x0390,r11	
    4882:	8e 4b 00 00 	mov	r11,	0(r14)	;0x0000(r14)
    4886:	2f 4f       	mov	@r15,	r15	
    4888:	1e 42 50 03 	mov	&0x0350,r14	
    488c:	0f 9e       	cmp	r14,	r15	
    488e:	fc 27       	jz	$-6      	;abs 0x4888
    4890:	19 42 90 03 	mov	&0x0390,r9	
    4894:	0c 43       	clr	r12		
    4896:	0d 43       	clr	r13		
    4898:	0d 4f       	mov	r15,	r13	
    489a:	0e 49       	mov	r9,	r14	
    489c:	0e 8b       	sub	r11,	r14	
    489e:	0f 43       	clr	r15		
    48a0:	4f ee       	xor.b	r14,	r15	
    48a2:	0f ee       	xor	r14,	r15	
    48a4:	8f 10       	swpb	r15		
    48a6:	4e 4e       	mov.b	r14,	r14	
    48a8:	8e 10       	swpb	r14		
    48aa:	0e 5e       	rla	r14		
    48ac:	0f 6f       	rlc	r15		
    48ae:	0e 5e       	rla	r14		
    48b0:	0f 6f       	rlc	r15		
    48b2:	0e 5e       	rla	r14		
    48b4:	0f 6f       	rlc	r15		
    48b6:	08 4c       	mov	r12,	r8	
    48b8:	09 4d       	mov	r13,	r9	
    48ba:	08 8e       	sub	r14,	r8	
    48bc:	09 7f       	subc	r15,	r9	
    48be:	8a 48 00 00 	mov	r8,	0(r10)	;0x0000(r10)
    48c2:	8a 49 02 00 	mov	r9,	2(r10)	;0x0002(r10)
    48c6:	38 17       	popm	#4,	r11	
    48c8:	30 41       	ret			

000048ca <Msp430TimerCapComP__3__Event__fired>:
    48ca:	1f 42 48 03 	mov	&0x0348,r15	
    48ce:	8f 10       	swpb	r15		
    48d0:	5f f3       	and.b	#1,	r15	;r3 As==01
    48d2:	02 24       	jz	$+6      	;abs 0x48d8
    48d4:	1f 42 58 03 	mov	&0x0358,r15	
    48d8:	30 41       	ret			

000048da <Msp430TimerCapComP__4__Event__fired>:
    48da:	1f 42 4a 03 	mov	&0x034a,r15	
    48de:	8f 10       	swpb	r15		
    48e0:	5f f3       	and.b	#1,	r15	;r3 As==01
    48e2:	02 24       	jz	$+6      	;abs 0x48e8
    48e4:	1f 42 5a 03 	mov	&0x035a,r15	
    48e8:	30 41       	ret			

000048ea <Msp430TimerCapComP__5__Event__fired>:
    48ea:	1f 42 c2 03 	mov	&0x03c2,r15	
    48ee:	8f 10       	swpb	r15		
    48f0:	5f f3       	and.b	#1,	r15	;r3 As==01
    48f2:	02 24       	jz	$+6      	;abs 0x48f8
    48f4:	1f 42 d2 03 	mov	&0x03d2,r15	
    48f8:	30 41       	ret			

000048fa <Msp430TimerCapComP__6__Event__fired>:
    48fa:	1f 42 c4 03 	mov	&0x03c4,r15	
    48fe:	8f 10       	swpb	r15		
    4900:	5f f3       	and.b	#1,	r15	;r3 As==01
    4902:	02 24       	jz	$+6      	;abs 0x4908
    4904:	1f 42 d4 03 	mov	&0x03d4,r15	
    4908:	30 41       	ret			

0000490a <Msp430TimerCapComP__7__Event__fired>:
    490a:	1f 42 c6 03 	mov	&0x03c6,r15	
    490e:	8f 10       	swpb	r15		
    4910:	5f f3       	and.b	#1,	r15	;r3 As==01
    4912:	02 24       	jz	$+6      	;abs 0x4918
    4914:	1f 42 d6 03 	mov	&0x03d6,r15	
    4918:	30 41       	ret			

0000491a <Msp430TimerCapComP__8__Event__fired>:
    491a:	1f 42 c8 03 	mov	&0x03c8,r15	
    491e:	8f 10       	swpb	r15		
    4920:	5f f3       	and.b	#1,	r15	;r3 As==01
    4922:	02 24       	jz	$+6      	;abs 0x4928
    4924:	1f 42 d8 03 	mov	&0x03d8,r15	
    4928:	30 41       	ret			

0000492a <Msp430TimerCapComP__9__Event__fired>:
    492a:	1f 42 ca 03 	mov	&0x03ca,r15	
    492e:	8f 10       	swpb	r15		
    4930:	5f f3       	and.b	#1,	r15	;r3 As==01
    4932:	02 24       	jz	$+6      	;abs 0x4938
    4934:	1f 42 da 03 	mov	&0x03da,r15	
    4938:	30 41       	ret			

0000493a <Msp430TimerCapComP__10__Event__fired>:
    493a:	1f 42 cc 03 	mov	&0x03cc,r15	
    493e:	8f 10       	swpb	r15		
    4940:	5f f3       	and.b	#1,	r15	;r3 As==01
    4942:	02 24       	jz	$+6      	;abs 0x4948
    4944:	1f 42 dc 03 	mov	&0x03dc,r15	
    4948:	30 41       	ret			

0000494a <Msp430TimerCapComP__11__Event__fired>:
    494a:	1f 42 ce 03 	mov	&0x03ce,r15	
    494e:	8f 10       	swpb	r15		
    4950:	5f f3       	and.b	#1,	r15	;r3 As==01
    4952:	02 24       	jz	$+6      	;abs 0x4958
    4954:	1f 42 de 03 	mov	&0x03de,r15	
    4958:	30 41       	ret			

0000495a <Msp430UsciSpiP__1__FastSpiByte__splitRead>:
    495a:	d2 b3 dd 05 	bit.b	#1,	&0x05dd	;r3 As==01
    495e:	fd 27       	jz	$-4      	;abs 0x495a
    4960:	5f 42 ca 05 	mov.b	&0x05ca,r15	
    4964:	5f 42 cc 05 	mov.b	&0x05cc,r15	
    4968:	5e 42 ca 05 	mov.b	&0x05ca,r14	
    496c:	30 41       	ret			

0000496e <Msp430UsciSpiP__1__FastSpiByte__splitWrite>:
    496e:	e2 b3 dd 05 	bit.b	#2,	&0x05dd	;r3 As==10
    4972:	fd 27       	jz	$-4      	;abs 0x496e
    4974:	c2 4f ce 05 	mov.b	r15,	&0x05ce	
    4978:	30 41       	ret			

0000497a <RF233_CRCBYTE_COMMAND>:
    497a:	4e ef       	xor.b	r15,	r14	
    497c:	4d 4e       	mov.b	r14,	r13	
    497e:	5d 0e       	rlam	#4,	r13	
    4980:	4e ed       	xor.b	r13,	r14	
    4982:	4e 4e       	mov.b	r14,	r14	
    4984:	0d 4e       	mov	r14,	r13	
    4986:	5d 0a       	rlam	#3,	r13	
    4988:	0c 4e       	mov	r14,	r12	
    498a:	5c 0f       	rrum	#4,	r12	
    498c:	0d ec       	xor	r12,	r13	
    498e:	8e 10       	swpb	r14		
    4990:	8f 10       	swpb	r15		
    4992:	4f 4f       	mov.b	r15,	r15	
    4994:	0e df       	bis	r15,	r14	
    4996:	0f 4d       	mov	r13,	r15	
    4998:	0f ee       	xor	r14,	r15	
    499a:	30 41       	ret			

0000499c <__nesc_hton_uint32>:
    499c:	0b 12       	push	r11		
    499e:	0c 4e       	mov	r14,	r12	
    49a0:	cf 4d 03 00 	mov.b	r13,	3(r15)	;0x0003(r15)
    49a4:	0b 4e       	mov	r14,	r11	
    49a6:	0e 4d       	mov	r13,	r14	
    49a8:	8e 10       	swpb	r14		
    49aa:	8b 10       	swpb	r11		
    49ac:	4e eb       	xor.b	r11,	r14	
    49ae:	0e eb       	xor	r11,	r14	
    49b0:	cf 4e 02 00 	mov.b	r14,	2(r15)	;0x0002(r15)
    49b4:	cf 4c 01 00 	mov.b	r12,	1(r15)	;0x0001(r15)
    49b8:	0e 4c       	mov	r12,	r14	
    49ba:	8e 10       	swpb	r14		
    49bc:	cf 4e 00 00 	mov.b	r14,	0(r15)	;0x0000(r15)
    49c0:	0e 4d       	mov	r13,	r14	
    49c2:	0f 4c       	mov	r12,	r15	
    49c4:	3b 41       	pop	r11		
    49c6:	30 41       	ret			

000049c8 <__nesc_ntoh_uint32>:
    49c8:	0b 12       	push	r11		
    49ca:	0b 4f       	mov	r15,	r11	
    49cc:	6f 4f       	mov.b	@r15,	r15	
    49ce:	0c 43       	clr	r12		
    49d0:	0d 43       	clr	r13		
    49d2:	0d 4f       	mov	r15,	r13	
    49d4:	8d 10       	swpb	r13		
    49d6:	0e 43       	clr	r14		
    49d8:	0f 43       	clr	r15		
    49da:	5f 4b 01 00 	mov.b	1(r11),	r15	;0x0001(r11)
    49de:	0e dc       	bis	r12,	r14	
    49e0:	0f dd       	bis	r13,	r15	
    49e2:	5c 4b 03 00 	mov.b	3(r11),	r12	;0x0003(r11)
    49e6:	0d 43       	clr	r13		
    49e8:	0e dc       	bis	r12,	r14	
    49ea:	0f dd       	bis	r13,	r15	
    49ec:	5c 4b 02 00 	mov.b	2(r11),	r12	;0x0002(r11)
    49f0:	4d ec       	xor.b	r12,	r13	
    49f2:	0d ec       	xor	r12,	r13	
    49f4:	8d 10       	swpb	r13		
    49f6:	4c 4c       	mov.b	r12,	r12	
    49f8:	8c 10       	swpb	r12		
    49fa:	0e dc       	bis	r12,	r14	
    49fc:	0f dd       	bis	r13,	r15	
    49fe:	3b 41       	pop	r11		
    4a00:	30 41       	ret			

00004a02 <HplAdc12P__HplAdc12__setCtl0>:
    4a02:	31 50 fa ff 	add	#-6,	r1	;#0xfffa
    4a06:	82 4f 00 07 	mov	r15,	&0x0700	
    4a0a:	31 50 06 00 	add	#6,	r1	;#0x0006
    4a0e:	30 41       	ret			

00004a10 <HplAdc12P__HplAdc12__setMCtl>:
    4a10:	4f 4f       	mov.b	r15,	r15	
    4a12:	3f 50 10 07 	add	#1808,	r15	;#0x0710
    4a16:	4e 4e       	mov.b	r14,	r14	
    4a18:	cf 4e 00 00 	mov.b	r14,	0(r15)	;0x0000(r15)
    4a1c:	30 41       	ret			

00004a1e <Msp430Adc12ImplP__HplAdc12__getCtl0>:
    4a1e:	31 50 f6 ff 	add	#-10,	r1	;#0xfff6
    4a22:	1f 42 00 07 	mov	&0x0700,r15	
    4a26:	81 4f 04 00 	mov	r15,	4(r1)	;0x0004(r1)
    4a2a:	4f 4f       	mov.b	r15,	r15	
    4a2c:	5e 41 05 00 	mov.b	5(r1),	r14	;0x0005(r1)
    4a30:	8e 10       	swpb	r14		
    4a32:	0f de       	bis	r14,	r15	
    4a34:	31 50 0a 00 	add	#10,	r1	;#0x000a
    4a38:	30 41       	ret			

00004a3a <ConfigStorageP__BConfig__flipped>:
    4a3a:	4d 4f       	mov.b	r15,	r13	
    4a3c:	5d 0b       	rrum	#3,	r13	
    4a3e:	4e 4f       	mov.b	r15,	r14	
    4a40:	7e f0 07 00 	and.b	#7,	r14	;#0x0007
    4a44:	5f 4d e5 1c 	mov.b	7397(r13),r15	;0x1ce5(r13)
    4a48:	03 24       	jz	$+8      	;abs 0x4a50
    4a4a:	7e 53       	add.b	#-1,	r14	;r3 As==11
    4a4c:	ce 18 0f 11 	.rpt	r14
				rrax	r15		
    4a50:	1f f3       	and	#1,	r15	;r3 As==01
    4a52:	30 41       	ret			

00004a54 <LogStorageP__locateCurrentPage>:
    4a54:	1e 42 88 1c 	mov	&0x1c88,r14	
    4a58:	1f 42 d8 1f 	mov	&0x1fd8,r15	
    4a5c:	0f 8e       	sub	r14,	r15	
    4a5e:	5f 03       	rrum	#1,	r15	
    4a60:	0f 5e       	add	r14,	r15	
    4a62:	30 41       	ret			

00004a64 <SerialP__rxInit>:
    4a64:	c2 43 fd 20 	mov.b	#0,	&0x20fd	;r3 As==00
    4a68:	c2 43 fc 20 	mov.b	#0,	&0x20fc	;r3 As==00
    4a6c:	e2 42 45 1d 	mov.b	#4,	&0x1d45	;r2 As==10
    4a70:	c2 43 34 20 	mov.b	#0,	&0x2034	;r3 As==00
    4a74:	c2 43 37 21 	mov.b	#0,	&0x2137	;r3 As==00
    4a78:	c2 43 48 1d 	mov.b	#0,	&0x1d48	;r3 As==00
    4a7c:	82 43 74 1e 	mov	#0,	&0x1e74	;r3 As==00
    4a80:	30 41       	ret			

00004a82 <SchedulerBasicP__popTask>:
    4a82:	5f 42 4a 21 	mov.b	&0x214a,r15	
    4a86:	7f 93       	cmp.b	#-1,	r15	;r3 As==11
    4a88:	0c 24       	jz	$+26     	;abs 0x4aa2
    4a8a:	4e 4f       	mov.b	r15,	r14	
    4a8c:	3e 50 f6 1c 	add	#7414,	r14	;#0x1cf6
    4a90:	6d 4e       	mov.b	@r14,	r13	
    4a92:	c2 4d 4a 21 	mov.b	r13,	&0x214a	
    4a96:	7d 93       	cmp.b	#-1,	r13	;r3 As==11
    4a98:	02 20       	jnz	$+6      	;abs 0x4a9e
    4a9a:	f2 43 51 22 	mov.b	#-1,	&0x2251	;r3 As==11
    4a9e:	fe 43 00 00 	mov.b	#-1,	0(r14)	;r3 As==11, 0x0000(r14)
    4aa2:	30 41       	ret			

00004aa4 <HplAdc12P__HplAdc12__getMCtl>:
    4aa4:	4f 4f       	mov.b	r15,	r15	
    4aa6:	3f 50 10 07 	add	#1808,	r15	;#0x0710
    4aaa:	6f 4f       	mov.b	@r15,	r15	
    4aac:	30 41       	ret			

00004aae <crcByte>:
    4aae:	0d 4f       	mov	r15,	r13	
    4ab0:	8d 10       	swpb	r13		
    4ab2:	4d 4d       	mov.b	r13,	r13	
    4ab4:	4f 4f       	mov.b	r15,	r15	
    4ab6:	8f 10       	swpb	r15		
    4ab8:	0d df       	bis	r15,	r13	
    4aba:	4e 4e       	mov.b	r14,	r14	
    4abc:	0d ee       	xor	r14,	r13	
    4abe:	4e 4d       	mov.b	r13,	r14	
    4ac0:	5e 0f       	rrum	#4,	r14	
    4ac2:	0e ed       	xor	r13,	r14	
    4ac4:	4f 4e       	mov.b	r14,	r15	
    4ac6:	8f 10       	swpb	r15		
    4ac8:	5f 0e       	rlam	#4,	r15	
    4aca:	0f ee       	xor	r14,	r15	
    4acc:	0e 4f       	mov	r15,	r14	
    4ace:	3e f0 ff 00 	and	#255,	r14	;#0x00ff
    4ad2:	5e 0e       	rlam	#4,	r14	
    4ad4:	5e 02       	rlam	#1,	r14	
    4ad6:	0f ee       	xor	r14,	r15	
    4ad8:	30 41       	ret			

00004ada <FcfsResourceQueueC__2__FcfsQueue__dequeue>:
    4ada:	5f 42 32 1c 	mov.b	&0x1c32,r15	
    4ade:	7f 93       	cmp.b	#-1,	r15	;r3 As==11
    4ae0:	0b 24       	jz	$+24     	;abs 0x4af8
    4ae2:	4e 4f       	mov.b	r15,	r14	
    4ae4:	5d 4e 56 21 	mov.b	8534(r14),r13	;0x2156(r14)
    4ae8:	c2 4d 32 1c 	mov.b	r13,	&0x1c32	
    4aec:	7d 93       	cmp.b	#-1,	r13	;r3 As==11
    4aee:	02 20       	jnz	$+6      	;abs 0x4af4
    4af0:	f2 43 31 1c 	mov.b	#-1,	&0x1c31	;r3 As==11
    4af4:	fe 43 56 21 	mov.b	#-1,	8534(r14);r3 As==11, 0x2156(r14)
    4af8:	30 41       	ret			

00004afa <Msp430TimerCapComP__14__Event__fired>:
    4afa:	1f 42 86 03 	mov	&0x0386,r15	
    4afe:	8f 10       	swpb	r15		
    4b00:	5f f3       	and.b	#1,	r15	;r3 As==01
    4b02:	03 24       	jz	$+8      	;abs 0x4b0a
    4b04:	1f 42 96 03 	mov	&0x0396,r15	
    4b08:	30 41       	ret			
    4b0a:	b2 f0 ef ff 86 03 	and	#-17,	&0x0386	;#0xffef
    4b10:	30 41       	ret			

00004b12 <Msp430TimerCapComP__15__Event__fired>:
    4b12:	1f 42 02 04 	mov	&0x0402,r15	
    4b16:	8f 10       	swpb	r15		
    4b18:	5f f3       	and.b	#1,	r15	;r3 As==01
    4b1a:	02 24       	jz	$+6      	;abs 0x4b20
    4b1c:	1f 42 12 04 	mov	&0x0412,r15	
    4b20:	30 41       	ret			

00004b22 <Msp430TimerCapComP__16__Event__fired>:
    4b22:	1f 42 04 04 	mov	&0x0404,r15	
    4b26:	8f 10       	swpb	r15		
    4b28:	5f f3       	and.b	#1,	r15	;r3 As==01
    4b2a:	02 24       	jz	$+6      	;abs 0x4b30
    4b2c:	1f 42 14 04 	mov	&0x0414,r15	
    4b30:	30 41       	ret			

00004b32 <Msp430TimerCapComP__17__Event__fired>:
    4b32:	1f 42 06 04 	mov	&0x0406,r15	
    4b36:	8f 10       	swpb	r15		
    4b38:	5f f3       	and.b	#1,	r15	;r3 As==01
    4b3a:	02 24       	jz	$+6      	;abs 0x4b40
    4b3c:	1f 42 16 04 	mov	&0x0416,r15	
    4b40:	30 41       	ret			

00004b42 <FcfsResourceQueueC__5__FcfsQueue__dequeue>:
    4b42:	5f 42 10 1c 	mov.b	&0x1c10,r15	
    4b46:	7f 93       	cmp.b	#-1,	r15	;r3 As==11
    4b48:	0c 24       	jz	$+26     	;abs 0x4b62
    4b4a:	4e 4f       	mov.b	r15,	r14	
    4b4c:	3e 50 54 21 	add	#8532,	r14	;#0x2154
    4b50:	6d 4e       	mov.b	@r14,	r13	
    4b52:	c2 4d 10 1c 	mov.b	r13,	&0x1c10	
    4b56:	7d 93       	cmp.b	#-1,	r13	;r3 As==11
    4b58:	02 20       	jnz	$+6      	;abs 0x4b5e
    4b5a:	f2 43 0f 1c 	mov.b	#-1,	&0x1c0f	;r3 As==11
    4b5e:	fe 43 00 00 	mov.b	#-1,	0(r14)	;r3 As==11, 0x0000(r14)
    4b62:	30 41       	ret			

00004b64 <FcfsResourceQueueC__1__FcfsQueue__dequeue>:
    4b64:	5f 42 36 1c 	mov.b	&0x1c36,r15	
    4b68:	7f 93       	cmp.b	#-1,	r15	;r3 As==11
    4b6a:	0b 24       	jz	$+24     	;abs 0x4b82
    4b6c:	4e 4f       	mov.b	r15,	r14	
    4b6e:	5d 4e c0 1d 	mov.b	7616(r14),r13	;0x1dc0(r14)
    4b72:	c2 4d 36 1c 	mov.b	r13,	&0x1c36	
    4b76:	7d 93       	cmp.b	#-1,	r13	;r3 As==11
    4b78:	02 20       	jnz	$+6      	;abs 0x4b7e
    4b7a:	f2 43 35 1c 	mov.b	#-1,	&0x1c35	;r3 As==11
    4b7e:	fe 43 c0 1d 	mov.b	#-1,	7616(r14);r3 As==11, 0x1dc0(r14)
    4b82:	30 41       	ret			

00004b84 <Msp430UsciSpiP__0__SpiByte__write>:
    4b84:	e2 b3 3d 06 	bit.b	#2,	&0x063d	;r3 As==10
    4b88:	fd 27       	jz	$-4      	;abs 0x4b84
    4b8a:	c2 4f 2e 06 	mov.b	r15,	&0x062e	
    4b8e:	d2 b3 3d 06 	bit.b	#1,	&0x063d	;r3 As==01
    4b92:	fd 27       	jz	$-4      	;abs 0x4b8e
    4b94:	5f 42 2a 06 	mov.b	&0x062a,r15	
    4b98:	5f 42 2c 06 	mov.b	&0x062c,r15	
    4b9c:	5e 42 2a 06 	mov.b	&0x062a,r14	
    4ba0:	30 41       	ret			

00004ba2 <TimeSyncMessageLayerP__0__TimeSyncPacketMilli__isValid>:
    4ba2:	ef b3 44 00 	bit.b	#2,	68(r15)	;r3 As==10, 0x0044(r15)
    4ba6:	13 24       	jz	$+40     	;abs 0x4bce
    4ba8:	6e 4f       	mov.b	@r15,	r14	
    4baa:	7e 50 ee ff 	add.b	#-18,	r14	;#0xffee
    4bae:	4e 4e       	mov.b	r14,	r14	
    4bb0:	0e 5f       	add	r15,	r14	
    4bb2:	0f 4e       	mov	r14,	r15	
    4bb4:	3f 50 0d 00 	add	#13,	r15	;#0x000d
    4bb8:	b0 12 c8 49 	call	#0x49c8	
    4bbc:	1d 43       	mov	#1,	r13	;r3 As==01
    4bbe:	0e 93       	tst	r14		
    4bc0:	04 20       	jnz	$+10     	;abs 0x4bca
    4bc2:	3f 90 00 80 	cmp	#-32768,r15	;#0x8000
    4bc6:	01 20       	jnz	$+4      	;abs 0x4bca
    4bc8:	0d 43       	clr	r13		
    4bca:	0f 4d       	mov	r13,	r15	
    4bcc:	01 3c       	jmp	$+4      	;abs 0x4bd0
    4bce:	0f 43       	clr	r15		
    4bd0:	4f 4f       	mov.b	r15,	r15	
    4bd2:	30 41       	ret			

00004bd4 <HplAdc12P__HplAdc12__stopConversion>:
    4bd4:	1f 42 02 07 	mov	&0x0702,r15	
    4bd8:	b2 f0 f9 ff 02 07 	and	#-7,	&0x0702	;#0xfff9
    4bde:	b2 f0 fc ff 00 07 	and	#-4,	&0x0700	;#0xfffc
    4be4:	b2 f0 ef ff 00 07 	and	#-17,	&0x0700	;#0xffef
    4bea:	1e 42 02 07 	mov	&0x0702,r14	
    4bee:	3f f0 06 00 	and	#6,	r15	;#0x0006
    4bf2:	0f de       	bis	r14,	r15	
    4bf4:	82 4f 02 07 	mov	r15,	&0x0702	
    4bf8:	30 41       	ret			

00004bfa <Msp430Adc12ImplP__resetAdcPin>:
    4bfa:	7f 92       	cmp.b	#8,	r15	;r2 As==11
    4bfc:	29 2c       	jc	$+84     	;abs 0x4c50
    4bfe:	4f 4f       	mov.b	r15,	r15	
    4c00:	5f 02       	rlam	#1,	r15	
    4c02:	10 4f ec c0 	br	-16148(r15)	;0xc0ec(r15)
    4c06:	5f 42 4b 02 	mov.b	&0x024b,r15	
    4c0a:	5f c3       	bic.b	#1,	r15	;r3 As==01
    4c0c:	1f 3c       	jmp	$+64     	;abs 0x4c4c
    4c0e:	5f 42 4b 02 	mov.b	&0x024b,r15	
    4c12:	6f c3       	bic.b	#2,	r15	;r3 As==10
    4c14:	1b 3c       	jmp	$+56     	;abs 0x4c4c
    4c16:	5f 42 4b 02 	mov.b	&0x024b,r15	
    4c1a:	6f c2       	bic.b	#4,	r15	;r2 As==10
    4c1c:	17 3c       	jmp	$+48     	;abs 0x4c4c
    4c1e:	5f 42 4b 02 	mov.b	&0x024b,r15	
    4c22:	7f c2       	bic.b	#8,	r15	;r2 As==11
    4c24:	13 3c       	jmp	$+40     	;abs 0x4c4c
    4c26:	5f 42 4b 02 	mov.b	&0x024b,r15	
    4c2a:	7f f0 ef ff 	and.b	#-17,	r15	;#0xffef
    4c2e:	0e 3c       	jmp	$+30     	;abs 0x4c4c
    4c30:	5f 42 4b 02 	mov.b	&0x024b,r15	
    4c34:	7f f0 df ff 	and.b	#-33,	r15	;#0xffdf
    4c38:	09 3c       	jmp	$+20     	;abs 0x4c4c
    4c3a:	5f 42 4b 02 	mov.b	&0x024b,r15	
    4c3e:	7f f0 bf ff 	and.b	#-65,	r15	;#0xffbf
    4c42:	04 3c       	jmp	$+10     	;abs 0x4c4c
    4c44:	5f 42 4b 02 	mov.b	&0x024b,r15	
    4c48:	7f f0 7f 00 	and.b	#127,	r15	;#0x007f
    4c4c:	c2 4f 4b 02 	mov.b	r15,	&0x024b	
    4c50:	30 41       	ret			

00004c52 <PlatformClockP__maj_xt1>:
    4c52:	1f 42 50 03 	mov	&0x0350,r15	
    4c56:	1e 42 50 03 	mov	&0x0350,r14	
    4c5a:	1d 42 50 03 	mov	&0x0350,r13	
    4c5e:	0f 9e       	cmp	r14,	r15	
    4c60:	07 24       	jz	$+16     	;abs 0x4c70
    4c62:	0f 9d       	cmp	r13,	r15	
    4c64:	05 24       	jz	$+12     	;abs 0x4c70
    4c66:	0e 9d       	cmp	r13,	r14	
    4c68:	02 24       	jz	$+6      	;abs 0x4c6e
    4c6a:	03 43       	nop			
    4c6c:	fe 3f       	jmp	$-2      	;abs 0x4c6a
    4c6e:	0f 4e       	mov	r14,	r15	
    4c70:	30 41       	ret			

00004c72 <PlatformClockP__wait_for_32K>:
    4c72:	0b 12       	push	r11		
    4c74:	a2 42 40 03 	mov	#4,	&0x0340	;r2 As==10
    4c78:	a2 42 80 03 	mov	#4,	&0x0380	;r2 As==10
    4c7c:	b2 40 20 01 40 03 	mov	#288,	&0x0340	;#0x0120
    4c82:	b2 40 20 02 80 03 	mov	#544,	&0x0380	;#0x0220
    4c88:	b2 40 10 00 4a 22 	mov	#16,	&0x224a	;#0x0010
    4c8e:	3b 40 10 00 	mov	#16,	r11	;#0x0010
    4c92:	92 b3 80 03 	bit	#1,	&0x0380	;r3 As==01
    4c96:	14 24       	jz	$+42     	;abs 0x4cc0
    4c98:	92 c3 80 03 	bic	#1,	&0x0380	;r3 As==01
    4c9c:	3b 53       	add	#-1,	r11	;r3 As==11
    4c9e:	33 24       	jz	$+104    	;abs 0x4d06
    4ca0:	82 9b 4a 22 	cmp	r11,	&0x224a	
    4ca4:	0d 28       	jnc	$+28     	;abs 0x4cc0
    4ca6:	d2 43 50 21 	mov.b	#1,	&0x2150	;r3 As==01
    4caa:	82 43 4a 22 	mov	#0,	&0x224a	;r3 As==00
    4cae:	82 43 7a 1c 	mov	#0,	&0x1c7a	;r3 As==00
    4cb2:	b0 12 52 4c 	call	#0x4c52	
    4cb6:	82 4f ea 1c 	mov	r15,	&0x1cea	
    4cba:	92 42 90 03 ce 1f 	mov	&0x0390,&0x1fce	
    4cc0:	c2 93 50 21 	tst.b	&0x2150	
    4cc4:	e6 27       	jz	$-50     	;abs 0x4c92
    4cc6:	b0 12 52 4c 	call	#0x4c52	
    4cca:	82 4f 6e 1c 	mov	r15,	&0x1c6e	
    4cce:	82 9f ea 1c 	cmp	r15,	&0x1cea	
    4cd2:	df 27       	jz	$-64     	;abs 0x4c92
    4cd4:	1e 42 7a 1c 	mov	&0x1c7a,r14	
    4cd8:	1c 42 90 03 	mov	&0x0390,r12	
    4cdc:	0d 4e       	mov	r14,	r13	
    4cde:	5d 02       	rlam	#1,	r13	
    4ce0:	1c 82 ce 1f 	sub	&0x1fce,r12	
    4ce4:	8d 4c 54 22 	mov	r12,	8788(r13);0x2254(r13)
    4ce8:	1e 53       	inc	r14		
    4cea:	82 4e 7a 1c 	mov	r14,	&0x1c7a	
    4cee:	82 4f ea 1c 	mov	r15,	&0x1cea	
    4cf2:	92 42 90 03 ce 1f 	mov	&0x0390,&0x1fce	
    4cf8:	3e 90 0a 00 	cmp	#10,	r14	;#0x000a
    4cfc:	ca 2b       	jnc	$-106    	;abs 0x4c92
    4cfe:	c2 43 50 21 	mov.b	#0,	&0x2150	;r3 As==00
    4d02:	03 43       	nop			
    4d04:	c6 3f       	jmp	$-114    	;abs 0x4c92
    4d06:	03 43       	nop			
    4d08:	3b 41       	pop	r11		
    4d0a:	30 41       	ret			

00004d0c <TransformCounterC__0__Counter__get>:
    4d0c:	2b 15       	pushm	#3,	r11	
    4d0e:	09 42       	mov	r2,	r9	
    4d10:	39 f2       	and	#8,	r9	;r2 As==11
    4d12:	32 c2       	dint			
    4d14:	03 43       	nop			
    4d16:	1c 42 6e 1e 	mov	&0x1e6e,r12	
    4d1a:	1d 42 70 1e 	mov	&0x1e70,r13	
    4d1e:	1f 42 50 03 	mov	&0x0350,r15	
    4d22:	1e 42 40 03 	mov	&0x0340,r14	
    4d26:	5e f3       	and.b	#1,	r14	;r3 As==01
    4d28:	04 24       	jz	$+10     	;abs 0x4d32
    4d2a:	1c 53       	inc	r12		
    4d2c:	0d 63       	adc	r13		
    4d2e:	1f 42 50 03 	mov	&0x0350,r15	
    4d32:	5f 0f       	rrum	#4,	r15	
    4d34:	0a 4f       	mov	r15,	r10	
    4d36:	5a 03       	rrum	#1,	r10	
    4d38:	0b 43       	clr	r11		
    4d3a:	0e 4c       	mov	r12,	r14	
    4d3c:	0f 4d       	mov	r13,	r15	
    4d3e:	4f ec       	xor.b	r12,	r15	
    4d40:	0f ec       	xor	r12,	r15	
    4d42:	8f 10       	swpb	r15		
    4d44:	4e 4e       	mov.b	r14,	r14	
    4d46:	8e 10       	swpb	r14		
    4d48:	0e 5e       	rla	r14		
    4d4a:	0f 6f       	rlc	r15		
    4d4c:	0e 5e       	rla	r14		
    4d4e:	0f 6f       	rlc	r15		
    4d50:	0e 5e       	rla	r14		
    4d52:	0f 6f       	rlc	r15		
    4d54:	0e da       	bis	r10,	r14	
    4d56:	0f db       	bis	r11,	r15	
    4d58:	09 93       	tst	r9		
    4d5a:	01 24       	jz	$+4      	;abs 0x4d5e
    4d5c:	32 d2       	eint			
    4d5e:	29 17       	popm	#3,	r11	
    4d60:	30 41       	ret			

00004d62 <SchedulerBasicP__TaskBasic__postTask>:
    4d62:	0e 42       	mov	r2,	r14	
    4d64:	3e f2       	and	#8,	r14	;r2 As==11
    4d66:	32 c2       	dint			
    4d68:	03 43       	nop			
    4d6a:	4d 4f       	mov.b	r15,	r13	
    4d6c:	fd 93 f6 1c 	cmp.b	#-1,	7414(r13);r3 As==11, 0x1cf6(r13)
    4d70:	06 20       	jnz	$+14     	;abs 0x4d7e
    4d72:	1d 43       	mov	#1,	r13	;r3 As==01
    4d74:	c2 9f 51 22 	cmp.b	r15,	&0x2251	
    4d78:	03 24       	jz	$+8      	;abs 0x4d80
    4d7a:	0d 43       	clr	r13		
    4d7c:	01 3c       	jmp	$+4      	;abs 0x4d80
    4d7e:	1d 43       	mov	#1,	r13	;r3 As==01
    4d80:	4d 93       	tst.b	r13		
    4d82:	0d 20       	jnz	$+28     	;abs 0x4d9e
    4d84:	f2 93 4a 21 	cmp.b	#-1,	&0x214a	;r3 As==11
    4d88:	03 20       	jnz	$+8      	;abs 0x4d90
    4d8a:	c2 4f 4a 21 	mov.b	r15,	&0x214a	
    4d8e:	04 3c       	jmp	$+10     	;abs 0x4d98
    4d90:	5d 42 51 22 	mov.b	&0x2251,r13	
    4d94:	cd 4f f6 1c 	mov.b	r15,	7414(r13);0x1cf6(r13)
    4d98:	c2 4f 51 22 	mov.b	r15,	&0x2251	
    4d9c:	06 3c       	jmp	$+14     	;abs 0x4daa
    4d9e:	3f 40 05 00 	mov	#5,	r15	;#0x0005
    4da2:	0e 93       	tst	r14		
    4da4:	04 24       	jz	$+10     	;abs 0x4dae
    4da6:	32 d2       	eint			
    4da8:	30 41       	ret			
    4daa:	0f 43       	clr	r15		
    4dac:	fa 3f       	jmp	$-10     	;abs 0x4da2
    4dae:	30 41       	ret			

00004db0 <At45dbP__taskSuccess__postTask>:
    4db0:	7f 40 0f 00 	mov.b	#15,	r15	;#0x000f
    4db4:	b0 12 62 4d 	call	#0x4d62	
    4db8:	30 41       	ret			

00004dba <MessageBufferLayerP__0__sendTask__postTask>:
    4dba:	7f 40 0a 00 	mov.b	#10,	r15	;#0x000a
    4dbe:	b0 12 62 4d 	call	#0x4d62	
    4dc2:	30 41       	ret			

00004dc4 <LowPowerListeningLayerP__0__transition__postTask>:
    4dc4:	7f 42       	mov.b	#8,	r15	;r2 As==11
    4dc6:	b0 12 62 4d 	call	#0x4d62	
    4dca:	30 41       	ret			

00004dcc <LowPowerListeningLayerP__0__SplitControl__start>:
    4dcc:	5f 42 86 1c 	mov.b	&0x1c86,r15	
    4dd0:	6f 92       	cmp.b	#4,	r15	;r2 As==10
    4dd2:	08 24       	jz	$+18     	;abs 0x4de4
    4dd4:	4f 93       	tst.b	r15		
    4dd6:	09 20       	jnz	$+20     	;abs 0x4dea
    4dd8:	e2 42 86 1c 	mov.b	#4,	&0x1c86	;r2 As==10
    4ddc:	b0 12 c4 4d 	call	#0x4dc4	
    4de0:	0f 43       	clr	r15		
    4de2:	30 41       	ret			
    4de4:	3f 40 05 00 	mov	#5,	r15	;#0x0005
    4de8:	30 41       	ret			
    4dea:	3f 40 09 00 	mov	#9,	r15	;#0x0009
    4dee:	30 41       	ret			

00004df0 <SerialDispatcherP__0__ReceiveBytePacket__endPacket>:
    4df0:	c2 93 51 1c 	tst.b	&0x1c51	
    4df4:	27 20       	jnz	$+80     	;abs 0x4e44
    4df6:	0f 93       	tst	r15		
    4df8:	25 20       	jnz	$+76     	;abs 0x4e44
    4dfa:	d2 43 51 1c 	mov.b	#1,	&0x1c51	;r3 As==01
    4dfe:	d2 42 0a 1c 50 1c 	mov.b	&0x1c0a,&0x1c50	
    4e04:	d2 b3 5e 1c 	bit.b	#1,	&0x1c5e	;r3 As==01
    4e08:	0f 6f       	rlc	r15		
    4e0a:	c2 4f e4 1c 	mov.b	r15,	&0x1ce4	
    4e0e:	92 42 04 1c 4e 1c 	mov	&0x1c04,&0x1c4e	
    4e14:	d2 42 5c 1c 4c 1c 	mov.b	&0x1c5c,&0x1c4c	
    4e1a:	5e 43       	mov.b	#1,	r14	;r3 As==01
    4e1c:	5e c2 5e 1c 	bic.b	&0x1c5e,r14	
    4e20:	5f 42 5e 1c 	mov.b	&0x1c5e,r15	
    4e24:	5f c3       	bic.b	#1,	r15	;r3 As==01
    4e26:	4f de       	bis.b	r14,	r15	
    4e28:	4e 4e       	mov.b	r14,	r14	
    4e2a:	5e 02       	rlam	#1,	r14	
    4e2c:	92 4e 06 1c 04 1c 	mov	7174(r14),&0x1c04	;0x1c06(r14)
    4e32:	7f f0 e7 ff 	and.b	#-25,	r15	;#0xffe7
    4e36:	c2 4f 5e 1c 	mov.b	r15,	&0x1c5e	
    4e3a:	7f 40 18 00 	mov.b	#24,	r15	;#0x0018
    4e3e:	b0 12 62 4d 	call	#0x4d62	
    4e42:	30 41       	ret			
    4e44:	d2 b3 5e 1c 	bit.b	#1,	&0x1c5e	;r3 As==01
    4e48:	0f 43       	clr	r15		
    4e4a:	0f 6f       	rlc	r15		
    4e4c:	5e 42 5e 1c 	mov.b	&0x1c5e,r14	
    4e50:	4f 93       	tst.b	r15		
    4e52:	02 24       	jz	$+6      	;abs 0x4e58
    4e54:	6e c2       	bic.b	#4,	r14	;r2 As==10
    4e56:	01 3c       	jmp	$+4      	;abs 0x4e5a
    4e58:	6e c3       	bic.b	#2,	r14	;r3 As==10
    4e5a:	c2 4e 5e 1c 	mov.b	r14,	&0x1c5e	
    4e5e:	30 41       	ret			

00004e60 <HplMsp430GeneralIORenP__18__IO__makeOutput>:
    4e60:	0f 42       	mov	r2,	r15	
    4e62:	32 c2       	dint			
    4e64:	03 43       	nop			
    4e66:	e2 d2 24 02 	bis.b	#4,	&0x0224	;r2 As==10
    4e6a:	3f f2       	and	#8,	r15	;r2 As==11
    4e6c:	01 24       	jz	$+4      	;abs 0x4e70
    4e6e:	32 d2       	eint			
    4e70:	30 41       	ret			

00004e72 <HplMsp430GeneralIORenP__18__IO__set>:
    4e72:	0f 42       	mov	r2,	r15	
    4e74:	32 c2       	dint			
    4e76:	03 43       	nop			
    4e78:	e2 d2 22 02 	bis.b	#4,	&0x0222	;r2 As==10
    4e7c:	3f f2       	and	#8,	r15	;r2 As==11
    4e7e:	01 24       	jz	$+4      	;abs 0x4e82
    4e80:	32 d2       	eint			
    4e82:	30 41       	ret			

00004e84 <HplMsp430GeneralIORenP__35__IO__clr>:
    4e84:	0f 42       	mov	r2,	r15	
    4e86:	32 c2       	dint			
    4e88:	03 43       	nop			
    4e8a:	f2 c2 42 02 	bic.b	#8,	&0x0242	;r2 As==11
    4e8e:	3f f2       	and	#8,	r15	;r2 As==11
    4e90:	01 24       	jz	$+4      	;abs 0x4e94
    4e92:	32 d2       	eint			
    4e94:	30 41       	ret			

00004e96 <HplMsp430GeneralIORenP__31__IO__set>:
    4e96:	0f 42       	mov	r2,	r15	
    4e98:	32 c2       	dint			
    4e9a:	03 43       	nop			
    4e9c:	f2 d0 80 ff 23 02 	bis.b	#-128,	&0x0223	;#0xff80
    4ea2:	3f f2       	and	#8,	r15	;r2 As==11
    4ea4:	01 24       	jz	$+4      	;abs 0x4ea8
    4ea6:	32 d2       	eint			
    4ea8:	30 41       	ret			

00004eaa <HplMsp430GeneralIORenP__41__IO__set>:
    4eaa:	0f 42       	mov	r2,	r15	
    4eac:	32 c2       	dint			
    4eae:	03 43       	nop			
    4eb0:	e2 d3 43 02 	bis.b	#2,	&0x0243	;r3 As==10
    4eb4:	3f f2       	and	#8,	r15	;r2 As==11
    4eb6:	01 24       	jz	$+4      	;abs 0x4eba
    4eb8:	32 d2       	eint			
    4eba:	30 41       	ret			

00004ebc <HplMsp430GeneralIORenP__42__IO__set>:
    4ebc:	0f 42       	mov	r2,	r15	
    4ebe:	32 c2       	dint			
    4ec0:	03 43       	nop			
    4ec2:	e2 d2 43 02 	bis.b	#4,	&0x0243	;r2 As==10
    4ec6:	3f f2       	and	#8,	r15	;r2 As==11
    4ec8:	01 24       	jz	$+4      	;abs 0x4ecc
    4eca:	32 d2       	eint			
    4ecc:	30 41       	ret			

00004ece <HplMsp430GeneralIORenP__39__IO__set>:
    4ece:	0f 42       	mov	r2,	r15	
    4ed0:	32 c2       	dint			
    4ed2:	03 43       	nop			
    4ed4:	f2 d0 80 ff 42 02 	bis.b	#-128,	&0x0242	;#0xff80
    4eda:	3f f2       	and	#8,	r15	;r2 As==11
    4edc:	01 24       	jz	$+4      	;abs 0x4ee0
    4ede:	32 d2       	eint			
    4ee0:	30 41       	ret			

00004ee2 <HplMsp430GeneralIORenP__19__IO__makeOutput>:
    4ee2:	0f 42       	mov	r2,	r15	
    4ee4:	32 c2       	dint			
    4ee6:	03 43       	nop			
    4ee8:	f2 d2 24 02 	bis.b	#8,	&0x0224	;r2 As==11
    4eec:	3f f2       	and	#8,	r15	;r2 As==11
    4eee:	01 24       	jz	$+4      	;abs 0x4ef2
    4ef0:	32 d2       	eint			
    4ef2:	30 41       	ret			

00004ef4 <HplMsp430GeneralIORenP__15__IO__makeOutput>:
    4ef4:	0f 42       	mov	r2,	r15	
    4ef6:	32 c2       	dint			
    4ef8:	03 43       	nop			
    4efa:	f2 d0 80 ff 05 02 	bis.b	#-128,	&0x0205	;#0xff80
    4f00:	3f f2       	and	#8,	r15	;r2 As==11
    4f02:	01 24       	jz	$+4      	;abs 0x4f06
    4f04:	32 d2       	eint			
    4f06:	30 41       	ret			

00004f08 <Msp430UsciSpiP__1__unconfigure_>:
    4f08:	d2 b3 ca 05 	bit.b	#1,	&0x05ca	;r3 As==01
    4f0c:	fd 23       	jnz	$-4      	;abs 0x4f08
    4f0e:	f2 f0 fc ff dc 05 	and.b	#-4,	&0x05dc	;#0xfffc
    4f14:	92 d3 c0 05 	bis	#1,	&0x05c0	;r3 As==01
    4f18:	b0 12 e2 4e 	call	#0x4ee2	
    4f1c:	f2 c2 2a 02 	bic.b	#8,	&0x022a	;r2 As==11
    4f20:	f2 d0 10 00 24 02 	bis.b	#16,	&0x0224	;#0x0010
    4f26:	f2 f0 ef ff 2a 02 	and.b	#-17,	&0x022a	;#0xffef
    4f2c:	b0 12 f4 4e 	call	#0x4ef4	
    4f30:	f2 f0 7f 00 0b 02 	and.b	#127,	&0x020b	;#0x007f
    4f36:	30 41       	ret			

00004f38 <TimeSyncP__0__clearTable>:
    4f38:	c2 43 cc 1d 	mov.b	#0,	&0x1dcc	;r3 As==00
    4f3c:	c2 43 d6 1d 	mov.b	#0,	&0x1dd6	;r3 As==00
    4f40:	c2 43 e0 1d 	mov.b	#0,	&0x1de0	;r3 As==00
    4f44:	c2 43 ea 1d 	mov.b	#0,	&0x1dea	;r3 As==00
    4f48:	c2 43 f4 1d 	mov.b	#0,	&0x1df4	;r3 As==00
    4f4c:	0f 42       	mov	r2,	r15	
    4f4e:	32 c2       	dint			
    4f50:	03 43       	nop			
    4f52:	c2 43 bc 1d 	mov.b	#0,	&0x1dbc	;r3 As==00
    4f56:	3f f2       	and	#8,	r15	;r2 As==11
    4f58:	01 24       	jz	$+4      	;abs 0x4f5c
    4f5a:	32 d2       	eint			
    4f5c:	30 41       	ret			

00004f5e <HplMsp430GeneralIORenP__25__IO__makeOutput>:
    4f5e:	0f 42       	mov	r2,	r15	
    4f60:	32 c2       	dint			
    4f62:	03 43       	nop			
    4f64:	e2 d3 25 02 	bis.b	#2,	&0x0225	;r3 As==10
    4f68:	3f f2       	and	#8,	r15	;r2 As==11
    4f6a:	01 24       	jz	$+4      	;abs 0x4f6e
    4f6c:	32 d2       	eint			
    4f6e:	30 41       	ret			

00004f70 <HplMsp430GeneralIORenP__27__IO__makeOutput>:
    4f70:	0f 42       	mov	r2,	r15	
    4f72:	32 c2       	dint			
    4f74:	03 43       	nop			
    4f76:	f2 d2 25 02 	bis.b	#8,	&0x0225	;r2 As==11
    4f7a:	3f f2       	and	#8,	r15	;r2 As==11
    4f7c:	01 24       	jz	$+4      	;abs 0x4f80
    4f7e:	32 d2       	eint			
    4f80:	30 41       	ret			

00004f82 <Msp430UsciSpiP__0__unconfigure_>:
    4f82:	d2 b3 2a 06 	bit.b	#1,	&0x062a	;r3 As==01
    4f86:	fd 23       	jnz	$-4      	;abs 0x4f82
    4f88:	f2 f0 fc ff 3c 06 	and.b	#-4,	&0x063c	;#0xfffc
    4f8e:	92 d3 20 06 	bis	#1,	&0x0620	;r3 As==01
    4f92:	b0 12 5e 4f 	call	#0x4f5e	
    4f96:	e2 c3 2b 02 	bic.b	#2,	&0x022b	;r3 As==10
    4f9a:	e2 d2 25 02 	bis.b	#4,	&0x0225	;r2 As==10
    4f9e:	e2 c2 2b 02 	bic.b	#4,	&0x022b	;r2 As==10
    4fa2:	b0 12 70 4f 	call	#0x4f70	
    4fa6:	f2 c2 2b 02 	bic.b	#8,	&0x022b	;r2 As==11
    4faa:	30 41       	ret			

00004fac <HplMsp430GeneralIORenP__24__IO__clr>:
    4fac:	0f 42       	mov	r2,	r15	
    4fae:	32 c2       	dint			
    4fb0:	03 43       	nop			
    4fb2:	d2 c3 23 02 	bic.b	#1,	&0x0223	;r3 As==01
    4fb6:	3f f2       	and	#8,	r15	;r2 As==11
    4fb8:	01 24       	jz	$+4      	;abs 0x4fbc
    4fba:	32 d2       	eint			
    4fbc:	30 41       	ret			

00004fbe <HplMsp430GeneralIORenP__24__IO__set>:
    4fbe:	0f 42       	mov	r2,	r15	
    4fc0:	32 c2       	dint			
    4fc2:	03 43       	nop			
    4fc4:	d2 d3 23 02 	bis.b	#1,	&0x0223	;r3 As==01
    4fc8:	3f f2       	and	#8,	r15	;r2 As==11
    4fca:	01 24       	jz	$+4      	;abs 0x4fce
    4fcc:	32 d2       	eint			
    4fce:	30 41       	ret			

00004fd0 <ArbiterP__4__Resource__release>:
    4fd0:	0b 12       	push	r11		
    4fd2:	0b 42       	mov	r2,	r11	
    4fd4:	3b f2       	and	#8,	r11	;r2 As==11
    4fd6:	32 c2       	dint			
    4fd8:	03 43       	nop			
    4fda:	e2 92 8a 1c 	cmp.b	#4,	&0x1c8a	;r2 As==10
    4fde:	1b 20       	jnz	$+56     	;abs 0x5016
    4fe0:	c2 9f 0e 1c 	cmp.b	r15,	&0x1c0e	
    4fe4:	18 20       	jnz	$+50     	;abs 0x5016
    4fe6:	f2 93 10 1c 	cmp.b	#-1,	&0x1c10	;r3 As==11
    4fea:	05 20       	jnz	$+12     	;abs 0x4ff6
    4fec:	e2 43 0e 1c 	mov.b	#2,	&0x1c0e	;r3 As==10
    4ff0:	c2 43 8a 1c 	mov.b	#0,	&0x1c8a	;r3 As==00
    4ff4:	0c 3c       	jmp	$+26     	;abs 0x500e
    4ff6:	b0 12 42 4b 	call	#0x4b42	
    4ffa:	c2 4f 0d 1c 	mov.b	r15,	&0x1c0d	
    4ffe:	f2 43 0e 1c 	mov.b	#-1,	&0x1c0e	;r3 As==11
    5002:	e2 43 8a 1c 	mov.b	#2,	&0x1c8a	;r3 As==10
    5006:	7f 40 12 00 	mov.b	#18,	r15	;#0x0012
    500a:	b0 12 62 4d 	call	#0x4d62	
    500e:	0b 93       	tst	r11		
    5010:	06 24       	jz	$+14     	;abs 0x501e
    5012:	32 d2       	eint			
    5014:	04 3c       	jmp	$+10     	;abs 0x501e
    5016:	0b 93       	tst	r11		
    5018:	04 24       	jz	$+10     	;abs 0x5022
    501a:	32 d2       	eint			
    501c:	02 3c       	jmp	$+6      	;abs 0x5022
    501e:	0f 43       	clr	r15		
    5020:	01 3c       	jmp	$+4      	;abs 0x5024
    5022:	1f 43       	mov	#1,	r15	;r3 As==01
    5024:	3b 41       	pop	r11		
    5026:	30 41       	ret			

00005028 <HplMsp430GeneralIORenP__42__IO__clr>:
    5028:	0f 42       	mov	r2,	r15	
    502a:	32 c2       	dint			
    502c:	03 43       	nop			
    502e:	e2 c2 43 02 	bic.b	#4,	&0x0243	;r2 As==10
    5032:	3f f2       	and	#8,	r15	;r2 As==11
    5034:	01 24       	jz	$+4      	;abs 0x5038
    5036:	32 d2       	eint			
    5038:	30 41       	ret			

0000503a <HplMsp430GeneralIORenP__41__IO__clr>:
    503a:	0f 42       	mov	r2,	r15	
    503c:	32 c2       	dint			
    503e:	03 43       	nop			
    5040:	e2 c3 43 02 	bic.b	#2,	&0x0243	;r3 As==10
    5044:	3f f2       	and	#8,	r15	;r2 As==11
    5046:	01 24       	jz	$+4      	;abs 0x504a
    5048:	32 d2       	eint			
    504a:	30 41       	ret			

0000504c <RandomMlcgC__Random__rand32>:
    504c:	4b 15       	pushm	#5,	r11	
    504e:	09 42       	mov	r2,	r9	
    5050:	39 f2       	and	#8,	r9	;r2 As==11
    5052:	32 c2       	dint			
    5054:	03 43       	nop			
    5056:	02 12       	push	r2		
    5058:	32 c2       	dint			
    505a:	03 43       	nop			
    505c:	92 42 56 1d d0 04 	mov	&0x1d56,&0x04d0	
    5062:	92 42 58 1d d2 04 	mov	&0x1d58,&0x04d2	
    5068:	b2 40 4e 83 e0 04 	mov	#-31922,&0x04e0	;#0x834e
    506e:	82 43 e2 04 	mov	#0,	&0x04e2	;r3 As==00
    5072:	1e 42 e4 04 	mov	&0x04e4,r14	
    5076:	1f 42 e6 04 	mov	&0x04e6,r15	
    507a:	1a 42 e8 04 	mov	&0x04e8,r10	
    507e:	1b 42 ea 04 	mov	&0x04ea,r11	
    5082:	32 41       	pop	r2		
    5084:	07 4e       	mov	r14,	r7	
    5086:	08 4f       	mov	r15,	r8	
    5088:	0c 4a       	mov	r10,	r12	
    508a:	0d 4b       	mov	r11,	r13	
    508c:	0a 47       	mov	r7,	r10	
    508e:	0b 48       	mov	r8,	r11	
    5090:	12 c3       	clrc			
    5092:	0b 10       	rrc	r11		
    5094:	0a 10       	rrc	r10		
    5096:	0e 4a       	mov	r10,	r14	
    5098:	0f 4b       	mov	r11,	r15	
    509a:	0e 5c       	add	r12,	r14	
    509c:	0f 6d       	addc	r13,	r15	
    509e:	0f 93       	tst	r15		
    50a0:	05 34       	jge	$+12     	;abs 0x50ac
    50a2:	3e f3       	and	#-1,	r14	;r3 As==11
    50a4:	3f f0 ff 7f 	and	#32767,	r15	;#0x7fff
    50a8:	1e 53       	inc	r14		
    50aa:	0f 63       	adc	r15		
    50ac:	82 4e 56 1d 	mov	r14,	&0x1d56	
    50b0:	82 4f 58 1d 	mov	r15,	&0x1d58	
    50b4:	09 93       	tst	r9		
    50b6:	01 24       	jz	$+4      	;abs 0x50ba
    50b8:	32 d2       	eint			
    50ba:	47 17       	popm	#5,	r11	
    50bc:	30 41       	ret			

000050be <SerialP__MaybeScheduleTx>:
    50be:	0b 12       	push	r11		
    50c0:	0b 42       	mov	r2,	r11	
    50c2:	3b f2       	and	#8,	r11	;r2 As==11
    50c4:	32 c2       	dint			
    50c6:	03 43       	nop			
    50c8:	c2 93 48 22 	tst.b	&0x2248	
    50cc:	08 20       	jnz	$+18     	;abs 0x50de
    50ce:	7f 40 13 00 	mov.b	#19,	r15	;#0x0013
    50d2:	b0 12 62 4d 	call	#0x4d62	
    50d6:	0f 93       	tst	r15		
    50d8:	02 20       	jnz	$+6      	;abs 0x50de
    50da:	d2 43 48 22 	mov.b	#1,	&0x2248	;r3 As==01
    50de:	0b 93       	tst	r11		
    50e0:	01 24       	jz	$+4      	;abs 0x50e4
    50e2:	32 d2       	eint			
    50e4:	3b 41       	pop	r11		
    50e6:	30 41       	ret			

000050e8 <BusyWaitCounterC__0__BusyWait__wait>:
    50e8:	0d 42       	mov	r2,	r13	
    50ea:	3d f2       	and	#8,	r13	;r2 As==11
    50ec:	32 c2       	dint			
    50ee:	03 43       	nop			
    50f0:	1e 42 90 03 	mov	&0x0390,r14	
    50f4:	3f 90 01 80 	cmp	#-32767,r15	;#0x8001
    50f8:	0a 28       	jnc	$+22     	;abs 0x510e
    50fa:	3f 50 00 80 	add	#-32768,r15	;#0x8000
    50fe:	1c 42 90 03 	mov	&0x0390,r12	
    5102:	0c 8e       	sub	r14,	r12	
    5104:	0f 9c       	cmp	r12,	r15	
    5106:	fb 2f       	jc	$-8      	;abs 0x50fe
    5108:	0e 5f       	add	r15,	r14	
    510a:	3f 40 00 80 	mov	#-32768,r15	;#0x8000
    510e:	1c 42 90 03 	mov	&0x0390,r12	
    5112:	0c 8e       	sub	r14,	r12	
    5114:	0f 9c       	cmp	r12,	r15	
    5116:	fb 2f       	jc	$-8      	;abs 0x510e
    5118:	0d 93       	tst	r13		
    511a:	01 24       	jz	$+4      	;abs 0x511e
    511c:	32 d2       	eint			
    511e:	30 41       	ret			

00005120 <HplMsp430GeneralIORenP__18__IO__clr>:
    5120:	0f 42       	mov	r2,	r15	
    5122:	32 c2       	dint			
    5124:	03 43       	nop			
    5126:	e2 c2 22 02 	bic.b	#4,	&0x0222	;r2 As==10
    512a:	3f f2       	and	#8,	r15	;r2 As==11
    512c:	01 24       	jz	$+4      	;abs 0x5130
    512e:	32 d2       	eint			
    5130:	30 41       	ret			

00005132 <HplMsp430GeneralIORenP__35__IO__set>:
    5132:	0f 42       	mov	r2,	r15	
    5134:	32 c2       	dint			
    5136:	03 43       	nop			
    5138:	f2 d2 42 02 	bis.b	#8,	&0x0242	;r2 As==11
    513c:	3f f2       	and	#8,	r15	;r2 As==11
    513e:	01 24       	jz	$+4      	;abs 0x5142
    5140:	32 d2       	eint			
    5142:	30 41       	ret			

00005144 <ActiveMessageAddressC__amAddress>:
    5144:	0e 42       	mov	r2,	r14	
    5146:	32 c2       	dint			
    5148:	03 43       	nop			
    514a:	1f 42 24 1c 	mov	&0x1c24,r15	
    514e:	3e f2       	and	#8,	r14	;r2 As==11
    5150:	01 24       	jz	$+4      	;abs 0x5154
    5152:	32 d2       	eint			
    5154:	30 41       	ret			

00005156 <RandomCollisionLayerP__0__getBackoff>:
    5156:	1b 15       	pushm	#2,	r11	
    5158:	0a 4f       	mov	r15,	r10	
    515a:	0d 42       	mov	r2,	r13	
    515c:	32 c2       	dint			
    515e:	03 43       	nop			
    5160:	1b 42 e4 1f 	mov	&0x1fe4,r11	
    5164:	0f 4b       	mov	r11,	r15	
    5166:	3f 50 11 01 	add	#273,	r15	;#0x0111
    516a:	82 4f e4 1f 	mov	r15,	&0x1fe4	
    516e:	3d f2       	and	#8,	r13	;r2 As==11
    5170:	01 24       	jz	$+4      	;abs 0x5174
    5172:	32 d2       	eint			
    5174:	7f 40 0c 00 	mov.b	#12,	r15	;#0x000c
    5178:	b0 12 62 4d 	call	#0x4d62	
    517c:	0e 4a       	mov	r10,	r14	
    517e:	0f 4b       	mov	r11,	r15	
    5180:	b0 12 de ae 	call	#0xaede	
    5184:	3f 50 40 01 	add	#320,	r15	;#0x0140
    5188:	1a 17       	popm	#2,	r11	
    518a:	30 41       	ret			

0000518c <HplMsp430GeneralIORenP__28__IO__makeOutput>:
    518c:	0f 42       	mov	r2,	r15	
    518e:	32 c2       	dint			
    5190:	03 43       	nop			
    5192:	f2 d0 10 00 25 02 	bis.b	#16,	&0x0225	;#0x0010
    5198:	3f f2       	and	#8,	r15	;r2 As==11
    519a:	01 24       	jz	$+4      	;abs 0x519e
    519c:	32 d2       	eint			
    519e:	30 41       	ret			

000051a0 <Msp430UsciUartP__0__unconfigure_>:
    51a0:	d2 b3 0a 06 	bit.b	#1,	&0x060a	;r3 As==01
    51a4:	fd 23       	jnz	$-4      	;abs 0x51a0
    51a6:	f2 f0 fc ff 1c 06 	and.b	#-4,	&0x061c	;#0xfffc
    51ac:	92 d3 00 06 	bis	#1,	&0x0600	;r3 As==01
    51b0:	f2 d0 20 00 25 02 	bis.b	#32,	&0x0225	;#0x0020
    51b6:	f2 f0 df ff 2b 02 	and.b	#-33,	&0x022b	;#0xffdf
    51bc:	b0 12 8c 51 	call	#0x518c	
    51c0:	f2 f0 ef ff 2b 02 	and.b	#-17,	&0x022b	;#0xffef
    51c6:	30 41       	ret			

000051c8 <TaskletC__Tasklet__suspend>:
    51c8:	0f 42       	mov	r2,	r15	
    51ca:	32 c2       	dint			
    51cc:	03 43       	nop			
    51ce:	d2 53 2c 1d 	inc.b	&0x1d2c	
    51d2:	3f f2       	and	#8,	r15	;r2 As==11
    51d4:	01 24       	jz	$+4      	;abs 0x51d8
    51d6:	32 d2       	eint			
    51d8:	30 41       	ret			

000051da <SerialP__ack_queue_is_empty>:
    51da:	0e 42       	mov	r2,	r14	
    51dc:	32 c2       	dint			
    51de:	03 43       	nop			
    51e0:	5f 43       	mov.b	#1,	r15	;r3 As==01
    51e2:	d2 92 61 1e 60 1e 	cmp.b	&0x1e61,&0x1e60	
    51e8:	01 24       	jz	$+4      	;abs 0x51ec
    51ea:	4f 43       	clr.b	r15		
    51ec:	3e f2       	and	#8,	r14	;r2 As==11
    51ee:	01 24       	jz	$+4      	;abs 0x51f2
    51f0:	32 d2       	eint			
    51f2:	30 41       	ret			

000051f4 <SerialP__SplitControl__start>:
    51f4:	0f 42       	mov	r2,	r15	
    51f6:	3f f2       	and	#8,	r15	;r2 As==11
    51f8:	32 c2       	dint			
    51fa:	03 43       	nop			
    51fc:	f2 90 0a 00 de 1f 	cmp.b	#10,	&0x1fde	;#0x000a
    5202:	07 24       	jz	$+16     	;abs 0x5212
    5204:	e2 92 45 1d 	cmp.b	#4,	&0x1d45	;r2 As==10
    5208:	04 24       	jz	$+10     	;abs 0x5212
    520a:	0f 93       	tst	r15		
    520c:	0b 24       	jz	$+24     	;abs 0x5224
    520e:	32 d2       	eint			
    5210:	09 3c       	jmp	$+20     	;abs 0x5224
    5212:	0f 93       	tst	r15		
    5214:	01 24       	jz	$+4      	;abs 0x5218
    5216:	32 d2       	eint			
    5218:	7f 40 14 00 	mov.b	#20,	r15	;#0x0014
    521c:	b0 12 62 4d 	call	#0x4d62	
    5220:	0f 43       	clr	r15		
    5222:	30 41       	ret			
    5224:	3f 40 09 00 	mov	#9,	r15	;#0x0009
    5228:	30 41       	ret			

0000522a <TimeSyncP__0__is_synced.part.284>:
    522a:	1f 42 dc 1c 	mov	&0x1cdc,r15	
    522e:	6e 4f       	mov.b	@r15,	r14	
    5230:	8e 10       	swpb	r14		
    5232:	5f 4f 01 00 	mov.b	1(r15),	r15	;0x0001(r15)
    5236:	0e df       	bis	r15,	r14	
    5238:	1f 43       	mov	#1,	r15	;r3 As==01
    523a:	1e 92 44 1c 	cmp	&0x1c44,r14	
    523e:	01 20       	jnz	$+4      	;abs 0x5242
    5240:	0f 43       	clr	r15		
    5242:	30 41       	ret			

00005244 <Msp430Adc12ImplP__SingleChannel__configureSingle>:
    5244:	2b 15       	pushm	#3,	r11	
    5246:	31 50 f0 ff 	add	#-16,	r1	;#0xfff0
    524a:	0b 4e       	mov	r14,	r11	
    524c:	0e 93       	tst	r14		
    524e:	78 24       	jz	$+242    	;abs 0x5340
    5250:	09 42       	mov	r2,	r9	
    5252:	39 f2       	and	#8,	r9	;r2 As==11
    5254:	32 c2       	dint			
    5256:	03 43       	nop			
    5258:	f2 b0 20 00 5e 1e 	bit.b	#32,	&0x1e5e	;#0x0020
    525e:	04 24       	jz	$+10     	;abs 0x5268
    5260:	09 93       	tst	r9		
    5262:	6b 24       	jz	$+216    	;abs 0x533a
    5264:	32 d2       	eint			
    5266:	69 3c       	jmp	$+212    	;abs 0x533a
    5268:	c2 9f 02 1c 	cmp.b	r15,	&0x1c02	
    526c:	61 20       	jnz	$+196    	;abs 0x5330
    526e:	81 43 0a 00 	mov	#0,	10(r1)	;r3 As==00, 0x000a(r1)
    5272:	5d 4e 01 00 	mov.b	1(r14),	r13	;0x0001(r14)
    5276:	5d 06       	rlam	#2,	r13	
    5278:	7d f0 18 00 	and.b	#24,	r13	;#0x0018
    527c:	5f 41 0a 00 	mov.b	10(r1),	r15	;0x000a(r1)
    5280:	7f f0 07 00 	and.b	#7,	r15	;#0x0007
    5284:	5e 4e 01 00 	mov.b	1(r14),	r14	;0x0001(r14)
    5288:	5e 06       	rlam	#2,	r14	
    528a:	7e f0 e0 ff 	and.b	#-32,	r14	;#0xffe0
    528e:	4f dd       	bis.b	r13,	r15	
    5290:	4f de       	bis.b	r14,	r15	
    5292:	c1 4f 0a 00 	mov.b	r15,	10(r1)	;0x000a(r1)
    5296:	e1 d3 0b 00 	bis.b	#2,	11(r1)	;r3 As==10, 0x000b(r1)
    529a:	6f 4b       	mov.b	@r11,	r15	
    529c:	5f 03       	rrum	#1,	r15	
    529e:	7f f0 70 00 	and.b	#112,	r15	;#0x0070
    52a2:	6a 4b       	mov.b	@r11,	r10	
    52a4:	7a f0 0f 00 	and.b	#15,	r10	;#0x000f
    52a8:	4a df       	bis.b	r15,	r10	
    52aa:	7a d0 80 ff 	bis.b	#-128,	r10	;#0xff80
    52ae:	b0 12 1e 4a 	call	#0x4a1e	
    52b2:	c1 4f 0c 00 	mov.b	r15,	12(r1)	;0x000c(r1)
    52b6:	8f 10       	swpb	r15		
    52b8:	c1 4f 0d 00 	mov.b	r15,	13(r1)	;0x000d(r1)
    52bc:	91 41 0c 00 08 00 	mov	12(r1),	8(r1)	;0x000c(r1), 0x0008(r1)
    52c2:	b1 d0 80 00 08 00 	bis	#128,	8(r1)	;#0x0080, 0x0008(r1)
    52c8:	5e 4b 02 00 	mov.b	2(r11),	r14	;0x0002(r11)
    52cc:	3e f0 0f 00 	and	#15,	r14	;#0x000f
    52d0:	0d 4e       	mov	r14,	r13	
    52d2:	8d 10       	swpb	r13		
    52d4:	1f 41 08 00 	mov	8(r1),	r15	;0x0008(r1)
    52d8:	3f f0 ff f0 	and	#-3841,	r15	;#0xf0ff
    52dc:	0f dd       	bis	r13,	r15	
    52de:	81 4f 08 00 	mov	r15,	8(r1)	;0x0008(r1)
    52e2:	0e 4d       	mov	r13,	r14	
    52e4:	5e 0e       	rlam	#4,	r14	
    52e6:	1f 41 08 00 	mov	8(r1),	r15	;0x0008(r1)
    52ea:	3f f0 ff 0f 	and	#4095,	r15	;#0x0fff
    52ee:	0f de       	bis	r14,	r15	
    52f0:	81 4f 08 00 	mov	r15,	8(r1)	;0x0008(r1)
    52f4:	d2 43 5e 1e 	mov.b	#1,	&0x1e5e	;r3 As==01
    52f8:	91 41 08 00 04 00 	mov	8(r1),	4(r1)	;0x0008(r1), 0x0004(r1)
    52fe:	1f 41 08 00 	mov	8(r1),	r15	;0x0008(r1)
    5302:	b0 12 02 4a 	call	#0x4a02	
    5306:	91 41 0a 00 06 00 	mov	10(r1),	6(r1)	;0x000a(r1), 0x0006(r1)
    530c:	91 41 0a 00 02 00 	mov	10(r1),	2(r1)	;0x000a(r1), 0x0002(r1)
    5312:	91 41 0a 00 00 00 	mov	10(r1),	0(r1)	;0x000a(r1), 0x0000(r1)
    5318:	a1 41 0e 00 	mov	@r1,	14(r1)	;0x000e(r1)
    531c:	a2 41 02 07 	mov	@r1,	&0x0702	
    5320:	4e 4a       	mov.b	r10,	r14	
    5322:	4f 43       	clr.b	r15		
    5324:	b0 12 10 4a 	call	#0x4a10	
    5328:	92 43 0c 07 	mov	#1,	&0x070c	;r3 As==01
    532c:	0f 43       	clr	r15		
    532e:	01 3c       	jmp	$+4      	;abs 0x5332
    5330:	3f 42       	mov	#8,	r15	;r2 As==11
    5332:	09 93       	tst	r9		
    5334:	07 24       	jz	$+16     	;abs 0x5344
    5336:	32 d2       	eint			
    5338:	05 3c       	jmp	$+12     	;abs 0x5344
    533a:	3f 40 05 00 	mov	#5,	r15	;#0x0005
    533e:	02 3c       	jmp	$+6      	;abs 0x5344
    5340:	3f 40 06 00 	mov	#6,	r15	;#0x0006
    5344:	31 50 10 00 	add	#16,	r1	;#0x0010
    5348:	29 17       	popm	#3,	r11	
    534a:	30 41       	ret			

0000534c <SerialP__testOff>:
    534c:	0e 42       	mov	r2,	r14	
    534e:	3e f2       	and	#8,	r14	;r2 As==11
    5350:	32 c2       	dint			
    5352:	03 43       	nop			
    5354:	f2 90 0a 00 de 1f 	cmp.b	#10,	&0x1fde	;#0x000a
    535a:	04 20       	jnz	$+10     	;abs 0x5364
    535c:	5f 43       	mov.b	#1,	r15	;r3 As==01
    535e:	e2 92 45 1d 	cmp.b	#4,	&0x1d45	;r2 As==10
    5362:	01 24       	jz	$+4      	;abs 0x5366
    5364:	4f 43       	clr.b	r15		
    5366:	0e 93       	tst	r14		
    5368:	01 24       	jz	$+4      	;abs 0x536c
    536a:	32 d2       	eint			
    536c:	4f 93       	tst.b	r15		
    536e:	0d 24       	jz	$+28     	;abs 0x538a
    5370:	7f 40 15 00 	mov.b	#21,	r15	;#0x0015
    5374:	b0 12 62 4d 	call	#0x4d62	
    5378:	0f 42       	mov	r2,	r15	
    537a:	32 c2       	dint			
    537c:	03 43       	nop			
    537e:	c2 43 60 1c 	mov.b	#0,	&0x1c60	;r3 As==00
    5382:	3f f2       	and	#8,	r15	;r2 As==11
    5384:	08 24       	jz	$+18     	;abs 0x5396
    5386:	32 d2       	eint			
    5388:	30 41       	ret			
    538a:	0f 42       	mov	r2,	r15	
    538c:	32 c2       	dint			
    538e:	03 43       	nop			
    5390:	d2 43 60 1c 	mov.b	#1,	&0x1c60	;r3 As==01
    5394:	f6 3f       	jmp	$-18     	;abs 0x5382
    5396:	30 41       	ret			

00005398 <SerialP__SplitControl__stop>:
    5398:	0f 42       	mov	r2,	r15	
    539a:	3f f2       	and	#8,	r15	;r2 As==11
    539c:	32 c2       	dint			
    539e:	03 43       	nop			
    53a0:	c2 93 45 1d 	tst.b	&0x1d45	
    53a4:	02 20       	jnz	$+6      	;abs 0x53aa
    53a6:	e2 42 45 1d 	mov.b	#4,	&0x1d45	;r2 As==10
    53aa:	0f 93       	tst	r15		
    53ac:	01 24       	jz	$+4      	;abs 0x53b0
    53ae:	32 d2       	eint			
    53b0:	0f 42       	mov	r2,	r15	
    53b2:	3f f2       	and	#8,	r15	;r2 As==11
    53b4:	32 c2       	dint			
    53b6:	03 43       	nop			
    53b8:	c2 93 de 1f 	tst.b	&0x1fde	
    53bc:	03 20       	jnz	$+8      	;abs 0x53c4
    53be:	f2 40 0a 00 de 1f 	mov.b	#10,	&0x1fde	;#0x000a
    53c4:	0f 93       	tst	r15		
    53c6:	01 24       	jz	$+4      	;abs 0x53ca
    53c8:	32 d2       	eint			
    53ca:	b0 12 4c 53 	call	#0x534c	
    53ce:	0f 43       	clr	r15		
    53d0:	30 41       	ret			

000053d2 <SerialP__rx_state_machine>:
    53d2:	1b 15       	pushm	#2,	r11	
    53d4:	4b 4f       	mov.b	r15,	r11	
    53d6:	4a 4e       	mov.b	r14,	r10	
    53d8:	5f 42 45 1d 	mov.b	&0x1d45,r15	
    53dc:	5f 93       	cmp.b	#1,	r15	;r3 As==01
    53de:	0c 24       	jz	$+26     	;abs 0x53f8
    53e0:	06 28       	jnc	$+14     	;abs 0x53ee
    53e2:	6f 93       	cmp.b	#2,	r15	;r3 As==10
    53e4:	3a 24       	jz	$+118    	;abs 0x545a
    53e6:	7f 90 03 00 	cmp.b	#3,	r15	;#0x0003
    53ea:	e0 20       	jnz	$+450    	;abs 0x55ac
    53ec:	44 3c       	jmp	$+138    	;abs 0x5476
    53ee:	4b 93       	tst.b	r11		
    53f0:	f0 24       	jz	$+482    	;abs 0x55d2
    53f2:	b0 12 64 4a 	call	#0x4a64	
    53f6:	eb 3c       	jmp	$+472    	;abs 0x55ce
    53f8:	4b 93       	tst.b	r11		
    53fa:	eb 20       	jnz	$+472    	;abs 0x55d2
    53fc:	1f 42 74 1e 	mov	&0x1e74,r15	
    5400:	b0 12 ae 4a 	call	#0x4aae	
    5404:	82 4f 74 1e 	mov	r15,	&0x1e74	
    5408:	e2 43 45 1d 	mov.b	#2,	&0x1d45	;r3 As==10
    540c:	c2 4a 37 21 	mov.b	r10,	&0x2137	
    5410:	7a 90 44 00 	cmp.b	#68,	r10	;#0x0044
    5414:	cb 20       	jnz	$+408    	;abs 0x55ac
    5416:	d2 b3 5e 1c 	bit.b	#1,	&0x1c5e	;r3 As==01
    541a:	07 24       	jz	$+16     	;abs 0x542a
    541c:	e2 b2 5e 1c 	bit.b	#4,	&0x1c5e	;r2 As==10
    5420:	0f 43       	clr	r15		
    5422:	0f 6f       	rlc	r15		
    5424:	4f 93       	tst.b	r15		
    5426:	c2 20       	jnz	$+390    	;abs 0x55ac
    5428:	07 3c       	jmp	$+16     	;abs 0x5438
    542a:	e2 b3 5e 1c 	bit.b	#2,	&0x1c5e	;r3 As==10
    542e:	0f 43       	clr	r15		
    5430:	0f 6f       	rlc	r15		
    5432:	4f 93       	tst.b	r15		
    5434:	bb 20       	jnz	$+376    	;abs 0x55ac
    5436:	03 3c       	jmp	$+8      	;abs 0x543e
    5438:	e2 d2 5e 1c 	bis.b	#4,	&0x1c5e	;r2 As==10
    543c:	02 3c       	jmp	$+6      	;abs 0x5442
    543e:	e2 d3 5e 1c 	bis.b	#2,	&0x1c5e	;r3 As==10
    5442:	5f 42 5e 1c 	mov.b	&0x1c5e,r15	
    5446:	7f f0 e7 ff 	and.b	#-25,	r15	;#0xffe7
    544a:	7f d2       	bis.b	#8,	r15	;r2 As==11
    544c:	c2 4f 5e 1c 	mov.b	r15,	&0x1c5e	
    5450:	c2 43 5c 1c 	mov.b	#0,	&0x1c5c	;r3 As==00
    5454:	f2 43 0a 1c 	mov.b	#-1,	&0x1c0a	;r3 As==11
    5458:	bc 3c       	jmp	$+378    	;abs 0x55d2
    545a:	4b 93       	tst.b	r11		
    545c:	a7 20       	jnz	$+336    	;abs 0x55ac
    545e:	c2 4e 48 1d 	mov.b	r14,	&0x1d48	
    5462:	1f 42 74 1e 	mov	&0x1e74,r15	
    5466:	b0 12 ae 4a 	call	#0x4aae	
    546a:	82 4f 74 1e 	mov	r15,	&0x1e74	
    546e:	f2 40 03 00 45 1d 	mov.b	#3,	&0x1d45	;#0x0003
    5474:	ae 3c       	jmp	$+350    	;abs 0x55d2
    5476:	5f 42 34 20 	mov.b	&0x2034,r15	
    547a:	7f 93       	cmp.b	#-1,	r15	;r3 As==11
    547c:	97 24       	jz	$+304    	;abs 0x55ac
    547e:	4b 93       	tst.b	r11		
    5480:	41 24       	jz	$+132    	;abs 0x5504
    5482:	6f 93       	cmp.b	#2,	r15	;r3 As==10
    5484:	93 28       	jnc	$+296    	;abs 0x55ac
    5486:	5f 42 fc 20 	mov.b	&0x20fc,r15	
    548a:	4f 93       	tst.b	r15		
    548c:	02 24       	jz	$+6      	;abs 0x5492
    548e:	7f 53       	add.b	#-1,	r15	;r3 As==11
    5490:	01 3c       	jmp	$+4      	;abs 0x5494
    5492:	6f 43       	mov.b	#2,	r15	;r3 As==10
    5494:	4e 4f       	mov.b	r15,	r14	
    5496:	5e 4e fe 20 	mov.b	8446(r14),r14	;0x20fe(r14)
    549a:	8e 10       	swpb	r14		
    549c:	4f 93       	tst.b	r15		
    549e:	02 24       	jz	$+6      	;abs 0x54a4
    54a0:	7f 53       	add.b	#-1,	r15	;r3 As==11
    54a2:	01 3c       	jmp	$+4      	;abs 0x54a6
    54a4:	6f 43       	mov.b	#2,	r15	;r3 As==10
    54a6:	4f 4f       	mov.b	r15,	r15	
    54a8:	5f 4f fe 20 	mov.b	8446(r15),r15	;0x20fe(r15)
    54ac:	0f de       	bis	r14,	r15	
    54ae:	1f 92 74 1e 	cmp	&0x1e74,r15	
    54b2:	7c 20       	jnz	$+250    	;abs 0x55ac
    54b4:	0f 43       	clr	r15		
    54b6:	b0 12 f0 4d 	call	#0x4df0	
    54ba:	5c 42 48 1d 	mov.b	&0x1d48,r12	
    54be:	5e 42 60 1e 	mov.b	&0x1e60,r14	
    54c2:	5b 42 61 1e 	mov.b	&0x1e61,r11	
    54c6:	4f 4e       	mov.b	r14,	r15	
    54c8:	5f 53       	inc.b	r15		
    54ca:	7f 90 06 00 	cmp.b	#6,	r15	;#0x0006
    54ce:	02 2c       	jc	$+6      	;abs 0x54d4
    54d0:	4d 4f       	mov.b	r15,	r13	
    54d2:	01 3c       	jmp	$+4      	;abs 0x54d6
    54d4:	4d 43       	clr.b	r13		
    54d6:	4d 9b       	cmp.b	r11,	r13	
    54d8:	0d 24       	jz	$+28     	;abs 0x54f4
    54da:	4e 4e       	mov.b	r14,	r14	
    54dc:	ce 4c 62 1e 	mov.b	r12,	7778(r14);0x1e62(r14)
    54e0:	7f 90 06 00 	cmp.b	#6,	r15	;#0x0006
    54e4:	03 2c       	jc	$+8      	;abs 0x54ec
    54e6:	c2 4f 60 1e 	mov.b	r15,	&0x1e60	
    54ea:	02 3c       	jmp	$+6      	;abs 0x54f0
    54ec:	c2 43 60 1e 	mov.b	#0,	&0x1e60	;r3 As==00
    54f0:	b0 12 be 50 	call	#0x50be	
    54f4:	b0 12 64 4a 	call	#0x4a64	
    54f8:	e2 c3 4a 1c 	bic.b	#2,	&0x1c4a	;r3 As==10
    54fc:	c2 93 60 1c 	tst.b	&0x1c60	
    5500:	68 24       	jz	$+210    	;abs 0x55d2
    5502:	5e 3c       	jmp	$+190    	;abs 0x55c0
    5504:	6f 93       	cmp.b	#2,	r15	;r3 As==10
    5506:	41 28       	jnc	$+132    	;abs 0x558a
    5508:	5f 42 fd 20 	mov.b	&0x20fd,r15	
    550c:	5e 4f fe 20 	mov.b	8446(r15),r14	;0x20fe(r15)
    5510:	5f 42 5e 1c 	mov.b	&0x1c5e,r15	
    5514:	5f 0b       	rrum	#3,	r15	
    5516:	3f f0 03 00 	and	#3,	r15	;#0x0003
    551a:	1f 93       	cmp	#1,	r15	;r3 As==01
    551c:	03 24       	jz	$+8      	;abs 0x5524
    551e:	2f 93       	cmp	#2,	r15	;r3 As==10
    5520:	20 20       	jnz	$+66     	;abs 0x5562
    5522:	13 3c       	jmp	$+40     	;abs 0x554a
    5524:	5f 42 5e 1c 	mov.b	&0x1c5e,r15	
    5528:	7f f0 e7 ff 	and.b	#-25,	r15	;#0xffe7
    552c:	7f d0 10 00 	bis.b	#16,	r15	;#0x0010
    5530:	c2 4f 5e 1c 	mov.b	r15,	&0x1c5e	
    5534:	4e 93       	tst.b	r14		
    5536:	02 24       	jz	$+6      	;abs 0x553c
    5538:	4f 43       	clr.b	r15		
    553a:	02 3c       	jmp	$+6      	;abs 0x5540
    553c:	7f 40 05 00 	mov.b	#5,	r15	;#0x0005
    5540:	c2 4f 5c 1c 	mov.b	r15,	&0x1c5c	
    5544:	c2 4e 0a 1c 	mov.b	r14,	&0x1c0a	
    5548:	0c 3c       	jmp	$+26     	;abs 0x5562
    554a:	5f 42 5c 1c 	mov.b	&0x1c5c,r15	
    554e:	7f 90 4a 00 	cmp.b	#74,	r15	;#0x004a
    5552:	07 2c       	jc	$+16     	;abs 0x5562
    5554:	4f 4f       	mov.b	r15,	r15	
    5556:	1f 52 04 1c 	add	&0x1c04,r15	
    555a:	cf 4e 00 00 	mov.b	r14,	0(r15)	;0x0000(r15)
    555e:	d2 53 5c 1c 	inc.b	&0x1c5c	
    5562:	5f 42 fd 20 	mov.b	&0x20fd,r15	
    5566:	4e 4f       	mov.b	r15,	r14	
    5568:	5e 4e fe 20 	mov.b	8446(r14),r14	;0x20fe(r14)
    556c:	5f 53       	inc.b	r15		
    556e:	7f 90 03 00 	cmp.b	#3,	r15	;#0x0003
    5572:	03 2c       	jc	$+8      	;abs 0x557a
    5574:	c2 4f fd 20 	mov.b	r15,	&0x20fd	
    5578:	02 3c       	jmp	$+6      	;abs 0x557e
    557a:	c2 43 fd 20 	mov.b	#0,	&0x20fd	;r3 As==00
    557e:	1f 42 74 1e 	mov	&0x1e74,r15	
    5582:	b0 12 ae 4a 	call	#0x4aae	
    5586:	82 4f 74 1e 	mov	r15,	&0x1e74	
    558a:	5f 42 fc 20 	mov.b	&0x20fc,r15	
    558e:	4e 4f       	mov.b	r15,	r14	
    5590:	ce 4a fe 20 	mov.b	r10,	8446(r14);0x20fe(r14)
    5594:	5f 53       	inc.b	r15		
    5596:	7f 90 03 00 	cmp.b	#3,	r15	;#0x0003
    559a:	03 2c       	jc	$+8      	;abs 0x55a2
    559c:	c2 4f fc 20 	mov.b	r15,	&0x20fc	
    55a0:	02 3c       	jmp	$+6      	;abs 0x55a6
    55a2:	c2 43 fc 20 	mov.b	#0,	&0x20fc	;r3 As==00
    55a6:	d2 53 34 20 	inc.b	&0x2034	
    55aa:	13 3c       	jmp	$+40     	;abs 0x55d2
    55ac:	b0 12 64 4a 	call	#0x4a64	
    55b0:	e2 c3 4a 1c 	bic.b	#2,	&0x1c4a	;r3 As==10
    55b4:	1f 43       	mov	#1,	r15	;r3 As==01
    55b6:	b0 12 f0 4d 	call	#0x4df0	
    55ba:	c2 93 60 1c 	tst.b	&0x1c60	
    55be:	05 24       	jz	$+12     	;abs 0x55ca
    55c0:	e2 42 45 1d 	mov.b	#4,	&0x1d45	;r2 As==10
    55c4:	b0 12 4c 53 	call	#0x534c	
    55c8:	04 3c       	jmp	$+10     	;abs 0x55d2
    55ca:	4b 93       	tst.b	r11		
    55cc:	02 24       	jz	$+6      	;abs 0x55d2
    55ce:	d2 43 45 1d 	mov.b	#1,	&0x1d45	;r3 As==01
    55d2:	1a 17       	popm	#2,	r11	
    55d4:	30 41       	ret			

000055d6 <Msp430UsciUartP__0__configure_.constprop.386>:
    55d6:	92 d3 00 06 	bis	#1,	&0x0600	;r3 As==01
    55da:	1f 42 3e 1c 	mov	&0x1c3e,r15	
    55de:	1f d3       	bis	#1,	r15	;r3 As==01
    55e0:	82 4f 00 06 	mov	r15,	&0x0600	
    55e4:	92 42 40 1c 06 06 	mov	&0x1c40,&0x0606	
    55ea:	d2 42 42 1c 08 06 	mov.b	&0x1c42,&0x0608	
    55f0:	0f 42       	mov	r2,	r15	
    55f2:	32 c2       	dint			
    55f4:	03 43       	nop			
    55f6:	f2 f0 df ff 25 02 	and.b	#-33,	&0x0225	;#0xffdf
    55fc:	3f f2       	and	#8,	r15	;r2 As==11
    55fe:	01 24       	jz	$+4      	;abs 0x5602
    5600:	32 d2       	eint			
    5602:	0f 42       	mov	r2,	r15	
    5604:	32 c2       	dint			
    5606:	03 43       	nop			
    5608:	f2 d0 20 00 2b 02 	bis.b	#32,	&0x022b	;#0x0020
    560e:	3f f2       	and	#8,	r15	;r2 As==11
    5610:	01 24       	jz	$+4      	;abs 0x5614
    5612:	32 d2       	eint			
    5614:	b0 12 8c 51 	call	#0x518c	
    5618:	0f 42       	mov	r2,	r15	
    561a:	32 c2       	dint			
    561c:	03 43       	nop			
    561e:	f2 d0 10 00 2b 02 	bis.b	#16,	&0x022b	;#0x0010
    5624:	3f f2       	and	#8,	r15	;r2 As==11
    5626:	01 24       	jz	$+4      	;abs 0x562a
    5628:	32 d2       	eint			
    562a:	92 c3 00 06 	bic	#1,	&0x0600	;r3 As==01
    562e:	5f 42 1c 06 	mov.b	&0x061c,r15	
    5632:	7f f0 fc ff 	and.b	#-4,	r15	;#0xfffc
    5636:	5f d3       	bis.b	#1,	r15	;r3 As==01
    5638:	c2 4f 1c 06 	mov.b	r15,	&0x061c	
    563c:	82 43 60 21 	mov	#0,	&0x2160	;r3 As==00
    5640:	82 43 e0 1c 	mov	#0,	&0x1ce0	;r3 As==00
    5644:	0f 43       	clr	r15		
    5646:	30 41       	ret			

00005648 <SerialDispatcherP__0__Send__send.constprop.399>:
    5648:	82 93 58 1c 	tst	&0x1c58	
    564c:	3d 20       	jnz	$+124    	;abs 0x56c8
    564e:	0d 42       	mov	r2,	r13	
    5650:	32 c2       	dint			
    5652:	03 43       	nop			
    5654:	f2 40 05 00 56 1c 	mov.b	#5,	&0x1c56	;#0x0005
    565a:	82 43 54 1c 	mov	#0,	&0x1c54	;r3 As==00
    565e:	82 4f 5a 1c 	mov	r15,	&0x1c5a	
    5662:	a2 43 58 1c 	mov	#2,	&0x1c58	;r3 As==10
    5666:	c2 43 52 1c 	mov.b	#0,	&0x1c52	;r3 As==00
    566a:	c2 43 53 1c 	mov.b	#0,	&0x1c53	;r3 As==00
    566e:	7e 50 0c 00 	add.b	#12,	r14	;#0x000c
    5672:	c2 4e 57 1c 	mov.b	r14,	&0x1c57	
    5676:	3d f2       	and	#8,	r13	;r2 As==11
    5678:	01 24       	jz	$+4      	;abs 0x567c
    567a:	32 d2       	eint			
    567c:	0f 42       	mov	r2,	r15	
    567e:	3f f2       	and	#8,	r15	;r2 As==11
    5680:	32 c2       	dint			
    5682:	03 43       	nop			
    5684:	f2 90 0a 00 de 1f 	cmp.b	#10,	&0x1fde	;#0x000a
    568a:	04 20       	jnz	$+10     	;abs 0x5694
    568c:	0f 93       	tst	r15		
    568e:	1f 24       	jz	$+64     	;abs 0x56ce
    5690:	32 d2       	eint			
    5692:	1d 3c       	jmp	$+60     	;abs 0x56ce
    5694:	0f 93       	tst	r15		
    5696:	01 24       	jz	$+4      	;abs 0x569a
    5698:	32 d2       	eint			
    569a:	0f 42       	mov	r2,	r15	
    569c:	3f f2       	and	#8,	r15	;r2 As==11
    569e:	32 c2       	dint			
    56a0:	03 43       	nop			
    56a2:	c2 93 02 1e 	tst.b	&0x1e02	
    56a6:	06 20       	jnz	$+14     	;abs 0x56b4
    56a8:	d2 43 02 1e 	mov.b	#1,	&0x1e02	;r3 As==01
    56ac:	c2 43 03 1e 	mov.b	#0,	&0x1e03	;r3 As==00
    56b0:	5e 43       	mov.b	#1,	r14	;r3 As==01
    56b2:	01 3c       	jmp	$+4      	;abs 0x56b6
    56b4:	4e 43       	clr.b	r14		
    56b6:	0f 93       	tst	r15		
    56b8:	01 24       	jz	$+4      	;abs 0x56bc
    56ba:	32 d2       	eint			
    56bc:	4e 93       	tst.b	r14		
    56be:	07 24       	jz	$+16     	;abs 0x56ce
    56c0:	b0 12 be 50 	call	#0x50be	
    56c4:	0f 43       	clr	r15		
    56c6:	30 41       	ret			
    56c8:	3f 40 05 00 	mov	#5,	r15	;#0x0005
    56cc:	30 41       	ret			
    56ce:	82 43 58 1c 	mov	#0,	&0x1c58	;r3 As==00
    56d2:	1f 43       	mov	#1,	r15	;r3 As==01
    56d4:	30 41       	ret			

000056d6 <LowPowerListeningLayerP__0__Send__send>:
    56d6:	0b 12       	push	r11		
    56d8:	0b 4f       	mov	r15,	r11	
    56da:	5f 42 86 1c 	mov.b	&0x1c86,r15	
    56de:	7f 90 0d 00 	cmp.b	#13,	r15	;#0x000d
    56e2:	03 24       	jz	$+8      	;abs 0x56ea
    56e4:	7f 90 17 00 	cmp.b	#23,	r15	;#0x0017
    56e8:	04 20       	jnz	$+10     	;abs 0x56f2
    56ea:	e2 c3 d2 1e 	bic.b	#2,	&0x1ed2	;r3 As==10
    56ee:	b0 12 c4 4d 	call	#0x4dc4	
    56f2:	5e 42 86 1c 	mov.b	&0x1c86,r14	
    56f6:	7e 90 0a 00 	cmp.b	#10,	r14	;#0x000a
    56fa:	06 24       	jz	$+14     	;abs 0x5708
    56fc:	7e 90 16 00 	cmp.b	#22,	r14	;#0x0016
    5700:	03 24       	jz	$+8      	;abs 0x5708
    5702:	7e 90 17 00 	cmp.b	#23,	r14	;#0x0017
    5706:	04 20       	jnz	$+10     	;abs 0x5710
    5708:	f2 40 1e 00 86 1c 	mov.b	#30,	&0x1c86	;#0x001e
    570e:	1a 3c       	jmp	$+54     	;abs 0x5744
    5710:	7e 90 0b 00 	cmp.b	#11,	r14	;#0x000b
    5714:	04 20       	jnz	$+10     	;abs 0x571e
    5716:	f2 40 1f 00 86 1c 	mov.b	#31,	&0x1c86	;#0x001f
    571c:	13 3c       	jmp	$+40     	;abs 0x5744
    571e:	7e 90 0c 00 	cmp.b	#12,	r14	;#0x000c
    5722:	06 24       	jz	$+14     	;abs 0x5730
    5724:	7e 90 14 00 	cmp.b	#20,	r14	;#0x0014
    5728:	03 24       	jz	$+8      	;abs 0x5730
    572a:	7e 90 0d 00 	cmp.b	#13,	r14	;#0x000d
    572e:	04 20       	jnz	$+10     	;abs 0x5738
    5730:	f2 40 20 00 86 1c 	mov.b	#32,	&0x1c86	;#0x0020
    5736:	06 3c       	jmp	$+14     	;abs 0x5744
    5738:	7e 90 15 00 	cmp.b	#21,	r14	;#0x0015
    573c:	1f 20       	jnz	$+64     	;abs 0x577c
    573e:	f2 40 1d 00 86 1c 	mov.b	#29,	&0x1c86	;#0x001d
    5744:	5f 4b 07 00 	mov.b	7(r11),	r15	;0x0007(r11)
    5748:	8f 10       	swpb	r15		
    574a:	5e 4b 06 00 	mov.b	6(r11),	r14	;0x0006(r11)
    574e:	0f de       	bis	r14,	r15	
    5750:	3f 93       	cmp	#-1,	r15	;r3 As==11
    5752:	0e 24       	jz	$+30     	;abs 0x5770
    5754:	5f 4b 01 00 	mov.b	1(r11),	r15	;0x0001(r11)
    5758:	7f d0 20 00 	bis.b	#32,	r15	;#0x0020
    575c:	4f 4f       	mov.b	r15,	r15	
    575e:	5e 4b 02 00 	mov.b	2(r11),	r14	;0x0002(r11)
    5762:	8e 10       	swpb	r14		
    5764:	0f de       	bis	r14,	r15	
    5766:	cb 4f 01 00 	mov.b	r15,	1(r11)	;0x0001(r11)
    576a:	8f 10       	swpb	r15		
    576c:	cb 4f 02 00 	mov.b	r15,	2(r11)	;0x0002(r11)
    5770:	82 4b 46 22 	mov	r11,	&0x2246	
    5774:	92 43 76 1c 	mov	#1,	&0x1c76	;r3 As==01
    5778:	0f 43       	clr	r15		
    577a:	02 3c       	jmp	$+6      	;abs 0x5780
    577c:	3f 40 05 00 	mov	#5,	r15	;#0x0005
    5780:	3b 41       	pop	r11		
    5782:	30 41       	ret			

00005784 <SimpleArbiterP__0__Resource__release.constprop.416>:
    5784:	0b 12       	push	r11		
    5786:	0b 42       	mov	r2,	r11	
    5788:	3b f2       	and	#8,	r11	;r2 As==11
    578a:	32 c2       	dint			
    578c:	03 43       	nop			
    578e:	e2 93 62 1c 	cmp.b	#2,	&0x1c62	;r3 As==10
    5792:	21 20       	jnz	$+68     	;abs 0x57d6
    5794:	c2 93 20 1c 	tst.b	&0x1c20	
    5798:	1e 20       	jnz	$+62     	;abs 0x57d6
    579a:	5f 42 22 1c 	mov.b	&0x1c22,r15	
    579e:	f2 43 20 1c 	mov.b	#-1,	&0x1c20	;r3 As==11
    57a2:	7f 93       	cmp.b	#-1,	r15	;r3 As==11
    57a4:	14 24       	jz	$+42     	;abs 0x57ce
    57a6:	4e 4f       	mov.b	r15,	r14	
    57a8:	5d 4e de 1c 	mov.b	7390(r14),r13	;0x1cde(r14)
    57ac:	c2 4d 22 1c 	mov.b	r13,	&0x1c22	
    57b0:	7d 93       	cmp.b	#-1,	r13	;r3 As==11
    57b2:	02 20       	jnz	$+6      	;abs 0x57b8
    57b4:	f2 43 21 1c 	mov.b	#-1,	&0x1c21	;r3 As==11
    57b8:	fe 43 de 1c 	mov.b	#-1,	7390(r14);r3 As==11, 0x1cde(r14)
    57bc:	c2 4f 2d 1d 	mov.b	r15,	&0x1d2d	
    57c0:	d2 43 62 1c 	mov.b	#1,	&0x1c62	;r3 As==01
    57c4:	7f 40 07 00 	mov.b	#7,	r15	;#0x0007
    57c8:	b0 12 62 4d 	call	#0x4d62	
    57cc:	02 3c       	jmp	$+6      	;abs 0x57d2
    57ce:	c2 43 62 1c 	mov.b	#0,	&0x1c62	;r3 As==00
    57d2:	5f 43       	mov.b	#1,	r15	;r3 As==01
    57d4:	01 3c       	jmp	$+4      	;abs 0x57d8
    57d6:	4f 43       	clr.b	r15		
    57d8:	0b 93       	tst	r11		
    57da:	01 24       	jz	$+4      	;abs 0x57de
    57dc:	32 d2       	eint			
    57de:	5f e3       	xor.b	#1,	r15	;r3 As==01
    57e0:	1f f3       	and	#1,	r15	;r3 As==01
    57e2:	3b 41       	pop	r11		
    57e4:	30 41       	ret			

000057e6 <Msp430UsciSpiP__1__configure_.constprop.441>:
    57e6:	92 d3 c0 05 	bis	#1,	&0x05c0	;r3 As==01
    57ea:	1f 42 38 1c 	mov	&0x1c38,r15	
    57ee:	1f d3       	bis	#1,	r15	;r3 As==01
    57f0:	82 4f c0 05 	mov	r15,	&0x05c0	
    57f4:	92 42 3a 1c c6 05 	mov	&0x1c3a,&0x05c6	
    57fa:	d2 42 3c 1c c8 05 	mov.b	&0x1c3c,&0x05c8	
    5800:	b0 12 e2 4e 	call	#0x4ee2	
    5804:	0f 42       	mov	r2,	r15	
    5806:	32 c2       	dint			
    5808:	03 43       	nop			
    580a:	f2 d2 2a 02 	bis.b	#8,	&0x022a	;r2 As==11
    580e:	3f f2       	and	#8,	r15	;r2 As==11
    5810:	01 24       	jz	$+4      	;abs 0x5814
    5812:	32 d2       	eint			
    5814:	0f 42       	mov	r2,	r15	
    5816:	32 c2       	dint			
    5818:	03 43       	nop			
    581a:	f2 f0 ef ff 24 02 	and.b	#-17,	&0x0224	;#0xffef
    5820:	3f f2       	and	#8,	r15	;r2 As==11
    5822:	01 24       	jz	$+4      	;abs 0x5826
    5824:	32 d2       	eint			
    5826:	0f 42       	mov	r2,	r15	
    5828:	32 c2       	dint			
    582a:	03 43       	nop			
    582c:	f2 d0 10 00 2a 02 	bis.b	#16,	&0x022a	;#0x0010
    5832:	3f f2       	and	#8,	r15	;r2 As==11
    5834:	01 24       	jz	$+4      	;abs 0x5838
    5836:	32 d2       	eint			
    5838:	b0 12 f4 4e 	call	#0x4ef4	
    583c:	0f 42       	mov	r2,	r15	
    583e:	32 c2       	dint			
    5840:	03 43       	nop			
    5842:	f2 d0 80 ff 0b 02 	bis.b	#-128,	&0x020b	;#0xff80
    5848:	3f f2       	and	#8,	r15	;r2 As==11
    584a:	01 24       	jz	$+4      	;abs 0x584e
    584c:	32 d2       	eint			
    584e:	92 c3 c0 05 	bic	#1,	&0x05c0	;r3 As==01
    5852:	f2 f0 fc ff dc 05 	and.b	#-4,	&0x05dc	;#0xfffc
    5858:	0f 43       	clr	r15		
    585a:	30 41       	ret			

0000585c <Msp430UsciUartP__0__UartStream__send.constprop.448>:
    585c:	5f 42 2c 1c 	mov.b	&0x1c2c,r15	
    5860:	7f 93       	cmp.b	#-1,	r15	;r3 As==11
    5862:	1a 24       	jz	$+54     	;abs 0x5898
    5864:	4f 93       	tst.b	r15		
    5866:	1a 20       	jnz	$+54     	;abs 0x589c
    5868:	d2 b3 0a 06 	bit.b	#1,	&0x060a	;r3 As==01
    586c:	fd 23       	jnz	$-4      	;abs 0x5868
    586e:	1f 43       	mov	#1,	r15	;r3 As==01
    5870:	82 93 e0 1c 	tst	&0x1ce0	
    5874:	04 20       	jnz	$+10     	;abs 0x587e
    5876:	82 93 60 21 	tst	&0x2160	
    587a:	01 20       	jnz	$+4      	;abs 0x587e
    587c:	0f 43       	clr	r15		
    587e:	4f 93       	tst.b	r15		
    5880:	0d 20       	jnz	$+28     	;abs 0x589c
    5882:	b2 40 19 1d e0 1c 	mov	#7449,	&0x1ce0	;#0x1d19
    5888:	92 43 46 1d 	mov	#1,	&0x1d46	;r3 As==01
    588c:	82 43 be 1d 	mov	#0,	&0x1dbe	;r3 As==00
    5890:	e2 d3 1c 06 	bis.b	#2,	&0x061c	;r3 As==10
    5894:	0f 43       	clr	r15		
    5896:	30 41       	ret			
    5898:	2f 42       	mov	#4,	r15	;r2 As==10
    589a:	30 41       	ret			
    589c:	3f 40 05 00 	mov	#5,	r15	;#0x0005
    58a0:	30 41       	ret			

000058a2 <BlockStorageP__BConfig__remap>:
    58a2:	0b 12       	push	r11		
    58a4:	0b 4e       	mov	r14,	r11	
    58a6:	4f 93       	tst.b	r15		
    58a8:	06 20       	jnz	$+14     	;abs 0x58b6
    58aa:	b0 12 3a 4a 	call	#0x4a3a	
    58ae:	0f 93       	tst	r15		
    58b0:	03 24       	jz	$+8      	;abs 0x58b8
    58b2:	2b 52       	add	#4,	r11	;r2 As==10
    58b4:	01 3c       	jmp	$+4      	;abs 0x58b8
    58b6:	0b 43       	clr	r11		
    58b8:	0f 4b       	mov	r11,	r15	
    58ba:	3b 41       	pop	r11		
    58bc:	30 41       	ret			

000058be <ArbiterP__2__Resource__release.constprop.367>:
    58be:	0b 12       	push	r11		
    58c0:	0b 42       	mov	r2,	r11	
    58c2:	3b f2       	and	#8,	r11	;r2 As==11
    58c4:	32 c2       	dint			
    58c6:	03 43       	nop			
    58c8:	e2 92 cb 1d 	cmp.b	#4,	&0x1dcb	;r2 As==10
    58cc:	1c 20       	jnz	$+58     	;abs 0x5906
    58ce:	c2 93 30 1c 	tst.b	&0x1c30	
    58d2:	19 20       	jnz	$+52     	;abs 0x5906
    58d4:	f2 93 32 1c 	cmp.b	#-1,	&0x1c32	;r3 As==11
    58d8:	05 20       	jnz	$+12     	;abs 0x58e4
    58da:	d2 43 30 1c 	mov.b	#1,	&0x1c30	;r3 As==01
    58de:	c2 43 cb 1d 	mov.b	#0,	&0x1dcb	;r3 As==00
    58e2:	0b 3c       	jmp	$+24     	;abs 0x58fa
    58e4:	b0 12 da 4a 	call	#0x4ada	
    58e8:	c2 4f 2f 1c 	mov.b	r15,	&0x1c2f	
    58ec:	f2 43 30 1c 	mov.b	#-1,	&0x1c30	;r3 As==11
    58f0:	e2 43 cb 1d 	mov.b	#2,	&0x1dcb	;r3 As==10
    58f4:	6f 43       	mov.b	#2,	r15	;r3 As==10
    58f6:	b0 12 62 4d 	call	#0x4d62	
    58fa:	b0 12 08 4f 	call	#0x4f08	
    58fe:	0b 93       	tst	r11		
    5900:	06 24       	jz	$+14     	;abs 0x590e
    5902:	32 d2       	eint			
    5904:	04 3c       	jmp	$+10     	;abs 0x590e
    5906:	0b 93       	tst	r11		
    5908:	04 24       	jz	$+10     	;abs 0x5912
    590a:	32 d2       	eint			
    590c:	02 3c       	jmp	$+6      	;abs 0x5912
    590e:	0f 43       	clr	r15		
    5910:	01 3c       	jmp	$+4      	;abs 0x5914
    5912:	1f 43       	mov	#1,	r15	;r3 As==01
    5914:	3b 41       	pop	r11		
    5916:	30 41       	ret			

00005918 <ArbiterP__1__Resource__release.constprop.369>:
    5918:	0b 12       	push	r11		
    591a:	0b 42       	mov	r2,	r11	
    591c:	3b f2       	and	#8,	r11	;r2 As==11
    591e:	32 c2       	dint			
    5920:	03 43       	nop			
    5922:	e2 92 68 1e 	cmp.b	#4,	&0x1e68	;r2 As==10
    5926:	1c 20       	jnz	$+58     	;abs 0x5960
    5928:	c2 93 34 1c 	tst.b	&0x1c34	
    592c:	19 20       	jnz	$+52     	;abs 0x5960
    592e:	f2 93 36 1c 	cmp.b	#-1,	&0x1c36	;r3 As==11
    5932:	05 20       	jnz	$+12     	;abs 0x593e
    5934:	d2 43 34 1c 	mov.b	#1,	&0x1c34	;r3 As==01
    5938:	c2 43 68 1e 	mov.b	#0,	&0x1e68	;r3 As==00
    593c:	0b 3c       	jmp	$+24     	;abs 0x5954
    593e:	b0 12 64 4b 	call	#0x4b64	
    5942:	c2 4f 33 1c 	mov.b	r15,	&0x1c33	
    5946:	f2 43 34 1c 	mov.b	#-1,	&0x1c34	;r3 As==11
    594a:	e2 43 68 1e 	mov.b	#2,	&0x1e68	;r3 As==10
    594e:	5f 43       	mov.b	#1,	r15	;r3 As==01
    5950:	b0 12 62 4d 	call	#0x4d62	
    5954:	b0 12 82 4f 	call	#0x4f82	
    5958:	0b 93       	tst	r11		
    595a:	06 24       	jz	$+14     	;abs 0x5968
    595c:	32 d2       	eint			
    595e:	04 3c       	jmp	$+10     	;abs 0x5968
    5960:	0b 93       	tst	r11		
    5962:	04 24       	jz	$+10     	;abs 0x596c
    5964:	32 d2       	eint			
    5966:	02 3c       	jmp	$+6      	;abs 0x596c
    5968:	0f 43       	clr	r15		
    596a:	01 3c       	jmp	$+4      	;abs 0x596e
    596c:	1f 43       	mov	#1,	r15	;r3 As==01
    596e:	3b 41       	pop	r11		
    5970:	30 41       	ret			

00005972 <LogStorageP__firstVolumePage>:
    5972:	c2 93 18 1c 	tst.b	&0x1c18	
    5976:	02 24       	jz	$+6      	;abs 0x597c
    5978:	0f 43       	clr	r15		
    597a:	30 41       	ret			
    597c:	3f 40 09 00 	mov	#9,	r15	;#0x0009
    5980:	30 41       	ret			

00005982 <SimpleArbiterP__1__Resource__release>:
    5982:	3b 15       	pushm	#4,	r11	
    5984:	0a 42       	mov	r2,	r10	
    5986:	3a f2       	and	#8,	r10	;r2 As==11
    5988:	32 c2       	dint			
    598a:	03 43       	nop			
    598c:	e2 93 46 1c 	cmp.b	#2,	&0x1c46	;r3 As==10
    5990:	32 20       	jnz	$+102    	;abs 0x59f6
    5992:	c2 9f 02 1c 	cmp.b	r15,	&0x1c02	
    5996:	2f 20       	jnz	$+96     	;abs 0x59f6
    5998:	c2 93 c8 1e 	tst.b	&0x1ec8	
    599c:	33 20       	jnz	$+104    	;abs 0x5a04
    599e:	f2 43 02 1c 	mov.b	#-1,	&0x1c02	;r3 As==11
    59a2:	c2 43 46 1c 	mov.b	#0,	&0x1c46	;r3 As==00
    59a6:	25 3c       	jmp	$+76     	;abs 0x59f2
    59a8:	3f 90 03 00 	cmp	#3,	r15	;#0x0003
    59ac:	01 20       	jnz	$+4      	;abs 0x59b0
    59ae:	0f 43       	clr	r15		
    59b0:	4e 4f       	mov.b	r15,	r14	
    59b2:	4d 4e       	mov.b	r14,	r13	
    59b4:	5d 0b       	rrum	#3,	r13	
    59b6:	58 4d c8 1e 	mov.b	7880(r13),r8	;0x1ec8(r13)
    59ba:	4b 4f       	mov.b	r15,	r11	
    59bc:	7b f0 07 00 	and.b	#7,	r11	;#0x0007
    59c0:	1c 43       	mov	#1,	r12	;r3 As==01
    59c2:	03 24       	jz	$+8      	;abs 0x59ca
    59c4:	7b 53       	add.b	#-1,	r11	;r3 As==11
    59c6:	cb 18 0c 5c 	.rpt	r11
				addx	r12,	r12	
    59ca:	48 bc       	bit.b	r12,	r8	
    59cc:	06 24       	jz	$+14     	;abs 0x59da
    59ce:	48 cc       	bic.b	r12,	r8	
    59d0:	cd 48 c8 1e 	mov.b	r8,	7880(r13);0x1ec8(r13)
    59d4:	c2 4e 47 1c 	mov.b	r14,	&0x1c47	
    59d8:	04 3c       	jmp	$+10     	;abs 0x59e2
    59da:	0f 99       	cmp	r9,	r15	
    59dc:	01 24       	jz	$+4      	;abs 0x59e0
    59de:	17 3c       	jmp	$+48     	;abs 0x5a0e
    59e0:	7e 43       	mov.b	#-1,	r14	;r3 As==11
    59e2:	c2 4e ca 1d 	mov.b	r14,	&0x1dca	
    59e6:	d2 43 46 1c 	mov.b	#1,	&0x1c46	;r3 As==01
    59ea:	7f 40 1e 00 	mov.b	#30,	r15	;#0x001e
    59ee:	b0 12 62 4d 	call	#0x4d62	
    59f2:	5f 43       	mov.b	#1,	r15	;r3 As==01
    59f4:	01 3c       	jmp	$+4      	;abs 0x59f8
    59f6:	4f 43       	clr.b	r15		
    59f8:	0a 93       	tst	r10		
    59fa:	01 24       	jz	$+4      	;abs 0x59fe
    59fc:	32 d2       	eint			
    59fe:	5f e3       	xor.b	#1,	r15	;r3 As==01
    5a00:	4f 4f       	mov.b	r15,	r15	
    5a02:	07 3c       	jmp	$+16     	;abs 0x5a12
    5a04:	f2 43 02 1c 	mov.b	#-1,	&0x1c02	;r3 As==11
    5a08:	59 42 47 1c 	mov.b	&0x1c47,r9	
    5a0c:	0f 49       	mov	r9,	r15	
    5a0e:	1f 53       	inc	r15		
    5a10:	cb 3f       	jmp	$-104    	;abs 0x59a8
    5a12:	38 17       	popm	#4,	r11	
    5a14:	30 41       	ret			

00005a16 <Msp430RefVoltArbiterImplP__AdcResource__release>:
    5a16:	5f 93       	cmp.b	#1,	r15	;r3 As==01
    5a18:	05 24       	jz	$+12     	;abs 0x5a24
    5a1a:	03 28       	jnc	$+8      	;abs 0x5a22
    5a1c:	6f 93       	cmp.b	#2,	r15	;r3 As==10
    5a1e:	05 20       	jnz	$+12     	;abs 0x5a2a
    5a20:	01 3c       	jmp	$+4      	;abs 0x5a24
    5a22:	4f 43       	clr.b	r15		
    5a24:	b0 12 82 59 	call	#0x5982	
    5a28:	30 41       	ret			
    5a2a:	1f 43       	mov	#1,	r15	;r3 As==01
    5a2c:	30 41       	ret			

00005a2e <Msp430RefVoltArbiterImplP__ClientResource__release>:
    5a2e:	0b 12       	push	r11		
    5a30:	4b 4f       	mov.b	r15,	r11	
    5a32:	c2 9f 01 1c 	cmp.b	r15,	&0x1c01	
    5a36:	04 20       	jnz	$+10     	;abs 0x5a40
    5a38:	7f 40 1f 00 	mov.b	#31,	r15	;#0x001f
    5a3c:	b0 12 62 4d 	call	#0x4d62	
    5a40:	4f 4b       	mov.b	r11,	r15	
    5a42:	b0 12 16 5a 	call	#0x5a16	
    5a46:	3b 41       	pop	r11		
    5a48:	30 41       	ret			

00005a4a <LogStorageP__lastVolumePage>:
    5a4a:	c2 93 18 1c 	tst.b	&0x1c18	
    5a4e:	03 20       	jnz	$+8      	;abs 0x5a56
    5a50:	3f 40 09 02 	mov	#521,	r15	;#0x0209
    5a54:	30 41       	ret			
    5a56:	0f 43       	clr	r15		
    5a58:	30 41       	ret			

00005a5a <LogStorageP__setWritePage>:
    5a5a:	2b 15       	pushm	#3,	r11	
    5a5c:	0a 4f       	mov	r15,	r10	
    5a5e:	59 42 18 1c 	mov.b	&0x1c18,r9	
    5a62:	0f 49       	mov	r9,	r15	
    5a64:	5f 06       	rlam	#2,	r15	
    5a66:	0b 4f       	mov	r15,	r11	
    5a68:	5b 0a       	rlam	#3,	r11	
    5a6a:	0b 8f       	sub	r15,	r11	
    5a6c:	3b 50 90 20 	add	#8336,	r11	;#0x2090
    5a70:	eb b3 00 00 	bit.b	#2,	0(r11)	;r3 As==10, 0x0000(r11)
    5a74:	0f 43       	clr	r15		
    5a76:	0f 6f       	rlc	r15		
    5a78:	4f 93       	tst.b	r15		
    5a7a:	09 24       	jz	$+20     	;abs 0x5a8e
    5a7c:	b0 12 4a 5a 	call	#0x5a4a	
    5a80:	0a 9f       	cmp	r15,	r10	
    5a82:	05 20       	jnz	$+12     	;abs 0x5a8e
    5a84:	eb d2 00 00 	bis.b	#4,	0(r11)	;r2 As==10, 0x0000(r11)
    5a88:	b0 12 72 59 	call	#0x5972	
    5a8c:	0a 4f       	mov	r15,	r10	
    5a8e:	59 06       	rlam	#2,	r9	
    5a90:	0e 49       	mov	r9,	r14	
    5a92:	5e 0a       	rlam	#3,	r14	
    5a94:	0e 89       	sub	r9,	r14	
    5a96:	3e 50 88 20 	add	#8328,	r14	;#0x2088
    5a9a:	8e 4a 0e 00 	mov	r10,	14(r14)	;0x000e(r14)
    5a9e:	8e 43 10 00 	mov	#0,	16(r14)	;r3 As==00, 0x0010(r14)
    5aa2:	29 17       	popm	#3,	r11	
    5aa4:	30 41       	ret			

00005aa6 <TimeSyncMessageLayerP__0__SubAMSend__sendDone>:
    5aa6:	6d 4f       	mov.b	@r15,	r13	
    5aa8:	7d 50 ee ff 	add.b	#-18,	r13	;#0xffee
    5aac:	4d 4d       	mov.b	r13,	r13	
    5aae:	0d 5f       	add	r15,	r13	
    5ab0:	5d 4d 0c 00 	mov.b	12(r13),r13	;0x000c(r13)
    5ab4:	7d 90 06 00 	cmp.b	#6,	r13	;#0x0006
    5ab8:	04 24       	jz	$+10     	;abs 0x5ac2
    5aba:	7d 90 3e 00 	cmp.b	#62,	r13	;#0x003e
    5abe:	19 20       	jnz	$+52     	;abs 0x5af2
    5ac0:	03 3c       	jmp	$+8      	;abs 0x5ac8
    5ac2:	c2 43 69 1c 	mov.b	#0,	&0x1c69	;r3 As==00
    5ac6:	30 41       	ret			
    5ac8:	3f 90 90 1c 	cmp	#7312,	r15	;#0x1c90
    5acc:	12 20       	jnz	$+38     	;abs 0x5af2
    5ace:	0e 93       	tst	r14		
    5ad0:	0e 20       	jnz	$+30     	;abs 0x5aee
    5ad2:	d2 53 06 1e 	inc.b	&0x1e06	
    5ad6:	1e 42 dc 1c 	mov	&0x1cdc,r14	
    5ada:	6f 4e       	mov.b	@r14,	r15	
    5adc:	8f 10       	swpb	r15		
    5ade:	5d 4e 01 00 	mov.b	1(r14),	r13	;0x0001(r14)
    5ae2:	0f dd       	bis	r13,	r15	
    5ae4:	1f 92 44 1c 	cmp	&0x1c44,r15	
    5ae8:	02 20       	jnz	$+6      	;abs 0x5aee
    5aea:	de 53 04 00 	inc.b	4(r14)		;0x0004(r14)
    5aee:	e2 c3 54 1d 	bic.b	#2,	&0x1d54	;r3 As==10
    5af2:	30 41       	ret			

00005af4 <VirtualizeTimerC__0__Timer__startPeriodic>:
    5af4:	2b 15       	pushm	#3,	r11	
    5af6:	49 4f       	mov.b	r15,	r9	
    5af8:	0a 4d       	mov	r13,	r10	
    5afa:	0b 4e       	mov	r14,	r11	
    5afc:	b0 12 0c 4d 	call	#0x4d0c	
    5b00:	4c 49       	mov.b	r9,	r12	
    5b02:	0d 4c       	mov	r12,	r13	
    5b04:	5d 02       	rlam	#1,	r13	
    5b06:	5c 0a       	rlam	#3,	r12	
    5b08:	0d 5c       	add	r12,	r13	
    5b0a:	3d 50 ca 1e 	add	#7882,	r13	;#0x1eca
    5b0e:	8d 4e 00 00 	mov	r14,	0(r13)	;0x0000(r13)
    5b12:	8d 4f 02 00 	mov	r15,	2(r13)	;0x0002(r13)
    5b16:	8d 4a 04 00 	mov	r10,	4(r13)	;0x0004(r13)
    5b1a:	8d 4b 06 00 	mov	r11,	6(r13)	;0x0006(r13)
    5b1e:	5f 4d 08 00 	mov.b	8(r13),	r15	;0x0008(r13)
    5b22:	5f c3       	bic.b	#1,	r15	;r3 As==01
    5b24:	6f d3       	bis.b	#2,	r15	;r3 As==10
    5b26:	cd 4f 08 00 	mov.b	r15,	8(r13)	;0x0008(r13)
    5b2a:	7f 40 05 00 	mov.b	#5,	r15	;#0x0005
    5b2e:	b0 12 62 4d 	call	#0x4d62	
    5b32:	29 17       	popm	#3,	r11	
    5b34:	30 41       	ret			

00005b36 <HdlcTranslateC__SerialFrameComm__putDelimiter>:
    5b36:	0f 42       	mov	r2,	r15	
    5b38:	32 c2       	dint			
    5b3a:	03 43       	nop			
    5b3c:	d2 c3 4a 1c 	bic.b	#1,	&0x1c4a	;r3 As==01
    5b40:	f2 40 7e 00 19 1d 	mov.b	#126,	&0x1d19	;#0x007e
    5b46:	3f f2       	and	#8,	r15	;r2 As==11
    5b48:	01 24       	jz	$+4      	;abs 0x5b4c
    5b4a:	32 d2       	eint			
    5b4c:	b0 12 5c 58 	call	#0x585c	
    5b50:	30 41       	ret			

00005b52 <HdlcTranslateC__SerialFrameComm__putData>:
    5b52:	4e 4f       	mov.b	r15,	r14	
    5b54:	7e 50 83 ff 	add.b	#-125,	r14	;#0xff83
    5b58:	6e 93       	cmp.b	#2,	r14	;r3 As==10
    5b5a:	0a 2c       	jc	$+22     	;abs 0x5b70
    5b5c:	d2 d3 4a 1c 	bis.b	#1,	&0x1c4a	;r3 As==01
    5b60:	7f e0 20 00 	xor.b	#32,	r15	;#0x0020
    5b64:	c2 4f e6 1f 	mov.b	r15,	&0x1fe6	
    5b68:	f2 40 7d 00 19 1d 	mov.b	#125,	&0x1d19	;#0x007d
    5b6e:	02 3c       	jmp	$+6      	;abs 0x5b74
    5b70:	c2 4f 19 1d 	mov.b	r15,	&0x1d19	
    5b74:	b0 12 5c 58 	call	#0x585c	
    5b78:	30 41       	ret			

00005b7a <RF233DriverLayerP__writeRegister>:
    5b7a:	1b 15       	pushm	#2,	r11	
    5b7c:	4a 4f       	mov.b	r15,	r10	
    5b7e:	4b 4e       	mov.b	r14,	r11	
    5b80:	b0 12 20 51 	call	#0x5120	
    5b84:	4f 4a       	mov.b	r10,	r15	
    5b86:	7f d0 c0 ff 	bis.b	#-64,	r15	;#0xffc0
    5b8a:	b0 12 6e 49 	call	#0x496e	
    5b8e:	b0 12 5a 49 	call	#0x495a	
    5b92:	4f 4b       	mov.b	r11,	r15	
    5b94:	b0 12 6e 49 	call	#0x496e	
    5b98:	b0 12 5a 49 	call	#0x495a	
    5b9c:	b0 12 72 4e 	call	#0x4e72	
    5ba0:	1a 17       	popm	#2,	r11	
    5ba2:	30 41       	ret			

00005ba4 <RF233DriverLayerP__readRegister>:
    5ba4:	0b 12       	push	r11		
    5ba6:	21 83       	decd	r1		
    5ba8:	4b 4f       	mov.b	r15,	r11	
    5baa:	b0 12 20 51 	call	#0x5120	
    5bae:	4f 4b       	mov.b	r11,	r15	
    5bb0:	7f d0 80 ff 	bis.b	#-128,	r15	;#0xff80
    5bb4:	b0 12 6e 49 	call	#0x496e	
    5bb8:	b0 12 5a 49 	call	#0x495a	
    5bbc:	4f 43       	clr.b	r15		
    5bbe:	b0 12 6e 49 	call	#0x496e	
    5bc2:	b0 12 5a 49 	call	#0x495a	
    5bc6:	81 4f 00 00 	mov	r15,	0(r1)	;0x0000(r1)
    5bca:	b0 12 72 4e 	call	#0x4e72	
    5bce:	2f 41       	mov	@r1,	r15	
    5bd0:	21 53       	incd	r1		
    5bd2:	3b 41       	pop	r11		
    5bd4:	30 41       	ret			

00005bd6 <Msp430Adc12ImplP__stopConversion>:
    5bd6:	0b 12       	push	r11		
    5bd8:	f2 b0 40 00 5e 1e 	bit.b	#64,	&0x1e5e	;#0x0040
    5bde:	03 24       	jz	$+8      	;abs 0x5be6
    5be0:	b2 f0 cf ff c0 03 	and	#-49,	&0x03c0	;#0xffcf
    5be6:	4f 43       	clr.b	r15		
    5be8:	b0 12 a4 4a 	call	#0x4aa4	
    5bec:	7f f0 0f 00 	and.b	#15,	r15	;#0x000f
    5bf0:	b0 12 fa 4b 	call	#0x4bfa	
    5bf4:	f2 b0 10 00 5e 1e 	bit.b	#16,	&0x1e5e	;#0x0010
    5bfa:	13 20       	jnz	$+40     	;abs 0x5c22
    5bfc:	b0 12 d4 4b 	call	#0x4bd4	
    5c00:	82 43 0e 07 	mov	#0,	&0x070e	;r3 As==00
    5c04:	82 43 0a 07 	mov	#0,	&0x070a	;r3 As==00
    5c08:	f2 f0 df ff 5e 1e 	and.b	#-33,	&0x1e5e	;#0xffdf
    5c0e:	0e 3c       	jmp	$+30     	;abs 0x5c2c
    5c10:	4f 4b       	mov.b	r11,	r15	
    5c12:	b0 12 a4 4a 	call	#0x4aa4	
    5c16:	7f f0 0f 00 	and.b	#15,	r15	;#0x000f
    5c1a:	b0 12 fa 4b 	call	#0x4bfa	
    5c1e:	5b 53       	inc.b	r11		
    5c20:	01 3c       	jmp	$+4      	;abs 0x5c24
    5c22:	5b 43       	mov.b	#1,	r11	;r3 As==01
    5c24:	5b 92 2e 1d 	cmp.b	&0x1d2e,r11	
    5c28:	f3 2b       	jnc	$-24     	;abs 0x5c10
    5c2a:	e8 3f       	jmp	$-46     	;abs 0x5bfc
    5c2c:	3b 41       	pop	r11		
    5c2e:	30 41       	ret			

00005c30 <VirtualizeTimerC__0__Timer__startOneShot>:
    5c30:	2b 15       	pushm	#3,	r11	
    5c32:	49 4f       	mov.b	r15,	r9	
    5c34:	0a 4d       	mov	r13,	r10	
    5c36:	0b 4e       	mov	r14,	r11	
    5c38:	b0 12 0c 4d 	call	#0x4d0c	
    5c3c:	4c 49       	mov.b	r9,	r12	
    5c3e:	0d 4c       	mov	r12,	r13	
    5c40:	5d 02       	rlam	#1,	r13	
    5c42:	5c 0a       	rlam	#3,	r12	
    5c44:	0d 5c       	add	r12,	r13	
    5c46:	3d 50 ca 1e 	add	#7882,	r13	;#0x1eca
    5c4a:	8d 4e 00 00 	mov	r14,	0(r13)	;0x0000(r13)
    5c4e:	8d 4f 02 00 	mov	r15,	2(r13)	;0x0002(r13)
    5c52:	8d 4a 04 00 	mov	r10,	4(r13)	;0x0004(r13)
    5c56:	8d 4b 06 00 	mov	r11,	6(r13)	;0x0006(r13)
    5c5a:	fd d0 03 00 08 00 	bis.b	#3,	8(r13)	;#0x0003, 0x0008(r13)
    5c60:	7f 40 05 00 	mov.b	#5,	r15	;#0x0005
    5c64:	b0 12 62 4d 	call	#0x4d62	
    5c68:	29 17       	popm	#3,	r11	
    5c6a:	30 41       	ret			

00005c6c <TimeSyncP__0__GlobalTime__local2Global>:
    5c6c:	2b 15       	pushm	#3,	r11	
    5c6e:	09 4f       	mov	r15,	r9	
    5c70:	2a 4f       	mov	@r15,	r10	
    5c72:	1b 4f 02 00 	mov	2(r15),	r11	;0x0002(r15)
    5c76:	0e 4a       	mov	r10,	r14	
    5c78:	0f 4b       	mov	r11,	r15	
    5c7a:	1e 82 8c 1c 	sub	&0x1c8c,r14	
    5c7e:	1f 72 8e 1c 	subc	&0x1c8e,r15	
    5c82:	b0 12 9a b4 	call	#0xb49a	
    5c86:	1c 42 ec 1c 	mov	&0x1cec,r12	
    5c8a:	1d 42 ee 1c 	mov	&0x1cee,r13	
    5c8e:	b0 12 ca b0 	call	#0xb0ca	
    5c92:	b0 12 3e b5 	call	#0xb53e	
    5c96:	1e 52 22 1d 	add	&0x1d22,r14	
    5c9a:	1f 62 24 1d 	addc	&0x1d24,r15	
    5c9e:	0c 4e       	mov	r14,	r12	
    5ca0:	0d 4f       	mov	r15,	r13	
    5ca2:	0c 5a       	add	r10,	r12	
    5ca4:	0d 6b       	addc	r11,	r13	
    5ca6:	89 4c 00 00 	mov	r12,	0(r9)	;0x0000(r9)
    5caa:	89 4d 02 00 	mov	r13,	2(r9)	;0x0002(r9)
    5cae:	e2 93 bc 1d 	cmp.b	#2,	&0x1dbc	;r3 As==10
    5cb2:	03 2c       	jc	$+8      	;abs 0x5cba
    5cb4:	b0 12 2a 52 	call	#0x522a	
    5cb8:	01 3c       	jmp	$+4      	;abs 0x5cbc
    5cba:	0f 43       	clr	r15		
    5cbc:	29 17       	popm	#3,	r11	
    5cbe:	30 41       	ret			

00005cc0 <CUSPBaseRecorderP__sendStatus.part.329>:
    5cc0:	1b 15       	pushm	#2,	r11	
    5cc2:	21 82       	sub	#4,	r1	;r2 As==10
    5cc4:	1f 42 44 1c 	mov	&0x1c44,r15	
    5cc8:	c2 4f 42 20 	mov.b	r15,	&0x2042	
    5ccc:	8f 10       	swpb	r15		
    5cce:	c2 4f 41 20 	mov.b	r15,	&0x2041	
    5cd2:	d2 42 6a 1c 43 20 	mov.b	&0x1c6a,&0x2043	
    5cd8:	b0 12 0c 4d 	call	#0x4d0c	
    5cdc:	81 4e 00 00 	mov	r14,	0(r1)	;0x0000(r1)
    5ce0:	81 4f 02 00 	mov	r15,	2(r1)	;0x0002(r1)
    5ce4:	0d 4e       	mov	r14,	r13	
    5ce6:	0e 4f       	mov	r15,	r14	
    5ce8:	3f 40 44 20 	mov	#8260,	r15	;#0x2044
    5cec:	b0 12 9c 49 	call	#0x499c	
    5cf0:	0f 41       	mov	r1,	r15	
    5cf2:	b0 12 6c 5c 	call	#0x5c6c	
    5cf6:	c2 4f 50 20 	mov.b	r15,	&0x2050	
    5cfa:	2d 41       	mov	@r1,	r13	
    5cfc:	1e 41 02 00 	mov	2(r1),	r14	;0x0002(r1)
    5d00:	3f 40 48 20 	mov	#8264,	r15	;#0x2048
    5d04:	b0 12 9c 49 	call	#0x499c	
    5d08:	1c 42 92 20 	mov	&0x2092,r12	
    5d0c:	1d 42 94 20 	mov	&0x2094,r13	
    5d10:	f2 b2 90 20 	bit.b	#8,	&0x2090	;r2 As==11
    5d14:	0f 43       	clr	r15		
    5d16:	0f 6f       	rlc	r15		
    5d18:	4f 93       	tst.b	r15		
    5d1a:	05 24       	jz	$+12     	;abs 0x5d26
    5d1c:	1e 42 9a 20 	mov	&0x209a,r14	
    5d20:	1f 42 9c 20 	mov	&0x209c,r15	
    5d24:	02 3c       	jmp	$+6      	;abs 0x5d2a
    5d26:	0e 43       	clr	r14		
    5d28:	0f 43       	clr	r15		
    5d2a:	0a 4c       	mov	r12,	r10	
    5d2c:	0b 4d       	mov	r13,	r11	
    5d2e:	0a 8e       	sub	r14,	r10	
    5d30:	0b 7f       	subc	r15,	r11	
    5d32:	0d 4a       	mov	r10,	r13	
    5d34:	0e 4b       	mov	r11,	r14	
    5d36:	7f 40 05 00 	mov.b	#5,	r15	;#0x0005
    5d3a:	12 c3       	clrc			
    5d3c:	0e 10       	rrc	r14		
    5d3e:	0d 10       	rrc	r13		
    5d40:	7f 53       	add.b	#-1,	r15	;r3 As==11
    5d42:	fb 23       	jnz	$-8      	;abs 0x5d3a
    5d44:	3f 40 4c 20 	mov	#8268,	r15	;#0x204c
    5d48:	b0 12 9c 49 	call	#0x499c	
    5d4c:	1f 42 48 21 	mov	&0x2148,r15	
    5d50:	c2 4f 52 20 	mov.b	r15,	&0x2052	
    5d54:	8f 10       	swpb	r15		
    5d56:	c2 4f 51 20 	mov.b	r15,	&0x2051	
    5d5a:	d2 42 64 1c 55 20 	mov.b	&0x1c64,&0x2055	
    5d60:	d2 42 63 1c 56 20 	mov.b	&0x1c63,&0x2056	
    5d66:	0f 42       	mov	r2,	r15	
    5d68:	32 c2       	dint			
    5d6a:	03 43       	nop			
    5d6c:	1e 42 26 1c 	mov	&0x1c26,r14	
    5d70:	c2 4e 54 20 	mov.b	r14,	&0x2054	
    5d74:	8e 10       	swpb	r14		
    5d76:	c2 4e 53 20 	mov.b	r14,	&0x2053	
    5d7a:	3f f2       	and	#8,	r15	;r2 As==11
    5d7c:	01 24       	jz	$+4      	;abs 0x5d80
    5d7e:	32 d2       	eint			
    5d80:	f2 43 3b 20 	mov.b	#-1,	&0x203b	;r3 As==11
    5d84:	f2 43 3a 20 	mov.b	#-1,	&0x203a	;r3 As==11
    5d88:	f2 40 07 00 40 20 	mov.b	#7,	&0x2040	;#0x0007
    5d8e:	f2 40 16 00 3e 20 	mov.b	#22,	&0x203e	;#0x0016
    5d94:	7e 40 16 00 	mov.b	#22,	r14	;#0x0016
    5d98:	3f 40 35 20 	mov	#8245,	r15	;#0x2035
    5d9c:	b0 12 48 56 	call	#0x5648	
    5da0:	0f 93       	tst	r15		
    5da2:	02 20       	jnz	$+6      	;abs 0x5da8
    5da4:	d2 43 68 1c 	mov.b	#1,	&0x1c68	;r3 As==01
    5da8:	21 52       	add	#4,	r1	;r2 As==10
    5daa:	1a 17       	popm	#2,	r11	
    5dac:	30 41       	ret			

00005dae <Ieee154PacketLayerP__0__Ieee154PacketLayer__requiresAckReply>:
    5dae:	0b 12       	push	r11		
    5db0:	5e 4f 02 00 	mov.b	2(r15),	r14	;0x0002(r15)
    5db4:	8e 10       	swpb	r14		
    5db6:	5d 4f 01 00 	mov.b	1(r15),	r13	;0x0001(r15)
    5dba:	0e dd       	bis	r13,	r14	
    5dbc:	3e b0 20 00 	bit	#32,	r14	;#0x0020
    5dc0:	13 24       	jz	$+40     	;abs 0x5de8
    5dc2:	3e f0 47 cc 	and	#-13241,r14	;#0xcc47
    5dc6:	3e 90 41 88 	cmp	#-30655,r14	;#0x8841
    5dca:	0e 20       	jnz	$+30     	;abs 0x5de8
    5dcc:	5b 4f 07 00 	mov.b	7(r15),	r11	;0x0007(r15)
    5dd0:	8b 10       	swpb	r11		
    5dd2:	5f 4f 06 00 	mov.b	6(r15),	r15	;0x0006(r15)
    5dd6:	0b df       	bis	r15,	r11	
    5dd8:	b0 12 44 51 	call	#0x5144	
    5ddc:	1e 43       	mov	#1,	r14	;r3 As==01
    5dde:	0b 9f       	cmp	r15,	r11	
    5de0:	01 24       	jz	$+4      	;abs 0x5de4
    5de2:	0e 43       	clr	r14		
    5de4:	0f 4e       	mov	r14,	r15	
    5de6:	01 3c       	jmp	$+4      	;abs 0x5dea
    5de8:	0f 43       	clr	r15		
    5dea:	4f 4f       	mov.b	r15,	r15	
    5dec:	3b 41       	pop	r11		
    5dee:	30 41       	ret			

00005df0 <Msp430RefVoltGeneratorP__HplAdc12__getCtl0>:
    5df0:	31 50 f6 ff 	add	#-10,	r1	;#0xfff6
    5df4:	1f 42 00 07 	mov	&0x0700,r15	
    5df8:	81 4f 04 00 	mov	r15,	4(r1)	;0x0004(r1)
    5dfc:	4f 4f       	mov.b	r15,	r15	
    5dfe:	5e 41 05 00 	mov.b	5(r1),	r14	;0x0005(r1)
    5e02:	8e 10       	swpb	r14		
    5e04:	0f de       	bis	r14,	r15	
    5e06:	31 50 0a 00 	add	#10,	r1	;#0x000a
    5e0a:	30 41       	ret			

00005e0c <Msp430RefVoltGeneratorP__switchOff>:
    5e0c:	0b 12       	push	r11		
    5e0e:	31 82       	sub	#8,	r1	;r2 As==11
    5e10:	0b 42       	mov	r2,	r11	
    5e12:	3b f2       	and	#8,	r11	;r2 As==11
    5e14:	32 c2       	dint			
    5e16:	03 43       	nop			
    5e18:	1f 42 02 07 	mov	&0x0702,r15	
    5e1c:	5f f3       	and.b	#1,	r15	;r3 As==01
    5e1e:	04 24       	jz	$+10     	;abs 0x5e28
    5e20:	0b 93       	tst	r11		
    5e22:	23 24       	jz	$+72     	;abs 0x5e6a
    5e24:	32 d2       	eint			
    5e26:	21 3c       	jmp	$+68     	;abs 0x5e6a
    5e28:	b0 12 f0 5d 	call	#0x5df0	
    5e2c:	c1 4f 06 00 	mov.b	r15,	6(r1)	;0x0006(r1)
    5e30:	8f 10       	swpb	r15		
    5e32:	c1 4f 07 00 	mov.b	r15,	7(r1)	;0x0007(r1)
    5e36:	91 41 06 00 04 00 	mov	6(r1),	4(r1)	;0x0006(r1), 0x0004(r1)
    5e3c:	a1 c3 04 00 	bic	#2,	4(r1)	;r3 As==10, 0x0004(r1)
    5e40:	91 41 04 00 02 00 	mov	4(r1),	2(r1)	;0x0004(r1), 0x0002(r1)
    5e46:	1f 41 04 00 	mov	4(r1),	r15	;0x0004(r1)
    5e4a:	b0 12 02 4a 	call	#0x4a02	
    5e4e:	b1 f0 df ff 04 00 	and	#-33,	4(r1)	;#0xffdf, 0x0004(r1)
    5e54:	91 41 04 00 00 00 	mov	4(r1),	0(r1)	;0x0004(r1), 0x0000(r1)
    5e5a:	2f 41       	mov	@r1,	r15	
    5e5c:	b0 12 02 4a 	call	#0x4a02	
    5e60:	0b 93       	tst	r11		
    5e62:	01 24       	jz	$+4      	;abs 0x5e66
    5e64:	32 d2       	eint			
    5e66:	0f 43       	clr	r15		
    5e68:	02 3c       	jmp	$+6      	;abs 0x5e6e
    5e6a:	3f 40 05 00 	mov	#5,	r15	;#0x0005
    5e6e:	31 52       	add	#8,	r1	;r2 As==11
    5e70:	3b 41       	pop	r11		
    5e72:	30 41       	ret			

00005e74 <Msp430RefVoltGeneratorP__switchOn>:
    5e74:	1b 15       	pushm	#2,	r11	
    5e76:	31 82       	sub	#8,	r1	;r2 As==11
    5e78:	4a 4f       	mov.b	r15,	r10	
    5e7a:	0b 42       	mov	r2,	r11	
    5e7c:	3b f2       	and	#8,	r11	;r2 As==11
    5e7e:	32 c2       	dint			
    5e80:	03 43       	nop			
    5e82:	1f 42 02 07 	mov	&0x0702,r15	
    5e86:	5f f3       	and.b	#1,	r15	;r3 As==01
    5e88:	04 24       	jz	$+10     	;abs 0x5e92
    5e8a:	0b 93       	tst	r11		
    5e8c:	2f 24       	jz	$+96     	;abs 0x5eec
    5e8e:	32 d2       	eint			
    5e90:	2d 3c       	jmp	$+92     	;abs 0x5eec
    5e92:	b0 12 f0 5d 	call	#0x5df0	
    5e96:	c1 4f 06 00 	mov.b	r15,	6(r1)	;0x0006(r1)
    5e9a:	8f 10       	swpb	r15		
    5e9c:	c1 4f 07 00 	mov.b	r15,	7(r1)	;0x0007(r1)
    5ea0:	91 41 06 00 04 00 	mov	6(r1),	4(r1)	;0x0006(r1), 0x0004(r1)
    5ea6:	a1 c3 04 00 	bic	#2,	4(r1)	;r3 As==10, 0x0004(r1)
    5eaa:	91 41 04 00 02 00 	mov	4(r1),	2(r1)	;0x0004(r1), 0x0002(r1)
    5eb0:	1f 41 04 00 	mov	4(r1),	r15	;0x0004(r1)
    5eb4:	b0 12 02 4a 	call	#0x4a02	
    5eb8:	b1 d0 20 00 04 00 	bis	#32,	4(r1)	;#0x0020, 0x0004(r1)
    5ebe:	4f 4a       	mov.b	r10,	r15	
    5ec0:	7f 53       	add.b	#-1,	r15	;r3 As==11
    5ec2:	1f f3       	and	#1,	r15	;r3 As==01
    5ec4:	5f 0e       	rlam	#4,	r15	
    5ec6:	5f 06       	rlam	#2,	r15	
    5ec8:	1e 41 04 00 	mov	4(r1),	r14	;0x0004(r1)
    5ecc:	3e f0 bf ff 	and	#-65,	r14	;#0xffbf
    5ed0:	0e df       	bis	r15,	r14	
    5ed2:	81 4e 04 00 	mov	r14,	4(r1)	;0x0004(r1)
    5ed6:	91 41 04 00 00 00 	mov	4(r1),	0(r1)	;0x0004(r1), 0x0000(r1)
    5edc:	2f 41       	mov	@r1,	r15	
    5ede:	b0 12 02 4a 	call	#0x4a02	
    5ee2:	0b 93       	tst	r11		
    5ee4:	01 24       	jz	$+4      	;abs 0x5ee8
    5ee6:	32 d2       	eint			
    5ee8:	0f 43       	clr	r15		
    5eea:	02 3c       	jmp	$+6      	;abs 0x5ef0
    5eec:	3f 40 05 00 	mov	#5,	r15	;#0x0005
    5ef0:	31 52       	add	#8,	r1	;r2 As==11
    5ef2:	1a 17       	popm	#2,	r11	
    5ef4:	30 41       	ret			

00005ef6 <TransformCounterC__1__Counter__get>:
    5ef6:	4b 15       	pushm	#5,	r11	
    5ef8:	31 82       	sub	#8,	r1	;r2 As==11
    5efa:	09 42       	mov	r2,	r9	
    5efc:	39 f2       	and	#8,	r9	;r2 As==11
    5efe:	32 c2       	dint			
    5f00:	03 43       	nop			
    5f02:	1a 42 68 1d 	mov	&0x1d68,r10	
    5f06:	1b 42 6a 1d 	mov	&0x1d6a,r11	
    5f0a:	0d 41       	mov	r1,	r13	
    5f0c:	0e 41       	mov	r1,	r14	
    5f0e:	2e 52       	add	#4,	r14	;r2 As==10
    5f10:	0f 41       	mov	r1,	r15	
    5f12:	3f 50 06 00 	add	#6,	r15	;#0x0006
    5f16:	b0 12 74 48 	call	#0x4874	
    5f1a:	28 41       	mov	@r1,	r8	
    5f1c:	17 41 02 00 	mov	2(r1),	r7	;0x0002(r1)
    5f20:	1f 42 40 03 	mov	&0x0340,r15	
    5f24:	5f f3       	and.b	#1,	r15	;r3 As==01
    5f26:	0d 24       	jz	$+28     	;abs 0x5f42
    5f28:	1a 53       	inc	r10		
    5f2a:	0b 63       	adc	r11		
    5f2c:	0d 41       	mov	r1,	r13	
    5f2e:	0e 41       	mov	r1,	r14	
    5f30:	2e 52       	add	#4,	r14	;r2 As==10
    5f32:	0f 41       	mov	r1,	r15	
    5f34:	3f 50 06 00 	add	#6,	r15	;#0x0006
    5f38:	b0 12 74 48 	call	#0x4874	
    5f3c:	28 41       	mov	@r1,	r8	
    5f3e:	17 41 02 00 	mov	2(r1),	r7	;0x0002(r1)
    5f42:	0c 43       	clr	r12		
    5f44:	0d 43       	clr	r13		
    5f46:	0d 4a       	mov	r10,	r13	
    5f48:	7f 40 05 00 	mov.b	#5,	r15	;#0x0005
    5f4c:	0c 5c       	rla	r12		
    5f4e:	0d 6d       	rlc	r13		
    5f50:	7f 53       	add.b	#-1,	r15	;r3 As==11
    5f52:	fc 23       	jnz	$-6      	;abs 0x5f4c
    5f54:	0e 48       	mov	r8,	r14	
    5f56:	0f 47       	mov	r7,	r15	
    5f58:	8e 10       	swpb	r14		
    5f5a:	8f 10       	swpb	r15		
    5f5c:	4e ef       	xor.b	r15,	r14	
    5f5e:	0e ef       	xor	r15,	r14	
    5f60:	4f 4f       	mov.b	r15,	r15	
    5f62:	12 c3       	clrc			
    5f64:	0f 10       	rrc	r15		
    5f66:	0e 10       	rrc	r14		
    5f68:	12 c3       	clrc			
    5f6a:	0f 10       	rrc	r15		
    5f6c:	0e 10       	rrc	r14		
    5f6e:	12 c3       	clrc			
    5f70:	0f 10       	rrc	r15		
    5f72:	0e 10       	rrc	r14		
    5f74:	0e dc       	bis	r12,	r14	
    5f76:	0f dd       	bis	r13,	r15	
    5f78:	09 93       	tst	r9		
    5f7a:	01 24       	jz	$+4      	;abs 0x5f7e
    5f7c:	32 d2       	eint			
    5f7e:	31 52       	add	#8,	r1	;r2 As==11
    5f80:	47 17       	popm	#5,	r11	
    5f82:	30 41       	ret			

00005f84 <TimeSyncMessageLayerP__0__TimeSyncPacketMilli__eventTime>:
    5f84:	5b 15       	pushm	#6,	r11	
    5f86:	0b 4f       	mov	r15,	r11	
    5f88:	6f 4f       	mov.b	@r15,	r15	
    5f8a:	7f 50 ee ff 	add.b	#-18,	r15	;#0xffee
    5f8e:	4f 4f       	mov.b	r15,	r15	
    5f90:	0f 5b       	add	r11,	r15	
    5f92:	3f 50 0d 00 	add	#13,	r15	;#0x000d
    5f96:	b0 12 c8 49 	call	#0x49c8	
    5f9a:	07 4e       	mov	r14,	r7	
    5f9c:	06 4f       	mov	r15,	r6	
    5f9e:	18 4b 40 00 	mov	64(r11),r8	;0x0040(r11)
    5fa2:	19 4b 42 00 	mov	66(r11),r9	;0x0042(r11)
    5fa6:	b0 12 f6 5e 	call	#0x5ef6	
    5faa:	0a 4e       	mov	r14,	r10	
    5fac:	0b 4f       	mov	r15,	r11	
    5fae:	b0 12 0c 4d 	call	#0x4d0c	
    5fb2:	0c 47       	mov	r7,	r12	
    5fb4:	0d 46       	mov	r6,	r13	
    5fb6:	8c 10       	swpb	r12		
    5fb8:	8d 10       	swpb	r13		
    5fba:	4c ed       	xor.b	r13,	r12	
    5fbc:	0c ed       	xor	r13,	r12	
    5fbe:	8d 11       	sxt	r13		
    5fc0:	0d 11       	rra	r13		
    5fc2:	0c 10       	rrc	r12		
    5fc4:	0d 11       	rra	r13		
    5fc6:	0c 10       	rrc	r12		
    5fc8:	0e 5c       	add	r12,	r14	
    5fca:	0f 6d       	addc	r13,	r15	
    5fcc:	08 8a       	sub	r10,	r8	
    5fce:	09 7b       	subc	r11,	r9	
    5fd0:	0a 48       	mov	r8,	r10	
    5fd2:	0b 49       	mov	r9,	r11	
    5fd4:	0a 48       	mov	r8,	r10	
    5fd6:	8a 10       	swpb	r10		
    5fd8:	8b 10       	swpb	r11		
    5fda:	4a eb       	xor.b	r11,	r10	
    5fdc:	0a eb       	xor	r11,	r10	
    5fde:	8b 11       	sxt	r11		
    5fe0:	0b 11       	rra	r11		
    5fe2:	0a 10       	rrc	r10		
    5fe4:	0b 11       	rra	r11		
    5fe6:	0a 10       	rrc	r10		
    5fe8:	0e 5a       	add	r10,	r14	
    5fea:	0f 6b       	addc	r11,	r15	
    5fec:	56 17       	popm	#6,	r11	
    5fee:	30 41       	ret			

00005ff0 <Msp430AlarmC__1__Alarm__startAt>:
    5ff0:	0b 12       	push	r11		
    5ff2:	0d 42       	mov	r2,	r13	
    5ff4:	3d f2       	and	#8,	r13	;r2 As==11
    5ff6:	32 c2       	dint			
    5ff8:	03 43       	nop			
    5ffa:	1c 42 90 03 	mov	&0x0390,r12	
    5ffe:	0b 4c       	mov	r12,	r11	
    6000:	0b 8f       	sub	r15,	r11	
    6002:	0b 9e       	cmp	r14,	r11	
    6004:	01 28       	jnc	$+4      	;abs 0x6008
    6006:	04 3c       	jmp	$+10     	;abs 0x6010
    6008:	0e 8b       	sub	r11,	r14	
    600a:	3e 90 03 00 	cmp	#3,	r14	;#0x0003
    600e:	06 2c       	jc	$+14     	;abs 0x601c
    6010:	1f 42 90 03 	mov	&0x0390,r15	
    6014:	2f 53       	incd	r15		
    6016:	82 4f 94 03 	mov	r15,	&0x0394	
    601a:	03 3c       	jmp	$+8      	;abs 0x6022
    601c:	0c 5e       	add	r14,	r12	
    601e:	82 4c 94 03 	mov	r12,	&0x0394	
    6022:	92 c3 84 03 	bic	#1,	&0x0384	;r3 As==01
    6026:	b2 d0 10 00 84 03 	bis	#16,	&0x0384	;#0x0010
    602c:	0d 93       	tst	r13		
    602e:	01 24       	jz	$+4      	;abs 0x6032
    6030:	32 d2       	eint			
    6032:	3b 41       	pop	r11		
    6034:	30 41       	ret			

00006036 <RandomCollisionLayerP__0__RadioAlarm__wait>:
    6036:	d2 43 fe 1d 	mov.b	#1,	&0x1dfe	;r3 As==01
    603a:	d2 43 d2 1f 	mov.b	#1,	&0x1fd2	;r3 As==01
    603e:	1d 42 90 03 	mov	&0x0390,r13	
    6042:	0e 4f       	mov	r15,	r14	
    6044:	0f 4d       	mov	r13,	r15	
    6046:	b0 12 f0 5f 	call	#0x5ff0	
    604a:	30 41       	ret			

0000604c <TransformAlarmC__0__set_alarm>:
    604c:	1b 15       	pushm	#2,	r11	
    604e:	b0 12 0c 4d 	call	#0x4d0c	
    6052:	1a 42 c6 1d 	mov	&0x1dc6,r10	
    6056:	1b 42 c8 1d 	mov	&0x1dc8,r11	
    605a:	0c 4a       	mov	r10,	r12	
    605c:	0d 4b       	mov	r11,	r13	
    605e:	1c 52 b8 1d 	add	&0x1db8,r12	
    6062:	1d 62 ba 1d 	addc	&0x1dba,r13	
    6066:	0f 9b       	cmp	r11,	r15	
    6068:	09 28       	jnc	$+20     	;abs 0x607c
    606a:	02 20       	jnz	$+6      	;abs 0x6070
    606c:	0e 9a       	cmp	r10,	r14	
    606e:	06 28       	jnc	$+14     	;abs 0x607c
    6070:	0d 9b       	cmp	r11,	r13	
    6072:	10 28       	jnc	$+34     	;abs 0x6094
    6074:	09 20       	jnz	$+20     	;abs 0x6088
    6076:	0c 9a       	cmp	r10,	r12	
    6078:	0d 28       	jnc	$+28     	;abs 0x6094
    607a:	06 3c       	jmp	$+14     	;abs 0x6088
    607c:	0d 9b       	cmp	r11,	r13	
    607e:	04 28       	jnc	$+10     	;abs 0x6088
    6080:	0b 9d       	cmp	r13,	r11	
    6082:	27 28       	jnc	$+80     	;abs 0x60d2
    6084:	0c 9a       	cmp	r10,	r12	
    6086:	25 2c       	jc	$+76     	;abs 0x60d2
    6088:	0f 9d       	cmp	r13,	r15	
    608a:	04 28       	jnc	$+10     	;abs 0x6094
    608c:	0d 9f       	cmp	r15,	r13	
    608e:	21 28       	jnc	$+68     	;abs 0x60d2
    6090:	0e 9c       	cmp	r12,	r14	
    6092:	1f 2c       	jc	$+64     	;abs 0x60d2
    6094:	0a 4c       	mov	r12,	r10	
    6096:	0b 4d       	mov	r13,	r11	
    6098:	0a 8e       	sub	r14,	r10	
    609a:	0b 7f       	subc	r15,	r11	
    609c:	0b 93       	tst	r11		
    609e:	03 20       	jnz	$+8      	;abs 0x60a6
    60a0:	3a 90 01 04 	cmp	#1025,	r10	;#0x0401
    60a4:	18 28       	jnc	$+50     	;abs 0x60d6
    60a6:	0c 4e       	mov	r14,	r12	
    60a8:	0d 4f       	mov	r15,	r13	
    60aa:	3c 50 00 04 	add	#1024,	r12	;#0x0400
    60ae:	0d 63       	adc	r13		
    60b0:	82 4c c6 1d 	mov	r12,	&0x1dc6	
    60b4:	82 4d c8 1d 	mov	r13,	&0x1dc8	
    60b8:	0c 4a       	mov	r10,	r12	
    60ba:	0d 4b       	mov	r11,	r13	
    60bc:	3c 50 00 fc 	add	#-1024,	r12	;#0xfc00
    60c0:	3d 63       	addc	#-1,	r13	;r3 As==11
    60c2:	82 4c b8 1d 	mov	r12,	&0x1db8	
    60c6:	82 4d ba 1d 	mov	r13,	&0x1dba	
    60ca:	3a 40 00 04 	mov	#1024,	r10	;#0x0400
    60ce:	0b 43       	clr	r11		
    60d0:	0a 3c       	jmp	$+22     	;abs 0x60e6
    60d2:	0a 43       	clr	r10		
    60d4:	0b 43       	clr	r11		
    60d6:	82 4c c6 1d 	mov	r12,	&0x1dc6	
    60da:	82 4d c8 1d 	mov	r13,	&0x1dc8	
    60de:	82 43 b8 1d 	mov	#0,	&0x1db8	;r3 As==00
    60e2:	82 43 ba 1d 	mov	#0,	&0x1dba	;r3 As==00
    60e6:	5a 0e       	rlam	#4,	r10	
    60e8:	5a 02       	rlam	#1,	r10	
    60ea:	1f 42 50 03 	mov	&0x0350,r15	
    60ee:	5e 0e       	rlam	#4,	r14	
    60f0:	5e 02       	rlam	#1,	r14	
    60f2:	0d 4f       	mov	r15,	r13	
    60f4:	0d 8e       	sub	r14,	r13	
    60f6:	0d 9a       	cmp	r10,	r13	
    60f8:	01 28       	jnc	$+4      	;abs 0x60fc
    60fa:	04 3c       	jmp	$+10     	;abs 0x6104
    60fc:	0a 8d       	sub	r13,	r10	
    60fe:	3a 90 03 00 	cmp	#3,	r10	;#0x0003
    6102:	06 2c       	jc	$+14     	;abs 0x6110
    6104:	1f 42 50 03 	mov	&0x0350,r15	
    6108:	2f 53       	incd	r15		
    610a:	82 4f 52 03 	mov	r15,	&0x0352	
    610e:	03 3c       	jmp	$+8      	;abs 0x6116
    6110:	0a 5f       	add	r15,	r10	
    6112:	82 4a 52 03 	mov	r10,	&0x0352	
    6116:	92 c3 42 03 	bic	#1,	&0x0342	;r3 As==01
    611a:	b2 d0 10 00 42 03 	bis	#16,	&0x0342	;#0x0010
    6120:	1a 17       	popm	#2,	r11	
    6122:	30 41       	ret			

00006124 <Msp430TimerCapComP__0__Event__fired>:
    6124:	1f 42 42 03 	mov	&0x0342,r15	
    6128:	8f 10       	swpb	r15		
    612a:	5f f3       	and.b	#1,	r15	;r3 As==01
    612c:	03 24       	jz	$+8      	;abs 0x6134
    612e:	1f 42 52 03 	mov	&0x0352,r15	
    6132:	30 41       	ret			
    6134:	b2 f0 ef ff 42 03 	and	#-17,	&0x0342	;#0xffef
    613a:	82 93 b8 1d 	tst	&0x1db8	
    613e:	07 20       	jnz	$+16     	;abs 0x614e
    6140:	82 93 ba 1d 	tst	&0x1dba	
    6144:	04 20       	jnz	$+10     	;abs 0x614e
    6146:	6f 42       	mov.b	#4,	r15	;r2 As==10
    6148:	b0 12 62 4d 	call	#0x4d62	
    614c:	30 41       	ret			
    614e:	b0 12 4c 60 	call	#0x604c	
    6152:	30 41       	ret			

00006154 <TransformAlarmC__1__set_alarm>:
    6154:	1b 15       	pushm	#2,	r11	
    6156:	b0 12 0c 4d 	call	#0x4d0c	
    615a:	1a 42 70 1c 	mov	&0x1c70,r10	
    615e:	1b 42 72 1c 	mov	&0x1c72,r11	
    6162:	0c 4a       	mov	r10,	r12	
    6164:	0d 4b       	mov	r11,	r13	
    6166:	1c 52 32 1d 	add	&0x1d32,r12	
    616a:	1d 62 34 1d 	addc	&0x1d34,r13	
    616e:	0f 9b       	cmp	r11,	r15	
    6170:	09 28       	jnc	$+20     	;abs 0x6184
    6172:	02 20       	jnz	$+6      	;abs 0x6178
    6174:	0e 9a       	cmp	r10,	r14	
    6176:	06 28       	jnc	$+14     	;abs 0x6184
    6178:	0d 9b       	cmp	r11,	r13	
    617a:	10 28       	jnc	$+34     	;abs 0x619c
    617c:	09 20       	jnz	$+20     	;abs 0x6190
    617e:	0c 9a       	cmp	r10,	r12	
    6180:	0d 28       	jnc	$+28     	;abs 0x619c
    6182:	06 3c       	jmp	$+14     	;abs 0x6190
    6184:	0d 9b       	cmp	r11,	r13	
    6186:	04 28       	jnc	$+10     	;abs 0x6190
    6188:	0b 9d       	cmp	r13,	r11	
    618a:	27 28       	jnc	$+80     	;abs 0x61da
    618c:	0c 9a       	cmp	r10,	r12	
    618e:	25 2c       	jc	$+76     	;abs 0x61da
    6190:	0f 9d       	cmp	r13,	r15	
    6192:	04 28       	jnc	$+10     	;abs 0x619c
    6194:	0d 9f       	cmp	r15,	r13	
    6196:	21 28       	jnc	$+68     	;abs 0x61da
    6198:	0e 9c       	cmp	r12,	r14	
    619a:	1f 2c       	jc	$+64     	;abs 0x61da
    619c:	0a 4c       	mov	r12,	r10	
    619e:	0b 4d       	mov	r13,	r11	
    61a0:	0a 8e       	sub	r14,	r10	
    61a2:	0b 7f       	subc	r15,	r11	
    61a4:	0b 93       	tst	r11		
    61a6:	03 20       	jnz	$+8      	;abs 0x61ae
    61a8:	3a 90 01 04 	cmp	#1025,	r10	;#0x0401
    61ac:	18 28       	jnc	$+50     	;abs 0x61de
    61ae:	0c 4e       	mov	r14,	r12	
    61b0:	0d 4f       	mov	r15,	r13	
    61b2:	3c 50 00 04 	add	#1024,	r12	;#0x0400
    61b6:	0d 63       	adc	r13		
    61b8:	82 4c 70 1c 	mov	r12,	&0x1c70	
    61bc:	82 4d 72 1c 	mov	r13,	&0x1c72	
    61c0:	0c 4a       	mov	r10,	r12	
    61c2:	0d 4b       	mov	r11,	r13	
    61c4:	3c 50 00 fc 	add	#-1024,	r12	;#0xfc00
    61c8:	3d 63       	addc	#-1,	r13	;r3 As==11
    61ca:	82 4c 32 1d 	mov	r12,	&0x1d32	
    61ce:	82 4d 34 1d 	mov	r13,	&0x1d34	
    61d2:	3a 40 00 04 	mov	#1024,	r10	;#0x0400
    61d6:	0b 43       	clr	r11		
    61d8:	0a 3c       	jmp	$+22     	;abs 0x61ee
    61da:	0a 43       	clr	r10		
    61dc:	0b 43       	clr	r11		
    61de:	82 4c 70 1c 	mov	r12,	&0x1c70	
    61e2:	82 4d 72 1c 	mov	r13,	&0x1c72	
    61e6:	82 43 32 1d 	mov	#0,	&0x1d32	;r3 As==00
    61ea:	82 43 34 1d 	mov	#0,	&0x1d34	;r3 As==00
    61ee:	5a 0e       	rlam	#4,	r10	
    61f0:	5a 02       	rlam	#1,	r10	
    61f2:	1f 42 50 03 	mov	&0x0350,r15	
    61f6:	5e 0e       	rlam	#4,	r14	
    61f8:	5e 02       	rlam	#1,	r14	
    61fa:	0d 4f       	mov	r15,	r13	
    61fc:	0d 8e       	sub	r14,	r13	
    61fe:	0d 9a       	cmp	r10,	r13	
    6200:	01 28       	jnc	$+4      	;abs 0x6204
    6202:	04 3c       	jmp	$+10     	;abs 0x620c
    6204:	0a 8d       	sub	r13,	r10	
    6206:	3a 90 03 00 	cmp	#3,	r10	;#0x0003
    620a:	06 2c       	jc	$+14     	;abs 0x6218
    620c:	1f 42 50 03 	mov	&0x0350,r15	
    6210:	2f 53       	incd	r15		
    6212:	82 4f 56 03 	mov	r15,	&0x0356	
    6216:	03 3c       	jmp	$+8      	;abs 0x621e
    6218:	0a 5f       	add	r15,	r10	
    621a:	82 4a 56 03 	mov	r10,	&0x0356	
    621e:	92 c3 46 03 	bic	#1,	&0x0346	;r3 As==01
    6222:	b2 d0 10 00 46 03 	bis	#16,	&0x0346	;#0x0010
    6228:	1a 17       	popm	#2,	r11	
    622a:	30 41       	ret			

0000622c <AdcStreamP__nextAlarm>:
    622c:	92 42 40 22 70 1c 	mov	&0x2240,&0x1c70	
    6232:	92 42 42 22 72 1c 	mov	&0x2242,&0x1c72	
    6238:	92 42 d4 1f 32 1d 	mov	&0x1fd4,&0x1d32	
    623e:	92 42 d6 1f 34 1d 	mov	&0x1fd6,&0x1d34	
    6244:	b0 12 54 61 	call	#0x6154	
    6248:	92 52 d4 1f 40 22 	add	&0x1fd4,&0x2240	
    624e:	92 62 d6 1f 42 22 	addc	&0x1fd6,&0x2242	
    6254:	30 41       	ret			

00006256 <AdcStreamP__nextBuffer>:
    6256:	0b 12       	push	r11		
    6258:	0b 42       	mov	r2,	r11	
    625a:	3b f2       	and	#8,	r11	;r2 As==11
    625c:	32 c2       	dint			
    625e:	03 43       	nop			
    6260:	5d 42 00 1c 	mov.b	&0x1c00,r13	
    6264:	5d 02       	rlam	#1,	r13	
    6266:	0c 4d       	mov	r13,	r12	
    6268:	3c 50 e2 1c 	add	#7394,	r12	;#0x1ce2
    626c:	2e 4c       	mov	@r12,	r14	
    626e:	0e 93       	tst	r14		
    6270:	0a 20       	jnz	$+22     	;abs 0x6286
    6272:	8d 43 4c 21 	mov	#0,	8524(r13);r3 As==00, 0x214c(r13)
    6276:	7f 40 20 00 	mov.b	#32,	r15	;#0x0020
    627a:	b0 12 62 4d 	call	#0x4d62	
    627e:	0b 93       	tst	r11		
    6280:	18 24       	jz	$+50     	;abs 0x62b2
    6282:	32 d2       	eint			
    6284:	16 3c       	jmp	$+46     	;abs 0x62b2
    6286:	9c 4e 02 00 00 00 	mov	2(r14),	0(r12)	;0x0002(r14), 0x0000(r12)
    628c:	8e 93 02 00 	tst	2(r14)		;0x0002(r14)
    6290:	02 20       	jnz	$+6      	;abs 0x6296
    6292:	8d 4c 4c 21 	mov	r12,	8524(r13);0x214c(r13)
    6296:	a2 4e 32 20 	mov	@r14,	&0x2032	
    629a:	82 4e 3e 21 	mov	r14,	&0x213e	
    629e:	82 4e da 1c 	mov	r14,	&0x1cda	
    62a2:	4f 93       	tst.b	r15		
    62a4:	02 24       	jz	$+6      	;abs 0x62aa
    62a6:	b0 12 2c 62 	call	#0x622c	
    62aa:	0b 93       	tst	r11		
    62ac:	04 24       	jz	$+10     	;abs 0x62b6
    62ae:	32 d2       	eint			
    62b0:	02 3c       	jmp	$+6      	;abs 0x62b6
    62b2:	1f 43       	mov	#1,	r15	;r3 As==01
    62b4:	01 3c       	jmp	$+4      	;abs 0x62b8
    62b6:	0f 43       	clr	r15		
    62b8:	3b 41       	pop	r11		
    62ba:	30 41       	ret			

000062bc <Msp430TimerCapComP__1__Event__fired>:
    62bc:	31 82       	sub	#8,	r1	;r2 As==11
    62be:	1f 42 44 03 	mov	&0x0344,r15	
    62c2:	8f 10       	swpb	r15		
    62c4:	5f f3       	and.b	#1,	r15	;r3 As==01
    62c6:	03 24       	jz	$+8      	;abs 0x62ce
    62c8:	1f 42 54 03 	mov	&0x0354,r15	
    62cc:	3d 3c       	jmp	$+124    	;abs 0x6348
    62ce:	b2 f0 ef ff 44 03 	and	#-17,	&0x0344	;#0xffef
    62d4:	0d 41       	mov	r1,	r13	
    62d6:	0e 41       	mov	r1,	r14	
    62d8:	3e 50 06 00 	add	#6,	r14	;#0x0006
    62dc:	0f 41       	mov	r1,	r15	
    62de:	2f 52       	add	#4,	r15	;r2 As==10
    62e0:	b0 12 74 48 	call	#0x4874	
    62e4:	1c 42 f2 1c 	mov	&0x1cf2,r12	
    62e8:	1d 42 f4 1c 	mov	&0x1cf4,r13	
    62ec:	2c 81       	sub	@r1,	r12	
    62ee:	1d 71 02 00 	subc	2(r1),	r13	;0x0002(r1)
    62f2:	0e 4c       	mov	r12,	r14	
    62f4:	0f 4d       	mov	r13,	r15	
    62f6:	0e 4c       	mov	r12,	r14	
    62f8:	8e 10       	swpb	r14		
    62fa:	8f 10       	swpb	r15		
    62fc:	4e ef       	xor.b	r15,	r14	
    62fe:	0e ef       	xor	r15,	r14	
    6300:	4f 4f       	mov.b	r15,	r15	
    6302:	12 c3       	clrc			
    6304:	0f 10       	rrc	r15		
    6306:	0e 10       	rrc	r14		
    6308:	12 c3       	clrc			
    630a:	0f 10       	rrc	r15		
    630c:	0e 10       	rrc	r14		
    630e:	12 c3       	clrc			
    6310:	0f 10       	rrc	r15		
    6312:	0e 10       	rrc	r14		
    6314:	1f 42 90 03 	mov	&0x0390,r15	
    6318:	0d 4f       	mov	r15,	r13	
    631a:	1d 81 06 00 	sub	6(r1),	r13	;0x0006(r1)
    631e:	0d 9e       	cmp	r14,	r13	
    6320:	01 28       	jnc	$+4      	;abs 0x6324
    6322:	04 3c       	jmp	$+10     	;abs 0x632c
    6324:	0e 8d       	sub	r13,	r14	
    6326:	3e 90 03 00 	cmp	#3,	r14	;#0x0003
    632a:	06 2c       	jc	$+14     	;abs 0x6338
    632c:	1f 42 90 03 	mov	&0x0390,r15	
    6330:	2f 53       	incd	r15		
    6332:	82 4f 96 03 	mov	r15,	&0x0396	
    6336:	03 3c       	jmp	$+8      	;abs 0x633e
    6338:	0e 5f       	add	r15,	r14	
    633a:	82 4e 96 03 	mov	r14,	&0x0396	
    633e:	92 c3 86 03 	bic	#1,	&0x0386	;r3 As==01
    6342:	b2 d0 10 00 86 03 	bis	#16,	&0x0386	;#0x0010
    6348:	31 52       	add	#8,	r1	;r2 As==11
    634a:	30 41       	ret			

0000634c <SimpleArbiterP__1__Resource__request>:
    634c:	0b 12       	push	r11		
    634e:	0b 42       	mov	r2,	r11	
    6350:	3b f2       	and	#8,	r11	;r2 As==11
    6352:	32 c2       	dint			
    6354:	03 43       	nop			
    6356:	c2 93 46 1c 	tst.b	&0x1c46	
    635a:	0c 20       	jnz	$+26     	;abs 0x6374
    635c:	d2 43 46 1c 	mov.b	#1,	&0x1c46	;r3 As==01
    6360:	c2 4f ca 1d 	mov.b	r15,	&0x1dca	
    6364:	7f 40 1e 00 	mov.b	#30,	r15	;#0x001e
    6368:	b0 12 62 4d 	call	#0x4d62	
    636c:	0b 93       	tst	r11		
    636e:	1b 24       	jz	$+56     	;abs 0x63a6
    6370:	32 d2       	eint			
    6372:	19 3c       	jmp	$+52     	;abs 0x63a6
    6374:	4e 4f       	mov.b	r15,	r14	
    6376:	5e 0b       	rrum	#3,	r14	
    6378:	5c 4e c8 1e 	mov.b	7880(r14),r12	;0x1ec8(r14)
    637c:	7f f0 07 00 	and.b	#7,	r15	;#0x0007
    6380:	1d 43       	mov	#1,	r13	;r3 As==01
    6382:	03 24       	jz	$+8      	;abs 0x638a
    6384:	7f 53       	add.b	#-1,	r15	;r3 As==11
    6386:	cf 18 0d 5d 	.rpt	r15
				addx	r13,	r13	
    638a:	4d 4d       	mov.b	r13,	r13	
    638c:	4d bc       	bit.b	r12,	r13	
    638e:	05 20       	jnz	$+12     	;abs 0x639a
    6390:	4d dc       	bis.b	r12,	r13	
    6392:	ce 4d c8 1e 	mov.b	r13,	7880(r14);0x1ec8(r14)
    6396:	0f 43       	clr	r15		
    6398:	02 3c       	jmp	$+6      	;abs 0x639e
    639a:	3f 40 05 00 	mov	#5,	r15	;#0x0005
    639e:	0b 93       	tst	r11		
    63a0:	03 24       	jz	$+8      	;abs 0x63a8
    63a2:	32 d2       	eint			
    63a4:	01 3c       	jmp	$+4      	;abs 0x63a8
    63a6:	0f 43       	clr	r15		
    63a8:	3b 41       	pop	r11		
    63aa:	30 41       	ret			

000063ac <Msp430RefVoltArbiterImplP__AdcResource__request>:
    63ac:	5f 93       	cmp.b	#1,	r15	;r3 As==01
    63ae:	05 24       	jz	$+12     	;abs 0x63ba
    63b0:	03 28       	jnc	$+8      	;abs 0x63b8
    63b2:	6f 93       	cmp.b	#2,	r15	;r3 As==10
    63b4:	05 20       	jnz	$+12     	;abs 0x63c0
    63b6:	01 3c       	jmp	$+4      	;abs 0x63ba
    63b8:	4f 43       	clr.b	r15		
    63ba:	b0 12 4c 63 	call	#0x634c	
    63be:	30 41       	ret			
    63c0:	1f 43       	mov	#1,	r15	;r3 As==01
    63c2:	30 41       	ret			

000063c4 <CUSPBaseRecorderP__BatteryRead__readDone>:
    63c4:	0f 93       	tst	r15		
    63c6:	0c 20       	jnz	$+26     	;abs 0x63e0
    63c8:	0f 42       	mov	r2,	r15	
    63ca:	32 c2       	dint			
    63cc:	03 43       	nop			
    63ce:	82 4e 26 1c 	mov	r14,	&0x1c26	
    63d2:	3f f2       	and	#8,	r15	;r2 As==11
    63d4:	01 24       	jz	$+4      	;abs 0x63d8
    63d6:	32 d2       	eint			
    63d8:	7f 40 06 00 	mov.b	#6,	r15	;#0x0006
    63dc:	b0 12 62 4d 	call	#0x4d62	
    63e0:	30 41       	ret			

000063e2 <ActiveMessageLayerP__0__AMSend__send>:
    63e2:	2b 15       	pushm	#3,	r11	
    63e4:	49 4f       	mov.b	r15,	r9	
    63e6:	0a 4e       	mov	r14,	r10	
    63e8:	0b 4d       	mov	r13,	r11	
    63ea:	7c 90 33 00 	cmp.b	#51,	r12	;#0x0033
    63ee:	74 2c       	jc	$+234    	;abs 0x64d8
    63f0:	5d 4d 02 00 	mov.b	2(r13),	r13	;0x0002(r13)
    63f4:	8d 10       	swpb	r13		
    63f6:	5f 4b 01 00 	mov.b	1(r11),	r15	;0x0001(r11)
    63fa:	0d df       	bis	r15,	r13	
    63fc:	0f 4d       	mov	r13,	r15	
    63fe:	3f f0 47 cc 	and	#-13241,r15	;#0xcc47
    6402:	3f 90 41 88 	cmp	#-30655,r15	;#0x8841
    6406:	09 24       	jz	$+20     	;abs 0x641a
    6408:	3d f0 30 00 	and	#48,	r13	;#0x0030
    640c:	7d d0 41 00 	bis.b	#65,	r13	;#0x0041
    6410:	cb 4d 01 00 	mov.b	r13,	1(r11)	;0x0001(r11)
    6414:	fb 40 88 ff 02 00 	mov.b	#-120,	2(r11)	;#0xff88, 0x0002(r11)
    641a:	7c 50 0d 00 	add.b	#13,	r12	;#0x000d
    641e:	cb 4c 00 00 	mov.b	r12,	0(r11)	;0x0000(r11)
    6422:	b0 12 44 51 	call	#0x5144	
    6426:	cb 4f 08 00 	mov.b	r15,	8(r11)	;0x0008(r11)
    642a:	8f 10       	swpb	r15		
    642c:	cb 4f 09 00 	mov.b	r15,	9(r11)	;0x0009(r11)
    6430:	0d 42       	mov	r2,	r13	
    6432:	32 c2       	dint			
    6434:	03 43       	nop			
    6436:	5f 42 23 1c 	mov.b	&0x1c23,r15	
    643a:	3d f2       	and	#8,	r13	;r2 As==11
    643c:	01 24       	jz	$+4      	;abs 0x6440
    643e:	32 d2       	eint			
    6440:	cb 4f 04 00 	mov.b	r15,	4(r11)	;0x0004(r11)
    6444:	cb 43 05 00 	mov.b	#0,	5(r11)	;r3 As==00, 0x0005(r11)
    6448:	cb 49 0b 00 	mov.b	r9,	11(r11)	;0x000b(r11)
    644c:	cb 4a 06 00 	mov.b	r10,	6(r11)	;0x0006(r11)
    6450:	8a 10       	swpb	r10		
    6452:	cb 4a 07 00 	mov.b	r10,	7(r11)	;0x0007(r11)
    6456:	0f 42       	mov	r2,	r15	
    6458:	3f f2       	and	#8,	r15	;r2 As==11
    645a:	32 c2       	dint			
    645c:	03 43       	nop			
    645e:	c2 93 62 1c 	tst.b	&0x1c62	
    6462:	08 20       	jnz	$+18     	;abs 0x6474
    6464:	e2 43 62 1c 	mov.b	#2,	&0x1c62	;r3 As==10
    6468:	c2 43 20 1c 	mov.b	#0,	&0x1c20	;r3 As==00
    646c:	0f 93       	tst	r15		
    646e:	41 24       	jz	$+132    	;abs 0x64f2
    6470:	32 d2       	eint			
    6472:	3f 3c       	jmp	$+128    	;abs 0x64f2
    6474:	0f 93       	tst	r15		
    6476:	33 24       	jz	$+104    	;abs 0x64de
    6478:	32 d2       	eint			
    647a:	31 3c       	jmp	$+100    	;abs 0x64de
    647c:	b0 12 84 57 	call	#0x5784	
    6480:	0f 4b       	mov	r11,	r15	
    6482:	48 3c       	jmp	$+146    	;abs 0x6514
    6484:	d2 43 62 1c 	mov.b	#1,	&0x1c62	;r3 As==01
    6488:	c2 43 2d 1d 	mov.b	#0,	&0x1d2d	;r3 As==00
    648c:	7f 40 07 00 	mov.b	#7,	r15	;#0x0007
    6490:	b0 12 62 4d 	call	#0x4d62	
    6494:	0b 93       	tst	r11		
    6496:	3d 24       	jz	$+124    	;abs 0x6512
    6498:	32 d2       	eint			
    649a:	3b 3c       	jmp	$+120    	;abs 0x6512
    649c:	1f 43       	mov	#1,	r15	;r3 As==01
    649e:	f2 93 de 1c 	cmp.b	#-1,	&0x1cde	;r3 As==11
    64a2:	04 20       	jnz	$+10     	;abs 0x64ac
    64a4:	c2 93 21 1c 	tst.b	&0x1c21	
    64a8:	01 24       	jz	$+4      	;abs 0x64ac
    64aa:	0f 43       	clr	r15		
    64ac:	4f 93       	tst.b	r15		
    64ae:	0e 20       	jnz	$+30     	;abs 0x64cc
    64b0:	f2 93 22 1c 	cmp.b	#-1,	&0x1c22	;r3 As==11
    64b4:	03 20       	jnz	$+8      	;abs 0x64bc
    64b6:	c2 43 22 1c 	mov.b	#0,	&0x1c22	;r3 As==00
    64ba:	04 3c       	jmp	$+10     	;abs 0x64c4
    64bc:	5f 42 21 1c 	mov.b	&0x1c21,r15	
    64c0:	cf 43 de 1c 	mov.b	#0,	7390(r15);r3 As==00, 0x1cde(r15)
    64c4:	c2 43 21 1c 	mov.b	#0,	&0x1c21	;r3 As==00
    64c8:	0f 43       	clr	r15		
    64ca:	02 3c       	jmp	$+6      	;abs 0x64d0
    64cc:	3f 40 05 00 	mov	#5,	r15	;#0x0005
    64d0:	0b 93       	tst	r11		
    64d2:	20 24       	jz	$+66     	;abs 0x6514
    64d4:	32 d2       	eint			
    64d6:	1e 3c       	jmp	$+62     	;abs 0x6514
    64d8:	3f 40 06 00 	mov	#6,	r15	;#0x0006
    64dc:	1b 3c       	jmp	$+56     	;abs 0x6514
    64de:	82 4b 30 1d 	mov	r11,	&0x1d30	
    64e2:	0b 42       	mov	r2,	r11	
    64e4:	3b f2       	and	#8,	r11	;r2 As==11
    64e6:	32 c2       	dint			
    64e8:	03 43       	nop			
    64ea:	c2 93 62 1c 	tst.b	&0x1c62	
    64ee:	ca 27       	jz	$-106    	;abs 0x6484
    64f0:	d5 3f       	jmp	$-84     	;abs 0x649c
    64f2:	fb 40 3f 00 0a 00 	mov.b	#63,	10(r11)	;#0x003f, 0x000a(r11)
    64f8:	5f 42 74 1c 	mov.b	&0x1c74,r15	
    64fc:	5f 53       	inc.b	r15		
    64fe:	c2 4f 74 1c 	mov.b	r15,	&0x1c74	
    6502:	cb 4f 03 00 	mov.b	r15,	3(r11)	;0x0003(r11)
    6506:	0f 4b       	mov	r11,	r15	
    6508:	b0 12 d6 56 	call	#0x56d6	
    650c:	0b 4f       	mov	r15,	r11	
    650e:	0f 93       	tst	r15		
    6510:	b5 23       	jnz	$-148    	;abs 0x647c
    6512:	0f 43       	clr	r15		
    6514:	29 17       	popm	#3,	r11	
    6516:	30 41       	ret			

00006518 <AMQueueImplP__0__tryToSend>:
    6518:	c2 43 03 1c 	mov.b	#0,	&0x1c03	;r3 As==00
    651c:	82 93 6c 1e 	tst	&0x1e6c	
    6520:	04 24       	jz	$+10     	;abs 0x652a
    6522:	5f 42 5a 21 	mov.b	&0x215a,r15	
    6526:	1f f3       	and	#1,	r15	;r3 As==01
    6528:	02 24       	jz	$+6      	;abs 0x652e
    652a:	d2 43 03 1c 	mov.b	#1,	&0x1c03	;r3 As==01
    652e:	c2 93 03 1c 	tst.b	&0x1c03	
    6532:	15 20       	jnz	$+44     	;abs 0x655e
    6534:	1d 42 6c 1e 	mov	&0x1e6c,r13	
    6538:	5f 4d 07 00 	mov.b	7(r13),	r15	;0x0007(r13)
    653c:	8f 10       	swpb	r15		
    653e:	5e 4d 06 00 	mov.b	6(r13),	r14	;0x0006(r13)
    6542:	6c 4d       	mov.b	@r13,	r12	
    6544:	7c 50 f3 ff 	add.b	#-13,	r12	;#0xfff3
    6548:	0e df       	bis	r15,	r14	
    654a:	5f 4d 0b 00 	mov.b	11(r13),r15	;0x000b(r13)
    654e:	b0 12 e2 63 	call	#0x63e2	
    6552:	0f 93       	tst	r15		
    6554:	04 24       	jz	$+10     	;abs 0x655e
    6556:	7f 40 1c 00 	mov.b	#28,	r15	;#0x001c
    655a:	b0 12 62 4d 	call	#0x4d62	
    655e:	30 41       	ret			

00006560 <AMQueueImplP__0__AMSend__sendDone.isra.327>:
    6560:	0b 12       	push	r11		
    6562:	21 83       	decd	r1		
    6564:	c2 93 03 1c 	tst.b	&0x1c03	
    6568:	0e 20       	jnz	$+30     	;abs 0x6586
    656a:	1b 42 6c 1e 	mov	&0x1e6c,r11	
    656e:	0b 9f       	cmp	r15,	r11	
    6570:	0a 20       	jnz	$+22     	;abs 0x6586
    6572:	82 43 6c 1e 	mov	#0,	&0x1e6c	;r3 As==00
    6576:	81 4e 00 00 	mov	r14,	0(r1)	;0x0000(r1)
    657a:	b0 12 18 65 	call	#0x6518	
    657e:	2e 41       	mov	@r1,	r14	
    6580:	0f 4b       	mov	r11,	r15	
    6582:	b0 12 a6 5a 	call	#0x5aa6	
    6586:	21 53       	incd	r1		
    6588:	3b 41       	pop	r11		
    658a:	30 41       	ret			

0000658c <TimeSyncMessageLayerP__0__TimeSyncAMSendRadio__send.constprop.404>:
    658c:	2b 15       	pushm	#3,	r11	
    658e:	0b 4e       	mov	r14,	r11	
    6590:	49 4d       	mov.b	r13,	r9	
    6592:	4a 4d       	mov.b	r13,	r10	
    6594:	3a 50 0c 00 	add	#12,	r10	;#0x000c
    6598:	0a 5e       	add	r14,	r10	
    659a:	ca 4f 00 00 	mov.b	r15,	0(r10)	;0x0000(r10)
    659e:	1d 41 08 00 	mov	8(r1),	r13	;0x0008(r1)
    65a2:	1e 41 0a 00 	mov	10(r1),	r14	;0x000a(r1)
    65a6:	0f 4a       	mov	r10,	r15	
    65a8:	1f 53       	inc	r15		
    65aa:	b0 12 9c 49 	call	#0x499c	
    65ae:	fb d0 10 00 44 00 	bis.b	#16,	68(r11)	;#0x0010, 0x0044(r11)
    65b4:	1f 42 1c 1c 	mov	&0x1c1c,r15	
    65b8:	2f 93       	cmp	#2,	r15	;r3 As==10
    65ba:	01 2c       	jc	$+4      	;abs 0x65be
    65bc:	0f 43       	clr	r15		
    65be:	8b 4f 3e 00 	mov	r15,	62(r11)	;0x003e(r11)
    65c2:	fb 43 06 00 	mov.b	#-1,	6(r11)	;r3 As==11, 0x0006(r11)
    65c6:	fb 43 07 00 	mov.b	#-1,	7(r11)	;r3 As==11, 0x0007(r11)
    65ca:	fb 40 3d 00 0b 00 	mov.b	#61,	11(r11)	;#0x003d, 0x000b(r11)
    65d0:	82 93 6c 1e 	tst	&0x1e6c	
    65d4:	1e 20       	jnz	$+62     	;abs 0x6612
    65d6:	82 4b 6c 1e 	mov	r11,	&0x1e6c	
    65da:	4f 49       	mov.b	r9,	r15	
    65dc:	7f 50 12 00 	add.b	#18,	r15	;#0x0012
    65e0:	cb 4f 00 00 	mov.b	r15,	0(r11)	;0x0000(r11)
    65e4:	c2 93 03 1c 	tst.b	&0x1c03	
    65e8:	02 20       	jnz	$+6      	;abs 0x65ee
    65ea:	0f 43       	clr	r15		
    65ec:	14 3c       	jmp	$+42     	;abs 0x6616
    65ee:	c2 43 03 1c 	mov.b	#0,	&0x1c03	;r3 As==00
    65f2:	4c 49       	mov.b	r9,	r12	
    65f4:	7c 50 05 00 	add.b	#5,	r12	;#0x0005
    65f8:	0d 4b       	mov	r11,	r13	
    65fa:	3e 43       	mov	#-1,	r14	;r3 As==11
    65fc:	7f 40 3d 00 	mov.b	#61,	r15	;#0x003d
    6600:	b0 12 e2 63 	call	#0x63e2	
    6604:	0f 93       	tst	r15		
    6606:	f1 27       	jz	$-28     	;abs 0x65ea
    6608:	d2 43 03 1c 	mov.b	#1,	&0x1c03	;r3 As==01
    660c:	82 43 6c 1e 	mov	#0,	&0x1e6c	;r3 As==00
    6610:	02 3c       	jmp	$+6      	;abs 0x6616
    6612:	3f 40 05 00 	mov	#5,	r15	;#0x0005
    6616:	29 17       	popm	#3,	r11	
    6618:	30 41       	ret			

0000661a <ConfigStorageP__setFlip>:
    661a:	4d 4f       	mov.b	r15,	r13	
    661c:	5d 0b       	rrum	#3,	r13	
    661e:	7f f0 07 00 	and.b	#7,	r15	;#0x0007
    6622:	4e 93       	tst.b	r14		
    6624:	09 24       	jz	$+20     	;abs 0x6638
    6626:	1e 43       	mov	#1,	r14	;r3 As==01
    6628:	4f 93       	tst.b	r15		
    662a:	03 24       	jz	$+8      	;abs 0x6632
    662c:	7f 53       	add.b	#-1,	r15	;r3 As==11
    662e:	cf 18 0e 5e 	.rpt	r15
				addx	r14,	r14	
    6632:	cd de e5 1c 	bis.b	r14,	7397(r13);0x1ce5(r13)
    6636:	30 41       	ret			
    6638:	1e 43       	mov	#1,	r14	;r3 As==01
    663a:	4f 93       	tst.b	r15		
    663c:	03 24       	jz	$+8      	;abs 0x6644
    663e:	7f 53       	add.b	#-1,	r15	;r3 As==11
    6640:	cf 18 0e 5e 	.rpt	r15
				addx	r14,	r14	
    6644:	cd ce e5 1c 	bic.b	r14,	7397(r13);0x1ce5(r13)
    6648:	30 41       	ret			

0000664a <ConfigStorageP__flip>:
    664a:	0b 12       	push	r11		
    664c:	4b 4f       	mov.b	r15,	r11	
    664e:	b0 12 3a 4a 	call	#0x4a3a	
    6652:	5e 43       	mov.b	#1,	r14	;r3 As==01
    6654:	4f 93       	tst.b	r15		
    6656:	01 24       	jz	$+4      	;abs 0x665a
    6658:	4e 43       	clr.b	r14		
    665a:	4f 4b       	mov.b	r11,	r15	
    665c:	b0 12 1a 66 	call	#0x661a	
    6660:	3b 41       	pop	r11		
    6662:	30 41       	ret			

00006664 <ConfigStorageP__commitSyncDone>:
    6664:	1b 15       	pushm	#2,	r11	
    6666:	4b 4f       	mov.b	r15,	r11	
    6668:	4d 4f       	mov.b	r15,	r13	
    666a:	5d 02       	rlam	#1,	r13	
    666c:	3d 50 f6 20 	add	#8438,	r13	;#0x20f6
    6670:	6c 4d       	mov.b	@r13,	r12	
    6672:	4a 4c       	mov.b	r12,	r10	
    6674:	7a c2       	bic.b	#8,	r10	;r2 As==11
    6676:	cd 4a 00 00 	mov.b	r10,	0(r13)	;0x0000(r13)
    667a:	0e 93       	tst	r14		
    667c:	07 20       	jnz	$+16     	;abs 0x668c
    667e:	7c f0 f0 ff 	and.b	#-16,	r12	;#0xfff0
    6682:	7c d0 03 00 	bis.b	#3,	r12	;#0x0003
    6686:	cd 4c 00 00 	mov.b	r12,	0(r13)	;0x0000(r13)
    668a:	02 3c       	jmp	$+6      	;abs 0x6690
    668c:	b0 12 4a 66 	call	#0x664a	
    6690:	4b 93       	tst.b	r11		
    6692:	02 20       	jnz	$+6      	;abs 0x6698
    6694:	b0 12 aa 4e 	call	#0x4eaa	
    6698:	1a 17       	popm	#2,	r11	
    669a:	30 41       	ret			

0000669c <ArbiterP__1__Resource__request.constprop.380>:
    669c:	0b 12       	push	r11		
    669e:	0f 42       	mov	r2,	r15	
    66a0:	3f f2       	and	#8,	r15	;r2 As==11
    66a2:	32 c2       	dint			
    66a4:	03 43       	nop			
    66a6:	c2 93 33 1c 	tst.b	&0x1c33	
    66aa:	07 20       	jnz	$+16     	;abs 0x66ba
    66ac:	0f 93       	tst	r15		
    66ae:	01 20       	jnz	$+4      	;abs 0x66b2
    66b0:	01 3c       	jmp	$+4      	;abs 0x66b4
    66b2:	32 d2       	eint			
    66b4:	3f 40 05 00 	mov	#5,	r15	;#0x0005
    66b8:	4d 3c       	jmp	$+156    	;abs 0x6754
    66ba:	1e 43       	mov	#1,	r14	;r3 As==01
    66bc:	f2 93 c0 1d 	cmp.b	#-1,	&0x1dc0	;r3 As==11
    66c0:	04 20       	jnz	$+10     	;abs 0x66ca
    66c2:	c2 93 35 1c 	tst.b	&0x1c35	
    66c6:	01 24       	jz	$+4      	;abs 0x66ca
    66c8:	0e 43       	clr	r14		
    66ca:	4e 93       	tst.b	r14		
    66cc:	ef 23       	jnz	$-32     	;abs 0x66ac
    66ce:	f2 93 36 1c 	cmp.b	#-1,	&0x1c36	;r3 As==11
    66d2:	03 20       	jnz	$+8      	;abs 0x66da
    66d4:	c2 43 36 1c 	mov.b	#0,	&0x1c36	;r3 As==00
    66d8:	04 3c       	jmp	$+10     	;abs 0x66e2
    66da:	5e 42 35 1c 	mov.b	&0x1c35,r14	
    66de:	ce 43 c0 1d 	mov.b	#0,	7616(r14);r3 As==00, 0x1dc0(r14)
    66e2:	c2 43 35 1c 	mov.b	#0,	&0x1c35	;r3 As==00
    66e6:	0f 93       	tst	r15		
    66e8:	01 24       	jz	$+4      	;abs 0x66ec
    66ea:	32 d2       	eint			
    66ec:	0b 42       	mov	r2,	r11	
    66ee:	3b f2       	and	#8,	r11	;r2 As==11
    66f0:	32 c2       	dint			
    66f2:	03 43       	nop			
    66f4:	c2 93 68 1e 	tst.b	&0x1e68	
    66f8:	06 24       	jz	$+14     	;abs 0x6706
    66fa:	0b 93       	tst	r11		
    66fc:	01 20       	jnz	$+4      	;abs 0x6700
    66fe:	01 3c       	jmp	$+4      	;abs 0x6702
    6700:	32 d2       	eint			
    6702:	0f 43       	clr	r15		
    6704:	27 3c       	jmp	$+80     	;abs 0x6754
    6706:	d2 43 68 1e 	mov.b	#1,	&0x1e68	;r3 As==01
    670a:	b0 12 64 4b 	call	#0x4b64	
    670e:	c2 4f 33 1c 	mov.b	r15,	&0x1c33	
    6712:	0b 93       	tst	r11		
    6714:	01 24       	jz	$+4      	;abs 0x6718
    6716:	32 d2       	eint			
    6718:	0b 42       	mov	r2,	r11	
    671a:	3b f2       	and	#8,	r11	;r2 As==11
    671c:	32 c2       	dint			
    671e:	03 43       	nop			
    6720:	d2 93 34 1c 	cmp.b	#1,	&0x1c34	;r3 As==01
    6724:	ea 23       	jnz	$-42     	;abs 0x66fa
    6726:	5f 42 68 1e 	mov.b	&0x1e68,r15	
    672a:	4e 4f       	mov.b	r15,	r14	
    672c:	7e 53       	add.b	#-1,	r14	;r3 As==11
    672e:	6e 93       	cmp.b	#2,	r14	;r3 As==10
    6730:	06 2c       	jc	$+14     	;abs 0x673e
    6732:	e2 43 68 1e 	mov.b	#2,	&0x1e68	;r3 As==10
    6736:	5f 43       	mov.b	#1,	r15	;r3 As==01
    6738:	b0 12 62 4d 	call	#0x4d62	
    673c:	de 3f       	jmp	$-66     	;abs 0x66fa
    673e:	7f 90 03 00 	cmp.b	#3,	r15	;#0x0003
    6742:	db 23       	jnz	$-72     	;abs 0x66fa
    6744:	d2 42 33 1c 34 1c 	mov.b	&0x1c33,&0x1c34	
    674a:	f2 43 33 1c 	mov.b	#-1,	&0x1c33	;r3 As==11
    674e:	e2 42 68 1e 	mov.b	#4,	&0x1e68	;r2 As==10
    6752:	d3 3f       	jmp	$-88     	;abs 0x66fa
    6754:	3b 41       	pop	r11		
    6756:	30 41       	ret			

00006758 <HplAt45dbByteC__0__execCommand>:
    6758:	0b 12       	push	r11		
    675a:	1b 41 04 00 	mov	4(r1),	r11	;0x0004(r1)
    675e:	c2 4f 61 1c 	mov.b	r15,	&0x1c61	
    6762:	3f 40 2e 21 	mov	#8494,	r15	;#0x212e
    6766:	cf 4e 00 00 	mov.b	r14,	0(r15)	;0x0000(r15)
    676a:	0e 4c       	mov	r12,	r14	
    676c:	5e 0f       	rrum	#4,	r14	
    676e:	5e 03       	rrum	#1,	r14	
    6770:	cf 4e 01 00 	mov.b	r14,	1(r15)	;0x0001(r15)
    6774:	0e 4b       	mov	r11,	r14	
    6776:	8e 10       	swpb	r14		
    6778:	4c 4c       	mov.b	r12,	r12	
    677a:	5c 0a       	rlam	#3,	r12	
    677c:	4e dc       	bis.b	r12,	r14	
    677e:	cf 4e 02 00 	mov.b	r14,	2(r15)	;0x0002(r15)
    6782:	cf 4b 03 00 	mov.b	r11,	3(r15)	;0x0003(r15)
    6786:	92 41 08 00 d0 1f 	mov	8(r1),	&0x1fd0	;0x0008(r1)
    678c:	92 41 06 00 c2 1d 	mov	6(r1),	&0x1dc2	;0x0006(r1)
    6792:	c2 4d 6c 1d 	mov.b	r13,	&0x1d6c	
    6796:	b0 12 9c 66 	call	#0x669c	
    679a:	3b 41       	pop	r11		
    679c:	30 41       	ret			

0000679e <HplAt45dbByteC__0__HplAt45db__waitIdle>:
    679e:	f2 40 05 00 61 1c 	mov.b	#5,	&0x1c61	;#0x0005
    67a4:	b0 12 9c 66 	call	#0x669c	
    67a8:	30 41       	ret			

000067aa <At45dbP__flushBuffer>:
    67aa:	c2 93 78 1c 	tst.b	&0x1c78	
    67ae:	03 24       	jz	$+8      	;abs 0x67b6
    67b0:	b0 12 9e 67 	call	#0x679e	
    67b4:	30 41       	ret			
    67b6:	5e 42 c7 1e 	mov.b	&0x1ec7,r14	
    67ba:	4f 4e       	mov.b	r14,	r15	
    67bc:	5f 06       	rlam	#2,	r15	
    67be:	1c 4f 1a 1d 	mov	7450(r15),r12	;0x1d1a(r15)
    67c2:	ef b2 1c 1d 	bit.b	#4,	7452(r15);r2 As==10, 0x1d1c(r15)
    67c6:	0f 43       	clr	r15		
    67c8:	0f 6f       	rlc	r15		
    67ca:	4f 93       	tst.b	r15		
    67cc:	05 24       	jz	$+12     	;abs 0x67d8
    67ce:	4e 93       	tst.b	r14		
    67d0:	08 24       	jz	$+18     	;abs 0x67e2
    67d2:	7e 40 88 ff 	mov.b	#-120,	r14	;#0xff88
    67d6:	0a 3c       	jmp	$+22     	;abs 0x67ec
    67d8:	4e 93       	tst.b	r14		
    67da:	06 24       	jz	$+14     	;abs 0x67e8
    67dc:	7e 40 83 ff 	mov.b	#-125,	r14	;#0xff83
    67e0:	05 3c       	jmp	$+12     	;abs 0x67ec
    67e2:	7e 40 89 ff 	mov.b	#-119,	r14	;#0xff89
    67e6:	02 3c       	jmp	$+6      	;abs 0x67ec
    67e8:	7e 40 86 ff 	mov.b	#-122,	r14	;#0xff86
    67ec:	13 12       	push	#1		;r3 As==01
    67ee:	03 12       	push	#0		;r3 As==00
    67f0:	03 12       	push	#0		;r3 As==00
    67f2:	4d 43       	clr.b	r13		
    67f4:	7f 40 09 00 	mov.b	#9,	r15	;#0x0009
    67f8:	b0 12 58 67 	call	#0x6758	
    67fc:	31 50 06 00 	add	#6,	r1	;#0x0006
    6800:	30 41       	ret			

00006802 <At45dbP__checkBuffer>:
    6802:	0b 12       	push	r11		
    6804:	4b 4f       	mov.b	r15,	r11	
    6806:	c2 93 78 1c 	tst.b	&0x1c78	
    680a:	03 24       	jz	$+8      	;abs 0x6812
    680c:	b0 12 9e 67 	call	#0x679e	
    6810:	17 3c       	jmp	$+48     	;abs 0x6840
    6812:	4f 4f       	mov.b	r15,	r15	
    6814:	5f 06       	rlam	#2,	r15	
    6816:	1c 4f 1a 1d 	mov	7450(r15),r12	;0x1d1a(r15)
    681a:	4b 93       	tst.b	r11		
    681c:	03 24       	jz	$+8      	;abs 0x6824
    681e:	7e 40 60 00 	mov.b	#96,	r14	;#0x0060
    6822:	02 3c       	jmp	$+6      	;abs 0x6828
    6824:	7e 40 61 00 	mov.b	#97,	r14	;#0x0061
    6828:	13 12       	push	#1		;r3 As==01
    682a:	03 12       	push	#0		;r3 As==00
    682c:	03 12       	push	#0		;r3 As==00
    682e:	4d 43       	clr.b	r13		
    6830:	7f 40 0a 00 	mov.b	#10,	r15	;#0x000a
    6834:	b0 12 58 67 	call	#0x6758	
    6838:	31 50 06 00 	add	#6,	r1	;#0x0006
    683c:	c2 4b c5 1e 	mov.b	r11,	&0x1ec5	
    6840:	3b 41       	pop	r11		
    6842:	30 41       	ret			

00006844 <ArbiterP__4__Resource__request>:
    6844:	0b 12       	push	r11		
    6846:	0e 42       	mov	r2,	r14	
    6848:	3e f2       	and	#8,	r14	;r2 As==11
    684a:	32 c2       	dint			
    684c:	03 43       	nop			
    684e:	c2 9f 0d 1c 	cmp.b	r15,	&0x1c0d	
    6852:	07 20       	jnz	$+16     	;abs 0x6862
    6854:	0e 93       	tst	r14		
    6856:	01 20       	jnz	$+4      	;abs 0x685a
    6858:	01 3c       	jmp	$+4      	;abs 0x685c
    685a:	32 d2       	eint			
    685c:	3f 40 05 00 	mov	#5,	r15	;#0x0005
    6860:	51 3c       	jmp	$+164    	;abs 0x6904
    6862:	4d 4f       	mov.b	r15,	r13	
    6864:	fd 93 54 21 	cmp.b	#-1,	8532(r13);r3 As==11, 0x2154(r13)
    6868:	06 20       	jnz	$+14     	;abs 0x6876
    686a:	1d 43       	mov	#1,	r13	;r3 As==01
    686c:	c2 9f 0f 1c 	cmp.b	r15,	&0x1c0f	
    6870:	03 24       	jz	$+8      	;abs 0x6878
    6872:	0d 43       	clr	r13		
    6874:	01 3c       	jmp	$+4      	;abs 0x6878
    6876:	1d 43       	mov	#1,	r13	;r3 As==01
    6878:	4d 93       	tst.b	r13		
    687a:	ec 23       	jnz	$-38     	;abs 0x6854
    687c:	f2 93 10 1c 	cmp.b	#-1,	&0x1c10	;r3 As==11
    6880:	03 20       	jnz	$+8      	;abs 0x6888
    6882:	c2 4f 10 1c 	mov.b	r15,	&0x1c10	
    6886:	04 3c       	jmp	$+10     	;abs 0x6890
    6888:	5d 42 0f 1c 	mov.b	&0x1c0f,r13	
    688c:	cd 4f 54 21 	mov.b	r15,	8532(r13);0x2154(r13)
    6890:	c2 4f 0f 1c 	mov.b	r15,	&0x1c0f	
    6894:	0e 93       	tst	r14		
    6896:	01 24       	jz	$+4      	;abs 0x689a
    6898:	32 d2       	eint			
    689a:	0b 42       	mov	r2,	r11	
    689c:	3b f2       	and	#8,	r11	;r2 As==11
    689e:	32 c2       	dint			
    68a0:	03 43       	nop			
    68a2:	c2 93 8a 1c 	tst.b	&0x1c8a	
    68a6:	06 24       	jz	$+14     	;abs 0x68b4
    68a8:	0b 93       	tst	r11		
    68aa:	01 20       	jnz	$+4      	;abs 0x68ae
    68ac:	01 3c       	jmp	$+4      	;abs 0x68b0
    68ae:	32 d2       	eint			
    68b0:	0f 43       	clr	r15		
    68b2:	28 3c       	jmp	$+82     	;abs 0x6904
    68b4:	d2 43 8a 1c 	mov.b	#1,	&0x1c8a	;r3 As==01
    68b8:	b0 12 42 4b 	call	#0x4b42	
    68bc:	c2 4f 0d 1c 	mov.b	r15,	&0x1c0d	
    68c0:	0b 93       	tst	r11		
    68c2:	01 24       	jz	$+4      	;abs 0x68c6
    68c4:	32 d2       	eint			
    68c6:	0b 42       	mov	r2,	r11	
    68c8:	3b f2       	and	#8,	r11	;r2 As==11
    68ca:	32 c2       	dint			
    68cc:	03 43       	nop			
    68ce:	e2 93 0e 1c 	cmp.b	#2,	&0x1c0e	;r3 As==10
    68d2:	ea 23       	jnz	$-42     	;abs 0x68a8
    68d4:	5f 42 8a 1c 	mov.b	&0x1c8a,r15	
    68d8:	4e 4f       	mov.b	r15,	r14	
    68da:	7e 53       	add.b	#-1,	r14	;r3 As==11
    68dc:	6e 93       	cmp.b	#2,	r14	;r3 As==10
    68de:	07 2c       	jc	$+16     	;abs 0x68ee
    68e0:	e2 43 8a 1c 	mov.b	#2,	&0x1c8a	;r3 As==10
    68e4:	7f 40 12 00 	mov.b	#18,	r15	;#0x0012
    68e8:	b0 12 62 4d 	call	#0x4d62	
    68ec:	dd 3f       	jmp	$-68     	;abs 0x68a8
    68ee:	7f 90 03 00 	cmp.b	#3,	r15	;#0x0003
    68f2:	da 23       	jnz	$-74     	;abs 0x68a8
    68f4:	d2 42 0d 1c 0e 1c 	mov.b	&0x1c0d,&0x1c0e	
    68fa:	f2 43 0d 1c 	mov.b	#-1,	&0x1c0d	;r3 As==11
    68fe:	e2 42 8a 1c 	mov.b	#4,	&0x1c8a	;r2 As==10
    6902:	d2 3f       	jmp	$-90     	;abs 0x68a8
    6904:	3b 41       	pop	r11		
    6906:	30 41       	ret			

00006908 <BlockStorageP__newRequest>:
    6908:	4b 15       	pushm	#5,	r11	
    690a:	17 41 0e 00 	mov	14(r1),	r7	;0x000e(r1)
    690e:	18 41 10 00 	mov	16(r1),	r8	;0x0010(r1)
    6912:	49 4e       	mov.b	r14,	r9	
    6914:	0a 49       	mov	r9,	r10	
    6916:	5a 06       	rlam	#2,	r10	
    6918:	0b 49       	mov	r9,	r11	
    691a:	5b 0e       	rlam	#4,	r11	
    691c:	0b 8a       	sub	r10,	r11	
    691e:	cb 93 52 1e 	tst.b	7762(r11)	;0x1e52(r11)
    6922:	40 20       	jnz	$+130    	;abs 0x69a4
    6924:	4e 93       	tst.b	r14		
    6926:	03 24       	jz	$+8      	;abs 0x692e
    6928:	0a 43       	clr	r10		
    692a:	0b 43       	clr	r11		
    692c:	02 3c       	jmp	$+6      	;abs 0x6932
    692e:	2a 42       	mov	#4,	r10	;r2 As==10
    6930:	0b 43       	clr	r11		
    6932:	02 12       	push	r2		
    6934:	32 c2       	dint			
    6936:	03 43       	nop			
    6938:	82 4a d4 04 	mov	r10,	&0x04d4	
    693c:	82 4b d6 04 	mov	r11,	&0x04d6	
    6940:	b2 40 10 02 e0 04 	mov	#528,	&0x04e0	;#0x0210
    6946:	82 43 e2 04 	mov	#0,	&0x04e2	;r3 As==00
    694a:	1a 42 ca 04 	mov	&0x04ca,r10	
    694e:	1b 42 cc 04 	mov	&0x04cc,r11	
    6952:	32 41       	pop	r2		
    6954:	0b 9d       	cmp	r13,	r11	
    6956:	29 28       	jnc	$+84     	;abs 0x69aa
    6958:	02 20       	jnz	$+6      	;abs 0x695e
    695a:	0a 9c       	cmp	r12,	r10	
    695c:	26 28       	jnc	$+78     	;abs 0x69aa
    695e:	0a 8c       	sub	r12,	r10	
    6960:	0b 7d       	subc	r13,	r11	
    6962:	0b 98       	cmp	r8,	r11	
    6964:	22 28       	jnc	$+70     	;abs 0x69aa
    6966:	02 20       	jnz	$+6      	;abs 0x696c
    6968:	0a 97       	cmp	r7,	r10	
    696a:	1f 28       	jnc	$+64     	;abs 0x69aa
    696c:	0a 49       	mov	r9,	r10	
    696e:	5a 06       	rlam	#2,	r10	
    6970:	0b 49       	mov	r9,	r11	
    6972:	5b 0e       	rlam	#4,	r11	
    6974:	0b 8a       	sub	r10,	r11	
    6976:	3b 50 52 1e 	add	#7762,	r11	;#0x1e52
    697a:	cb 4f 00 00 	mov.b	r15,	0(r11)	;0x0000(r11)
    697e:	8b 4c 04 00 	mov	r12,	4(r11)	;0x0004(r11)
    6982:	8b 4d 06 00 	mov	r13,	6(r11)	;0x0006(r11)
    6986:	0f 4b       	mov	r11,	r15	
    6988:	3f 52       	add	#8,	r15	;r2 As==11
    698a:	8f 47 00 00 	mov	r7,	0(r15)	;0x0000(r15)
    698e:	8f 48 02 00 	mov	r8,	2(r15)	;0x0002(r15)
    6992:	9b 41 0c 00 02 00 	mov	12(r1),	2(r11)	;0x000c(r1), 0x0002(r11)
    6998:	4e 93       	tst.b	r14		
    699a:	0a 20       	jnz	$+22     	;abs 0x69b0
    699c:	5f 43       	mov.b	#1,	r15	;r3 As==01
    699e:	b0 12 44 68 	call	#0x6844	
    69a2:	06 3c       	jmp	$+14     	;abs 0x69b0
    69a4:	3f 40 05 00 	mov	#5,	r15	;#0x0005
    69a8:	04 3c       	jmp	$+10     	;abs 0x69b2
    69aa:	3f 40 06 00 	mov	#6,	r15	;#0x0006
    69ae:	01 3c       	jmp	$+4      	;abs 0x69b2
    69b0:	0f 43       	clr	r15		
    69b2:	47 17       	popm	#5,	r11	
    69b4:	30 41       	ret			

000069b6 <LogStorageP__endRequest>:
    69b6:	5b 15       	pushm	#6,	r11	
    69b8:	07 4f       	mov	r15,	r7	
    69ba:	5f 42 18 1c 	mov.b	&0x1c18,r15	
    69be:	4a 4f       	mov.b	r15,	r10	
    69c0:	0e 4a       	mov	r10,	r14	
    69c2:	5e 06       	rlam	#2,	r14	
    69c4:	0d 4e       	mov	r14,	r13	
    69c6:	5d 0a       	rlam	#3,	r13	
    69c8:	0d 8e       	sub	r14,	r13	
    69ca:	3d 50 88 20 	add	#8328,	r13	;#0x2088
    69ce:	6b 4d       	mov.b	@r13,	r11	
    69d0:	18 42 c0 1e 	mov	&0x1ec0,r8	
    69d4:	19 42 c2 1e 	mov	&0x1ec2,r9	
    69d8:	16 4d 02 00 	mov	2(r13),	r6	;0x0002(r13)
    69dc:	f2 43 18 1c 	mov.b	#-1,	&0x1c18	;r3 As==11
    69e0:	cd 43 00 00 	mov.b	#0,	0(r13)	;r3 As==00, 0x0000(r13)
    69e4:	4f 93       	tst.b	r15		
    69e6:	02 20       	jnz	$+6      	;abs 0x69ec
    69e8:	b0 12 d0 4f 	call	#0x4fd0	
    69ec:	0e 4a       	mov	r10,	r14	
    69ee:	5e 02       	rlam	#1,	r14	
    69f0:	5a 06       	rlam	#2,	r10	
    69f2:	0f 4a       	mov	r10,	r15	
    69f4:	5f 0a       	rlam	#3,	r15	
    69f6:	0f 8a       	sub	r10,	r15	
    69f8:	ef b3 90 20 	bit.b	#2,	8336(r15);r3 As==10, 0x2090(r15)
    69fc:	0d 43       	clr	r13		
    69fe:	0d 6d       	rlc	r13		
    6a00:	4d de       	bis.b	r14,	r13	
    6a02:	6b 93       	cmp.b	#2,	r11	;r3 As==10
    6a04:	29 24       	jz	$+84     	;abs 0x6a58
    6a06:	6b 92       	cmp.b	#4,	r11	;r2 As==10
    6a08:	2e 24       	jz	$+94     	;abs 0x6a66
    6a0a:	5b 93       	cmp.b	#1,	r11	;r3 As==01
    6a0c:	79 20       	jnz	$+244    	;abs 0x6b00
    6a0e:	5d 93       	cmp.b	#1,	r13	;r3 As==01
    6a10:	77 20       	jnz	$+240    	;abs 0x6b00
    6a12:	07 93       	tst	r7		
    6a14:	05 20       	jnz	$+12     	;abs 0x6a20
    6a16:	c2 43 2a 1c 	mov.b	#0,	&0x1c2a	;r3 As==00
    6a1a:	c2 43 64 1c 	mov.b	#0,	&0x1c64	;r3 As==00
    6a1e:	02 3c       	jmp	$+6      	;abs 0x6a24
    6a20:	e2 43 64 1c 	mov.b	#2,	&0x1c64	;r3 As==10
    6a24:	b0 12 aa 4e 	call	#0x4eaa	
    6a28:	82 43 48 21 	mov	#0,	&0x2148	;r3 As==00
    6a2c:	5f 42 f6 20 	mov.b	&0x20f6,r15	
    6a30:	3f f0 07 00 	and	#7,	r15	;#0x0007
    6a34:	3f 90 03 00 	cmp	#3,	r15	;#0x0003
    6a38:	63 38       	jl	$+200    	;abs 0x6b00
    6a3a:	03 12       	push	#0		;r3 As==00
    6a3c:	30 12 0a 00 	push	#10		;#0x000a
    6a40:	30 12 40 21 	push	#8512		;#0x2140
    6a44:	3c 40 06 00 	mov	#6,	r12	;#0x0006
    6a48:	0d 43       	clr	r13		
    6a4a:	4e 43       	clr.b	r14		
    6a4c:	5f 43       	mov.b	#1,	r15	;r3 As==01
    6a4e:	b0 12 08 69 	call	#0x6908	
    6a52:	31 50 06 00 	add	#6,	r1	;#0x0006
    6a56:	54 3c       	jmp	$+170    	;abs 0x6b00
    6a58:	5d 93       	cmp.b	#1,	r13	;r3 As==01
    6a5a:	52 20       	jnz	$+166    	;abs 0x6b00
    6a5c:	c2 43 2a 1c 	mov.b	#0,	&0x1c2a	;r3 As==00
    6a60:	b0 12 ce 4e 	call	#0x4ece	
    6a64:	4d 3c       	jmp	$+156    	;abs 0x6b00
    6a66:	5d 93       	cmp.b	#1,	r13	;r3 As==01
    6a68:	4b 20       	jnz	$+152    	;abs 0x6b00
    6a6a:	38 90 20 00 	cmp	#32,	r8	;#0x0020
    6a6e:	46 20       	jnz	$+142    	;abs 0x6afc
    6a70:	09 93       	tst	r9		
    6a72:	44 20       	jnz	$+138    	;abs 0x6afc
    6a74:	36 90 02 21 	cmp	#8450,	r6	;#0x2102
    6a78:	41 20       	jnz	$+132    	;abs 0x6afc
    6a7a:	5d 42 02 21 	mov.b	&0x2102,r13	
    6a7e:	0e 46       	mov	r6,	r14	
    6a80:	1e 53       	inc	r14		
    6a82:	3f 40 82 1e 	mov	#7810,	r15	;#0x1e82
    6a86:	b0 12 90 ba 	call	#0xba90	
    6a8a:	1c 42 92 20 	mov	&0x2092,r12	
    6a8e:	1d 42 94 20 	mov	&0x2094,r13	
    6a92:	f2 b2 90 20 	bit.b	#8,	&0x2090	;r2 As==11
    6a96:	0f 43       	clr	r15		
    6a98:	0f 6f       	rlc	r15		
    6a9a:	4f 93       	tst.b	r15		
    6a9c:	05 24       	jz	$+12     	;abs 0x6aa8
    6a9e:	1e 42 9a 20 	mov	&0x209a,r14	
    6aa2:	1f 42 9c 20 	mov	&0x209c,r15	
    6aa6:	02 3c       	jmp	$+6      	;abs 0x6aac
    6aa8:	0e 43       	clr	r14		
    6aaa:	0f 43       	clr	r15		
    6aac:	0a 4c       	mov	r12,	r10	
    6aae:	0b 4d       	mov	r13,	r11	
    6ab0:	0a 8e       	sub	r14,	r10	
    6ab2:	0b 7f       	subc	r15,	r11	
    6ab4:	0d 4a       	mov	r10,	r13	
    6ab6:	0e 4b       	mov	r11,	r14	
    6ab8:	7f 40 05 00 	mov.b	#5,	r15	;#0x0005
    6abc:	12 c3       	clrc			
    6abe:	0e 10       	rrc	r14		
    6ac0:	0d 10       	rrc	r13		
    6ac2:	7f 53       	add.b	#-1,	r15	;r3 As==11
    6ac4:	fb 23       	jnz	$-8      	;abs 0x6abc
    6ac6:	3f 40 9d 1e 	mov	#7837,	r15	;#0x1e9d
    6aca:	b0 12 9c 49 	call	#0x499c	
    6ace:	b0 12 28 50 	call	#0x5028	
    6ad2:	5e 42 02 21 	mov.b	&0x2102,r14	
    6ad6:	7e 90 33 00 	cmp.b	#51,	r14	;#0x0033
    6ada:	01 28       	jnc	$+4      	;abs 0x6ade
    6adc:	0f 3c       	jmp	$+32     	;abs 0x6afc
    6ade:	c2 43 7c 1e 	mov.b	#0,	&0x1e7c	;r3 As==00
    6ae2:	c2 43 7b 1e 	mov.b	#0,	&0x1e7b	;r3 As==00
    6ae6:	f2 40 90 ff 81 1e 	mov.b	#-112,	&0x1e81	;#0xff90
    6aec:	c2 4e 7f 1e 	mov.b	r14,	&0x1e7f	
    6af0:	3f 40 76 1e 	mov	#7798,	r15	;#0x1e76
    6af4:	b0 12 48 56 	call	#0x5648	
    6af8:	0f 93       	tst	r15		
    6afa:	02 24       	jz	$+6      	;abs 0x6b00
    6afc:	c2 43 2a 1c 	mov.b	#0,	&0x1c2a	;r3 As==00
    6b00:	56 17       	popm	#6,	r11	
    6b02:	30 41       	ret			

00006b04 <ConfigStorageP__computeCrc>:
    6b04:	4f 93       	tst.b	r15		
    6b06:	03 24       	jz	$+8      	;abs 0x6b0e
    6b08:	0c 43       	clr	r12		
    6b0a:	0d 43       	clr	r13		
    6b0c:	02 3c       	jmp	$+6      	;abs 0x6b12
    6b0e:	2c 42       	mov	#4,	r12	;r2 As==10
    6b10:	0d 43       	clr	r13		
    6b12:	02 12       	push	r2		
    6b14:	32 c2       	dint			
    6b16:	03 43       	nop			
    6b18:	82 4c d4 04 	mov	r12,	&0x04d4	
    6b1c:	82 4d d6 04 	mov	r13,	&0x04d6	
    6b20:	b2 40 10 02 e0 04 	mov	#528,	&0x04e0	;#0x0210
    6b26:	82 43 e2 04 	mov	#0,	&0x04e2	;r3 As==00
    6b2a:	1c 42 ca 04 	mov	&0x04ca,r12	
    6b2e:	1d 42 cc 04 	mov	&0x04cc,r13	
    6b32:	32 41       	pop	r2		
    6b34:	2c 83       	decd	r12		
    6b36:	0d 73       	sbc	r13		
    6b38:	1d 15       	pushm	#2,	r13	
    6b3a:	03 12       	push	#0		;r3 As==00
    6b3c:	2c 43       	mov	#2,	r12	;r3 As==10
    6b3e:	0d 43       	clr	r13		
    6b40:	4e 4f       	mov.b	r15,	r14	
    6b42:	7f 40 05 00 	mov.b	#5,	r15	;#0x0005
    6b46:	b0 12 08 69 	call	#0x6908	
    6b4a:	31 50 06 00 	add	#6,	r1	;#0x0006
    6b4e:	30 41       	ret			

00006b50 <ConfigStorageP__ConfigStorage__commit.constprop.413>:
    6b50:	0b 12       	push	r11		
    6b52:	5f 42 f6 20 	mov.b	&0x20f6,r15	
    6b56:	7f f0 07 00 	and.b	#7,	r15	;#0x0007
    6b5a:	4e 4f       	mov.b	r15,	r14	
    6b5c:	3e 90 03 00 	cmp	#3,	r14	;#0x0003
    6b60:	3b 38       	jl	$+120    	;abs 0x6bd8
    6b62:	7f 90 03 00 	cmp.b	#3,	r15	;#0x0003
    6b66:	0d 20       	jnz	$+28     	;abs 0x6b82
    6b68:	03 12       	push	#0		;r3 As==00
    6b6a:	13 12       	push	#1		;r3 As==01
    6b6c:	03 12       	push	#0		;r3 As==00
    6b6e:	0c 43       	clr	r12		
    6b70:	0d 43       	clr	r13		
    6b72:	4e 43       	clr.b	r14		
    6b74:	7f 40 05 00 	mov.b	#5,	r15	;#0x0005
    6b78:	b0 12 08 69 	call	#0x6908	
    6b7c:	31 50 06 00 	add	#6,	r1	;#0x0006
    6b80:	2c 3c       	jmp	$+90     	;abs 0x6bda
    6b82:	4f 43       	clr.b	r15		
    6b84:	b0 12 4a 66 	call	#0x664a	
    6b88:	3f 40 81 20 	mov	#8321,	r15	;#0x2081
    6b8c:	b0 12 c8 49 	call	#0x49c8	
    6b90:	0d 4e       	mov	r14,	r13	
    6b92:	0e 4f       	mov	r15,	r14	
    6b94:	1d 53       	inc	r13		
    6b96:	0e 63       	adc	r14		
    6b98:	3f 40 81 20 	mov	#8321,	r15	;#0x2081
    6b9c:	b0 12 9c 49 	call	#0x499c	
    6ba0:	3b 40 81 20 	mov	#8321,	r11	;#0x2081
    6ba4:	0f 43       	clr	r15		
    6ba6:	7e 4b       	mov.b	@r11+,	r14	
    6ba8:	b0 12 ae 4a 	call	#0x4aae	
    6bac:	3b 90 85 20 	cmp	#8325,	r11	;#0x2085
    6bb0:	fa 23       	jnz	$-10     	;abs 0x6ba6
    6bb2:	03 12       	push	#0		;r3 As==00
    6bb4:	30 12 3a 08 	push	#2106		;#0x083a
    6bb8:	0f 12       	push	r15		
    6bba:	3c 40 06 00 	mov	#6,	r12	;#0x0006
    6bbe:	0d 43       	clr	r13		
    6bc0:	4e 43       	clr.b	r14		
    6bc2:	7f 40 05 00 	mov.b	#5,	r15	;#0x0005
    6bc6:	b0 12 08 69 	call	#0x6908	
    6bca:	31 50 06 00 	add	#6,	r1	;#0x0006
    6bce:	0f 93       	tst	r15		
    6bd0:	04 20       	jnz	$+10     	;abs 0x6bda
    6bd2:	f2 d2 f6 20 	bis.b	#8,	&0x20f6	;r2 As==11
    6bd6:	01 3c       	jmp	$+4      	;abs 0x6bda
    6bd8:	2f 42       	mov	#4,	r15	;r2 As==10
    6bda:	3b 41       	pop	r11		
    6bdc:	30 41       	ret			

00006bde <CUSPBaseRecorderP__saveSensing>:
    6bde:	c2 4f 42 21 	mov.b	r15,	&0x2142	
    6be2:	5f 42 f6 20 	mov.b	&0x20f6,r15	
    6be6:	3f f0 07 00 	and	#7,	r15	;#0x0007
    6bea:	3f 90 03 00 	cmp	#3,	r15	;#0x0003
    6bee:	0e 38       	jl	$+30     	;abs 0x6c0c
    6bf0:	03 12       	push	#0		;r3 As==00
    6bf2:	30 12 0a 00 	push	#10		;#0x000a
    6bf6:	30 12 40 21 	push	#8512		;#0x2140
    6bfa:	3c 40 06 00 	mov	#6,	r12	;#0x0006
    6bfe:	0d 43       	clr	r13		
    6c00:	4e 43       	clr.b	r14		
    6c02:	5f 43       	mov.b	#1,	r15	;r3 As==01
    6c04:	b0 12 08 69 	call	#0x6908	
    6c08:	31 50 06 00 	add	#6,	r1	;#0x0006
    6c0c:	30 41       	ret			

00006c0e <CUSPBaseRecorderP__Config__readDone.isra.307>:
    6c0e:	0c 93       	tst	r12		
    6c10:	43 20       	jnz	$+136    	;abs 0x6c98
    6c12:	0e 4f       	mov	r15,	r14	
    6c14:	3f 40 40 21 	mov	#8512,	r15	;#0x2140
    6c18:	b0 12 90 ba 	call	#0xba90	
    6c1c:	a2 92 40 21 	cmp	#4,	&0x2140	;r2 As==10
    6c20:	18 20       	jnz	$+50     	;abs 0x6c52
    6c22:	c2 93 42 21 	tst.b	&0x2142	
    6c26:	10 24       	jz	$+34     	;abs 0x6c48
    6c28:	d2 43 6a 1c 	mov.b	#1,	&0x1c6a	;r3 As==01
    6c2c:	b0 12 4c 50 	call	#0x504c	
    6c30:	3c 40 20 4e 	mov	#20000,	r12	;#0x4e20
    6c34:	0d 43       	clr	r13		
    6c36:	b0 12 14 af 	call	#0xaf14	
    6c3a:	0d 4e       	mov	r14,	r13	
    6c3c:	0e 4f       	mov	r15,	r14	
    6c3e:	7f 40 05 00 	mov.b	#5,	r15	;#0x0005
    6c42:	b0 12 30 5c 	call	#0x5c30	
    6c46:	02 3c       	jmp	$+6      	;abs 0x6c4c
    6c48:	c2 43 6a 1c 	mov.b	#0,	&0x1c6a	;r3 As==00
    6c4c:	92 53 48 21 	inc	&0x2148	
    6c50:	0c 3c       	jmp	$+26     	;abs 0x6c6a
    6c52:	b0 12 28 50 	call	#0x5028	
    6c56:	a2 42 40 21 	mov	#4,	&0x2140	;r2 As==10
    6c5a:	c2 43 42 21 	mov.b	#0,	&0x2142	;r3 As==00
    6c5e:	82 43 44 21 	mov	#0,	&0x2144	;r3 As==00
    6c62:	82 43 46 21 	mov	#0,	&0x2146	;r3 As==00
    6c66:	82 43 48 21 	mov	#0,	&0x2148	;r3 As==00
    6c6a:	b0 12 3a 50 	call	#0x503a	
    6c6e:	5f 42 f6 20 	mov.b	&0x20f6,r15	
    6c72:	3f f0 07 00 	and	#7,	r15	;#0x0007
    6c76:	3f 90 03 00 	cmp	#3,	r15	;#0x0003
    6c7a:	0e 38       	jl	$+30     	;abs 0x6c98
    6c7c:	03 12       	push	#0		;r3 As==00
    6c7e:	30 12 0a 00 	push	#10		;#0x000a
    6c82:	30 12 40 21 	push	#8512		;#0x2140
    6c86:	3c 40 06 00 	mov	#6,	r12	;#0x0006
    6c8a:	0d 43       	clr	r13		
    6c8c:	4e 43       	clr.b	r14		
    6c8e:	5f 43       	mov.b	#1,	r15	;r3 As==01
    6c90:	b0 12 08 69 	call	#0x6908	
    6c94:	31 50 06 00 	add	#6,	r1	;#0x0006
    6c98:	30 41       	ret			

00006c9a <ArbiterP__2__ResourceDefaultOwner__release>:
    6c9a:	0b 12       	push	r11		
    6c9c:	0b 42       	mov	r2,	r11	
    6c9e:	3b f2       	and	#8,	r11	;r2 As==11
    6ca0:	32 c2       	dint			
    6ca2:	03 43       	nop			
    6ca4:	d2 93 30 1c 	cmp.b	#1,	&0x1c30	;r3 As==01
    6ca8:	1c 20       	jnz	$+58     	;abs 0x6ce2
    6caa:	5f 42 cb 1d 	mov.b	&0x1dcb,r15	
    6cae:	4e 4f       	mov.b	r15,	r14	
    6cb0:	7e 53       	add.b	#-1,	r14	;r3 As==11
    6cb2:	6e 93       	cmp.b	#2,	r14	;r3 As==10
    6cb4:	0b 2c       	jc	$+24     	;abs 0x6ccc
    6cb6:	e2 43 cb 1d 	mov.b	#2,	&0x1dcb	;r3 As==10
    6cba:	6f 43       	mov.b	#2,	r15	;r3 As==10
    6cbc:	b0 12 62 4d 	call	#0x4d62	
    6cc0:	0b 93       	tst	r11		
    6cc2:	01 20       	jnz	$+4      	;abs 0x6cc6
    6cc4:	01 3c       	jmp	$+4      	;abs 0x6cc8
    6cc6:	32 d2       	eint			
    6cc8:	0f 43       	clr	r15		
    6cca:	0f 3c       	jmp	$+32     	;abs 0x6cea
    6ccc:	7f 90 03 00 	cmp.b	#3,	r15	;#0x0003
    6cd0:	08 20       	jnz	$+18     	;abs 0x6ce2
    6cd2:	d2 42 2f 1c 30 1c 	mov.b	&0x1c2f,&0x1c30	
    6cd8:	f2 43 2f 1c 	mov.b	#-1,	&0x1c2f	;r3 As==11
    6cdc:	e2 42 cb 1d 	mov.b	#4,	&0x1dcb	;r2 As==10
    6ce0:	ef 3f       	jmp	$-32     	;abs 0x6cc0
    6ce2:	0b 93       	tst	r11		
    6ce4:	01 24       	jz	$+4      	;abs 0x6ce8
    6ce6:	32 d2       	eint			
    6ce8:	1f 43       	mov	#1,	r15	;r3 As==01
    6cea:	3b 41       	pop	r11		
    6cec:	30 41       	ret			

00006cee <ArbiterP__2__Resource__immediateRequest.constprop.440>:
    6cee:	0f 42       	mov	r2,	r15	
    6cf0:	3f f2       	and	#8,	r15	;r2 As==11
    6cf2:	32 c2       	dint			
    6cf4:	03 43       	nop			
    6cf6:	c2 93 cb 1d 	tst.b	&0x1dcb	
    6cfa:	06 24       	jz	$+14     	;abs 0x6d08
    6cfc:	0f 93       	tst	r15		
    6cfe:	01 20       	jnz	$+4      	;abs 0x6d02
    6d00:	01 3c       	jmp	$+4      	;abs 0x6d04
    6d02:	32 d2       	eint			
    6d04:	1f 43       	mov	#1,	r15	;r3 As==01
    6d06:	30 41       	ret			
    6d08:	f2 40 03 00 cb 1d 	mov.b	#3,	&0x1dcb	;#0x0003
    6d0e:	c2 43 2f 1c 	mov.b	#0,	&0x1c2f	;r3 As==00
    6d12:	0f 93       	tst	r15		
    6d14:	01 24       	jz	$+4      	;abs 0x6d18
    6d16:	32 d2       	eint			
    6d18:	b0 12 9a 6c 	call	#0x6c9a	
    6d1c:	c2 93 30 1c 	tst.b	&0x1c30	
    6d20:	04 20       	jnz	$+10     	;abs 0x6d2a
    6d22:	b0 12 e6 57 	call	#0x57e6	
    6d26:	0f 43       	clr	r15		
    6d28:	30 41       	ret			
    6d2a:	0f 42       	mov	r2,	r15	
    6d2c:	32 c2       	dint			
    6d2e:	03 43       	nop			
    6d30:	c2 43 cb 1d 	mov.b	#0,	&0x1dcb	;r3 As==00
    6d34:	3f f2       	and	#8,	r15	;r2 As==11
    6d36:	e2 3f       	jmp	$-58     	;abs 0x6cfc

00006d38 <RF233DriverLayerP__isSpiAcquired>:
    6d38:	0b 12       	push	r11		
    6d3a:	0f 42       	mov	r2,	r15	
    6d3c:	3f f2       	and	#8,	r15	;r2 As==11
    6d3e:	32 c2       	dint			
    6d40:	03 43       	nop			
    6d42:	c2 93 30 1c 	tst.b	&0x1c30	
    6d46:	04 20       	jnz	$+10     	;abs 0x6d50
    6d48:	1e 43       	mov	#1,	r14	;r3 As==01
    6d4a:	e2 92 cb 1d 	cmp.b	#4,	&0x1dcb	;r2 As==10
    6d4e:	01 24       	jz	$+4      	;abs 0x6d52
    6d50:	0e 43       	clr	r14		
    6d52:	4e 4e       	mov.b	r14,	r14	
    6d54:	0f 93       	tst	r15		
    6d56:	01 24       	jz	$+4      	;abs 0x6d5a
    6d58:	32 d2       	eint			
    6d5a:	4e 93       	tst.b	r14		
    6d5c:	45 20       	jnz	$+140    	;abs 0x6de8
    6d5e:	b0 12 ee 6c 	call	#0x6cee	
    6d62:	0f 93       	tst	r15		
    6d64:	05 20       	jnz	$+12     	;abs 0x6d70
    6d66:	b0 12 60 4e 	call	#0x4e60	
    6d6a:	b0 12 72 4e 	call	#0x4e72	
    6d6e:	3c 3c       	jmp	$+122    	;abs 0x6de8
    6d70:	0f 42       	mov	r2,	r15	
    6d72:	3f f2       	and	#8,	r15	;r2 As==11
    6d74:	32 c2       	dint			
    6d76:	03 43       	nop			
    6d78:	c2 93 2f 1c 	tst.b	&0x1c2f	
    6d7c:	05 20       	jnz	$+12     	;abs 0x6d88
    6d7e:	0f 93       	tst	r15		
    6d80:	01 20       	jnz	$+4      	;abs 0x6d84
    6d82:	30 3c       	jmp	$+98     	;abs 0x6de4
    6d84:	32 d2       	eint			
    6d86:	2e 3c       	jmp	$+94     	;abs 0x6de4
    6d88:	1e 43       	mov	#1,	r14	;r3 As==01
    6d8a:	f2 93 56 21 	cmp.b	#-1,	&0x2156	;r3 As==11
    6d8e:	04 20       	jnz	$+10     	;abs 0x6d98
    6d90:	c2 93 31 1c 	tst.b	&0x1c31	
    6d94:	01 24       	jz	$+4      	;abs 0x6d98
    6d96:	0e 43       	clr	r14		
    6d98:	4e 93       	tst.b	r14		
    6d9a:	f1 23       	jnz	$-28     	;abs 0x6d7e
    6d9c:	f2 93 32 1c 	cmp.b	#-1,	&0x1c32	;r3 As==11
    6da0:	03 20       	jnz	$+8      	;abs 0x6da8
    6da2:	c2 43 32 1c 	mov.b	#0,	&0x1c32	;r3 As==00
    6da6:	04 3c       	jmp	$+10     	;abs 0x6db0
    6da8:	5e 42 31 1c 	mov.b	&0x1c31,r14	
    6dac:	ce 43 56 21 	mov.b	#0,	8534(r14);r3 As==00, 0x2156(r14)
    6db0:	c2 43 31 1c 	mov.b	#0,	&0x1c31	;r3 As==00
    6db4:	0f 93       	tst	r15		
    6db6:	01 24       	jz	$+4      	;abs 0x6dba
    6db8:	32 d2       	eint			
    6dba:	0b 42       	mov	r2,	r11	
    6dbc:	3b f2       	and	#8,	r11	;r2 As==11
    6dbe:	32 c2       	dint			
    6dc0:	03 43       	nop			
    6dc2:	c2 93 cb 1d 	tst.b	&0x1dcb	
    6dc6:	03 24       	jz	$+8      	;abs 0x6dce
    6dc8:	0b 93       	tst	r11		
    6dca:	0c 24       	jz	$+26     	;abs 0x6de4
    6dcc:	db 3f       	jmp	$-72     	;abs 0x6d84
    6dce:	d2 43 cb 1d 	mov.b	#1,	&0x1dcb	;r3 As==01
    6dd2:	b0 12 da 4a 	call	#0x4ada	
    6dd6:	c2 4f 2f 1c 	mov.b	r15,	&0x1c2f	
    6dda:	0b 93       	tst	r11		
    6ddc:	01 24       	jz	$+4      	;abs 0x6de0
    6dde:	32 d2       	eint			
    6de0:	b0 12 9a 6c 	call	#0x6c9a	
    6de4:	4f 43       	clr.b	r15		
    6de6:	01 3c       	jmp	$+4      	;abs 0x6dea
    6de8:	5f 43       	mov.b	#1,	r15	;r3 As==01
    6dea:	3b 41       	pop	r11		
    6dec:	30 41       	ret			

00006dee <Msp430Adc12ImplP__SingleChannel__getData>:
    6dee:	0b 12       	push	r11		
    6df0:	0b 42       	mov	r2,	r11	
    6df2:	3b f2       	and	#8,	r11	;r2 As==11
    6df4:	32 c2       	dint			
    6df6:	03 43       	nop			
    6df8:	5e 42 02 1c 	mov.b	&0x1c02,r14	
    6dfc:	4e 9f       	cmp.b	r15,	r14	
    6dfe:	79 20       	jnz	$+244    	;abs 0x6ef2
    6e00:	5f 42 5e 1e 	mov.b	&0x1e5e,r15	
    6e04:	7f b2       	bit.b	#8,	r15	;r2 As==11
    6e06:	07 24       	jz	$+16     	;abs 0x6e16
    6e08:	82 93 04 1e 	tst	&0x1e04	
    6e0c:	04 20       	jnz	$+10     	;abs 0x6e16
    6e0e:	0b 93       	tst	r11		
    6e10:	74 24       	jz	$+234    	;abs 0x6efa
    6e12:	32 d2       	eint			
    6e14:	72 3c       	jmp	$+230    	;abs 0x6efa
    6e16:	7f b0 20 00 	bit.b	#32,	r15	;#0x0020
    6e1a:	04 24       	jz	$+10     	;abs 0x6e24
    6e1c:	0b 93       	tst	r11		
    6e1e:	70 24       	jz	$+226    	;abs 0x6f00
    6e20:	32 d2       	eint			
    6e22:	6e 3c       	jmp	$+222    	;abs 0x6f00
    6e24:	7f d0 20 00 	bis.b	#32,	r15	;#0x0020
    6e28:	c2 4f 5e 1e 	mov.b	r15,	&0x1e5e	
    6e2c:	c2 4e 82 1c 	mov.b	r14,	&0x1c82	
    6e30:	4f 43       	clr.b	r15		
    6e32:	b0 12 a4 4a 	call	#0x4aa4	
    6e36:	7f f0 0f 00 	and.b	#15,	r15	;#0x000f
    6e3a:	7f 92       	cmp.b	#8,	r15	;r2 As==11
    6e3c:	3d 2c       	jc	$+124    	;abs 0x6eb8
    6e3e:	4f 4f       	mov.b	r15,	r15	
    6e40:	5f 02       	rlam	#1,	r15	
    6e42:	10 4f fc c0 	br	-16132(r15)	;0xc0fc(r15)
    6e46:	d2 d3 4b 02 	bis.b	#1,	&0x024b	;r3 As==01
    6e4a:	5f 42 45 02 	mov.b	&0x0245,r15	
    6e4e:	5f c3       	bic.b	#1,	r15	;r3 As==01
    6e50:	31 3c       	jmp	$+100    	;abs 0x6eb4
    6e52:	e2 d3 4b 02 	bis.b	#2,	&0x024b	;r3 As==10
    6e56:	5f 42 45 02 	mov.b	&0x0245,r15	
    6e5a:	6f c3       	bic.b	#2,	r15	;r3 As==10
    6e5c:	2b 3c       	jmp	$+88     	;abs 0x6eb4
    6e5e:	e2 d2 4b 02 	bis.b	#4,	&0x024b	;r2 As==10
    6e62:	5f 42 45 02 	mov.b	&0x0245,r15	
    6e66:	6f c2       	bic.b	#4,	r15	;r2 As==10
    6e68:	25 3c       	jmp	$+76     	;abs 0x6eb4
    6e6a:	f2 d2 4b 02 	bis.b	#8,	&0x024b	;r2 As==11
    6e6e:	5f 42 45 02 	mov.b	&0x0245,r15	
    6e72:	7f c2       	bic.b	#8,	r15	;r2 As==11
    6e74:	1f 3c       	jmp	$+64     	;abs 0x6eb4
    6e76:	f2 d0 10 00 4b 02 	bis.b	#16,	&0x024b	;#0x0010
    6e7c:	5f 42 45 02 	mov.b	&0x0245,r15	
    6e80:	7f f0 ef ff 	and.b	#-17,	r15	;#0xffef
    6e84:	17 3c       	jmp	$+48     	;abs 0x6eb4
    6e86:	f2 d0 20 00 4b 02 	bis.b	#32,	&0x024b	;#0x0020
    6e8c:	5f 42 45 02 	mov.b	&0x0245,r15	
    6e90:	7f f0 df ff 	and.b	#-33,	r15	;#0xffdf
    6e94:	0f 3c       	jmp	$+32     	;abs 0x6eb4
    6e96:	f2 d0 40 00 4b 02 	bis.b	#64,	&0x024b	;#0x0040
    6e9c:	5f 42 45 02 	mov.b	&0x0245,r15	
    6ea0:	7f f0 bf ff 	and.b	#-65,	r15	;#0xffbf
    6ea4:	07 3c       	jmp	$+16     	;abs 0x6eb4
    6ea6:	f2 d0 80 ff 4b 02 	bis.b	#-128,	&0x024b	;#0xff80
    6eac:	5f 42 45 02 	mov.b	&0x0245,r15	
    6eb0:	7f f0 7f 00 	and.b	#127,	r15	;#0x007f
    6eb4:	c2 4f 45 02 	mov.b	r15,	&0x0245	
    6eb8:	b2 d0 10 00 00 07 	bis	#16,	&0x0700	;#0x0010
    6ebe:	b2 d0 03 00 00 07 	bis	#3,	&0x0700	;#0x0003
    6ec4:	f2 b0 40 00 5e 1e 	bit.b	#64,	&0x1e5e	;#0x0040
    6eca:	0f 24       	jz	$+32     	;abs 0x6eea
    6ecc:	82 43 c4 03 	mov	#0,	&0x03c4	;r3 As==00
    6ed0:	a2 42 c4 03 	mov	#4,	&0x03c4	;r2 As==10
    6ed4:	b2 40 e0 00 c4 03 	mov	#224,	&0x03c4	;#0x00e0
    6eda:	1f 42 c0 03 	mov	&0x03c0,r15	
    6ede:	3f f0 cf ff 	and	#-49,	r15	;#0xffcf
    6ee2:	3f d0 10 00 	bis	#16,	r15	;#0x0010
    6ee6:	82 4f c0 03 	mov	r15,	&0x03c0	
    6eea:	0b 93       	tst	r11		
    6eec:	0c 24       	jz	$+26     	;abs 0x6f06
    6eee:	32 d2       	eint			
    6ef0:	0a 3c       	jmp	$+22     	;abs 0x6f06
    6ef2:	0b 93       	tst	r11		
    6ef4:	0a 24       	jz	$+22     	;abs 0x6f0a
    6ef6:	32 d2       	eint			
    6ef8:	08 3c       	jmp	$+18     	;abs 0x6f0a
    6efa:	3f 40 06 00 	mov	#6,	r15	;#0x0006
    6efe:	06 3c       	jmp	$+14     	;abs 0x6f0c
    6f00:	3f 40 05 00 	mov	#5,	r15	;#0x0005
    6f04:	03 3c       	jmp	$+8      	;abs 0x6f0c
    6f06:	0f 43       	clr	r15		
    6f08:	01 3c       	jmp	$+4      	;abs 0x6f0c
    6f0a:	1f 43       	mov	#1,	r15	;r3 As==01
    6f0c:	3b 41       	pop	r11		
    6f0e:	30 41       	ret			

00006f10 <AdcStreamP__sampleSingle>:
    6f10:	c2 93 00 1c 	tst.b	&0x1c00	
    6f14:	03 20       	jnz	$+8      	;abs 0x6f1c
    6f16:	5f 43       	mov.b	#1,	r15	;r3 As==01
    6f18:	b0 12 ee 6d 	call	#0x6dee	
    6f1c:	30 41       	ret			

00006f1e <Msp430TimerCapComP__2__Event__fired>:
    6f1e:	1f 42 46 03 	mov	&0x0346,r15	
    6f22:	8f 10       	swpb	r15		
    6f24:	5f f3       	and.b	#1,	r15	;r3 As==01
    6f26:	03 24       	jz	$+8      	;abs 0x6f2e
    6f28:	1f 42 56 03 	mov	&0x0356,r15	
    6f2c:	30 41       	ret			
    6f2e:	b2 f0 ef ff 46 03 	and	#-17,	&0x0346	;#0xffef
    6f34:	82 93 32 1d 	tst	&0x1d32	
    6f38:	06 20       	jnz	$+14     	;abs 0x6f46
    6f3a:	82 93 34 1d 	tst	&0x1d34	
    6f3e:	03 20       	jnz	$+8      	;abs 0x6f46
    6f40:	b0 12 10 6f 	call	#0x6f10	
    6f44:	30 41       	ret			
    6f46:	b0 12 54 61 	call	#0x6154	
    6f4a:	30 41       	ret			

00006f4c <RF233DriverLayerP__RadioSend__send>:
    6f4c:	7b 15       	pushm	#8,	r11	
    6f4e:	21 82       	sub	#4,	r1	;r2 As==10
    6f50:	09 4f       	mov	r15,	r9	
    6f52:	c2 93 a4 20 	tst.b	&0x20a4	
    6f56:	01 24       	jz	$+4      	;abs 0x6f5a
    6f58:	5a 3c       	jmp	$+182    	;abs 0x700e
    6f5a:	f2 90 05 00 6a 22 	cmp.b	#5,	&0x226a	;#0x0005
    6f60:	56 20       	jnz	$+174    	;abs 0x700e
    6f62:	b0 12 38 6d 	call	#0x6d38	
    6f66:	4f 93       	tst.b	r15		
    6f68:	52 24       	jz	$+166    	;abs 0x700e
    6f6a:	c2 93 6c 1c 	tst.b	&0x1c6c	
    6f6e:	4f 20       	jnz	$+160    	;abs 0x700e
    6f70:	e9 b2 44 00 	bit.b	#4,	68(r9)	;r2 As==10, 0x0044(r9)
    6f74:	05 24       	jz	$+12     	;abs 0x6f80
    6f76:	5e 49 48 00 	mov.b	72(r9),	r14	;0x0048(r9)
    6f7a:	7e f0 0f 00 	and.b	#15,	r14	;#0x000f
    6f7e:	01 3c       	jmp	$+4      	;abs 0x6f82
    6f80:	4e 43       	clr.b	r14		
    6f82:	5e 92 51 21 	cmp.b	&0x2151,r14	
    6f86:	08 24       	jz	$+18     	;abs 0x6f98
    6f88:	c2 4e 51 21 	mov.b	r14,	&0x2151	
    6f8c:	7e d0 20 00 	bis.b	#32,	r14	;#0x0020
    6f90:	7f 40 05 00 	mov.b	#5,	r15	;#0x0005
    6f94:	b0 12 7a 5b 	call	#0x5b7a	
    6f98:	5f 49 02 00 	mov.b	2(r9),	r15	;0x0002(r9)
    6f9c:	8f 10       	swpb	r15		
    6f9e:	5e 49 01 00 	mov.b	1(r9),	r14	;0x0001(r9)
    6fa2:	0f de       	bis	r14,	r15	
    6fa4:	3f f0 47 cc 	and	#-13241,r15	;#0xcc47
    6fa8:	3f 90 41 88 	cmp	#-30655,r15	;#0x8841
    6fac:	0f 24       	jz	$+32     	;abs 0x6fcc
    6fae:	7e 40 09 00 	mov.b	#9,	r14	;#0x0009
    6fb2:	6f 43       	mov.b	#2,	r15	;r3 As==10
    6fb4:	b0 12 7a 5b 	call	#0x5b7a	
    6fb8:	b0 12 f6 5e 	call	#0x5ef6	
    6fbc:	0a 4e       	mov	r14,	r10	
    6fbe:	0b 4f       	mov	r15,	r11	
    6fc0:	f9 b0 10 00 44 00 	bit.b	#16,	68(r9)	;#0x0010, 0x0044(r9)
    6fc6:	11 20       	jnz	$+36     	;abs 0x6fea
    6fc8:	08 43       	clr	r8		
    6fca:	14 3c       	jmp	$+42     	;abs 0x6ff4
    6fcc:	7f 40 06 00 	mov.b	#6,	r15	;#0x0006
    6fd0:	b0 12 a4 5b 	call	#0x5ba4	
    6fd4:	3f f0 1f 00 	and	#31,	r15	;#0x001f
    6fd8:	5e 42 38 1f 	mov.b	&0x1f38,r14	
    6fdc:	5d 42 3c 21 	mov.b	&0x213c,r13	
    6fe0:	0e 5d       	add	r13,	r14	
    6fe2:	5e 09       	rram	#3,	r14	
    6fe4:	0e 9f       	cmp	r15,	r14	
    6fe6:	13 38       	jl	$+40     	;abs 0x700e
    6fe8:	e2 3f       	jmp	$-58     	;abs 0x6fae
    6fea:	68 49       	mov.b	@r9,	r8	
    6fec:	78 50 fb ff 	add.b	#-5,	r8	;#0xfffb
    6ff0:	48 48       	mov.b	r8,	r8	
    6ff2:	08 59       	add	r9,	r8	
    6ff4:	5f 43       	mov.b	#1,	r15	;r3 As==01
    6ff6:	b0 12 a4 5b 	call	#0x5ba4	
    6ffa:	7f f0 1f 00 	and.b	#31,	r15	;#0x001f
    6ffe:	7f 90 09 00 	cmp.b	#9,	r15	;#0x0009
    7002:	08 24       	jz	$+18     	;abs 0x7014
    7004:	7e 40 06 00 	mov.b	#6,	r14	;#0x0006
    7008:	6f 43       	mov.b	#2,	r15	;r3 As==10
    700a:	b0 12 7a 5b 	call	#0x5b7a	
    700e:	3f 40 05 00 	mov	#5,	r15	;#0x0005
    7012:	7e 3c       	jmp	$+254    	;abs 0x7110
    7014:	07 42       	mov	r2,	r7	
    7016:	32 c2       	dint			
    7018:	03 43       	nop			
    701a:	b0 12 32 51 	call	#0x5132	
    701e:	14 42 90 03 	mov	&0x0390,r4	
    7022:	37 f2       	and	#8,	r7	;r2 As==11
    7024:	01 24       	jz	$+4      	;abs 0x7028
    7026:	32 d2       	eint			
    7028:	b0 12 84 4e 	call	#0x4e84	
    702c:	b0 12 20 51 	call	#0x5120	
    7030:	7f 40 60 00 	mov.b	#96,	r15	;#0x0060
    7034:	b0 12 6e 49 	call	#0x496e	
    7038:	05 49       	mov	r9,	r5	
    703a:	15 53       	inc	r5		
    703c:	66 49       	mov.b	@r9,	r6	
    703e:	b0 12 5a 49 	call	#0x495a	
    7042:	4f 46       	mov.b	r6,	r15	
    7044:	b0 12 6e 49 	call	#0x496e	
    7048:	66 83       	decd.b	r6		
    704a:	76 90 07 00 	cmp.b	#7,	r6	;#0x0007
    704e:	03 28       	jnc	$+8      	;abs 0x7056
    7050:	77 40 07 00 	mov.b	#7,	r7	;#0x0007
    7054:	01 3c       	jmp	$+4      	;abs 0x7058
    7056:	47 46       	mov.b	r6,	r7	
    7058:	46 87       	sub.b	r7,	r6	
    705a:	c1 46 00 00 	mov.b	r6,	0(r1)	;0x0000(r1)
    705e:	06 45       	mov	r5,	r6	
    7060:	4f 47       	mov.b	r7,	r15	
    7062:	4f 55       	add.b	r5,	r15	
    7064:	c1 4f 02 00 	mov.b	r15,	2(r1)	;0x0002(r1)
    7068:	f1 46 01 00 	mov.b	@r6+,	1(r1)	;0x0001(r1)
    706c:	b0 12 5a 49 	call	#0x495a	
    7070:	5f 41 01 00 	mov.b	1(r1),	r15	;0x0001(r1)
    7074:	b0 12 6e 49 	call	#0x496e	
    7078:	c1 96 02 00 	cmp.b	r6,	2(r1)	;0x0002(r1)
    707c:	f5 23       	jnz	$-20     	;abs 0x7068
    707e:	4e 47       	mov.b	r7,	r14	
    7080:	7e 53       	add.b	#-1,	r14	;r3 As==11
    7082:	47 4e       	mov.b	r14,	r7	
    7084:	17 53       	inc	r7		
    7086:	07 55       	add	r5,	r7	
    7088:	0e 44       	mov	r4,	r14	
    708a:	3e 50 b0 00 	add	#176,	r14	;#0x00b0
    708e:	0e 8a       	sub	r10,	r14	
    7090:	0c 4e       	mov	r14,	r12	
    7092:	8e 10       	swpb	r14		
    7094:	8e 11       	sxt	r14		
    7096:	8e 10       	swpb	r14		
    7098:	8e 11       	sxt	r14		
    709a:	0d 4e       	mov	r14,	r13	
    709c:	0a 5c       	add	r12,	r10	
    709e:	0b 6d       	addc	r13,	r11	
    70a0:	08 93       	tst	r8		
    70a2:	0a 24       	jz	$+22     	;abs 0x70b8
    70a4:	0f 48       	mov	r8,	r15	
    70a6:	b0 12 c8 49 	call	#0x49c8	
    70aa:	0d 4e       	mov	r14,	r13	
    70ac:	0e 4f       	mov	r15,	r14	
    70ae:	0d 8a       	sub	r10,	r13	
    70b0:	0e 7b       	subc	r11,	r14	
    70b2:	0f 48       	mov	r8,	r15	
    70b4:	b0 12 9c 49 	call	#0x499c	
    70b8:	66 41       	mov.b	@r1,	r6	
    70ba:	46 57       	add.b	r7,	r6	
    70bc:	06 3c       	jmp	$+14     	;abs 0x70ca
    70be:	75 47       	mov.b	@r7+,	r5	
    70c0:	b0 12 5a 49 	call	#0x495a	
    70c4:	4f 45       	mov.b	r5,	r15	
    70c6:	b0 12 6e 49 	call	#0x496e	
    70ca:	46 97       	cmp.b	r7,	r6	
    70cc:	f8 23       	jnz	$-14     	;abs 0x70be
    70ce:	b0 12 5a 49 	call	#0x495a	
    70d2:	b0 12 72 4e 	call	#0x4e72	
    70d6:	7e 40 06 00 	mov.b	#6,	r14	;#0x0006
    70da:	6f 43       	mov.b	#2,	r15	;r3 As==10
    70dc:	b0 12 7a 5b 	call	#0x5b7a	
    70e0:	08 93       	tst	r8		
    70e2:	0a 24       	jz	$+22     	;abs 0x70f8
    70e4:	0f 48       	mov	r8,	r15	
    70e6:	b0 12 c8 49 	call	#0x49c8	
    70ea:	0d 4e       	mov	r14,	r13	
    70ec:	0e 4f       	mov	r15,	r14	
    70ee:	0d 5a       	add	r10,	r13	
    70f0:	0e 6b       	addc	r11,	r14	
    70f2:	0f 48       	mov	r8,	r15	
    70f4:	b0 12 9c 49 	call	#0x499c	
    70f8:	e9 d3 44 00 	bis.b	#2,	68(r9)	;r3 As==10, 0x0044(r9)
    70fc:	89 4a 40 00 	mov	r10,	64(r9)	;0x0040(r9)
    7100:	89 4b 42 00 	mov	r11,	66(r9)	;0x0042(r9)
    7104:	f2 40 06 00 6a 22 	mov.b	#6,	&0x226a	;#0x0006
    710a:	e2 42 a4 20 	mov.b	#4,	&0x20a4	;r2 As==10
    710e:	0f 43       	clr	r15		
    7110:	21 52       	add	#4,	r1	;r2 As==10
    7112:	74 17       	popm	#8,	r11	
    7114:	30 41       	ret			

00007116 <BlockStorageP__endRequest>:
    7116:	5b 15       	pushm	#6,	r11	
    7118:	0a 4f       	mov	r15,	r10	
    711a:	07 4e       	mov	r14,	r7	
    711c:	59 42 0b 1c 	mov.b	&0x1c0b,r9	
    7120:	4b 49       	mov.b	r9,	r11	
    7122:	0e 4b       	mov	r11,	r14	
    7124:	5e 06       	rlam	#2,	r14	
    7126:	0f 4b       	mov	r11,	r15	
    7128:	5f 0e       	rlam	#4,	r15	
    712a:	0f 8e       	sub	r14,	r15	
    712c:	3f 50 52 1e 	add	#7762,	r15	;#0x1e52
    7130:	68 4f       	mov.b	@r15,	r8	
    7132:	f2 43 0b 1c 	mov.b	#-1,	&0x1c0b	;r3 As==11
    7136:	cf 43 00 00 	mov.b	#0,	0(r15)	;r3 As==00, 0x0000(r15)
    713a:	49 93       	tst.b	r9		
    713c:	03 20       	jnz	$+8      	;abs 0x7144
    713e:	5f 43       	mov.b	#1,	r15	;r3 As==01
    7140:	b0 12 d0 4f 	call	#0x4fd0	
    7144:	78 90 03 00 	cmp.b	#3,	r8	;#0x0003
    7148:	02 20       	jnz	$+6      	;abs 0x714e
    714a:	80 00 bc 73 	bra	#0x073bc	
    714e:	68 92       	cmp.b	#4,	r8	;r2 As==10
    7150:	05 2c       	jc	$+12     	;abs 0x715c
    7152:	58 93       	cmp.b	#1,	r8	;r3 As==01
    7154:	02 24       	jz	$+6      	;abs 0x715a
    7156:	80 00 c0 73 	bra	#0x073c0	
    715a:	57 3c       	jmp	$+176    	;abs 0x720a
    715c:	68 92       	cmp.b	#4,	r8	;r2 As==10
    715e:	06 24       	jz	$+14     	;abs 0x716c
    7160:	78 90 05 00 	cmp.b	#5,	r8	;#0x0005
    7164:	02 24       	jz	$+6      	;abs 0x716a
    7166:	80 00 c0 73 	bra	#0x073c0	
    716a:	74 3c       	jmp	$+234    	;abs 0x7254
    716c:	1d 42 26 1d 	mov	&0x1d26,r13	
    7170:	1e 42 28 1d 	mov	&0x1d28,r14	
    7174:	0c 4b       	mov	r11,	r12	
    7176:	5c 06       	rlam	#2,	r12	
    7178:	0f 4b       	mov	r11,	r15	
    717a:	5f 0e       	rlam	#4,	r15	
    717c:	0f 8c       	sub	r12,	r15	
    717e:	3f 50 52 1e 	add	#7762,	r15	;#0x1e52
    7182:	1f 4f 02 00 	mov	2(r15),	r15	;0x0002(r15)
    7186:	49 93       	tst.b	r9		
    7188:	02 24       	jz	$+6      	;abs 0x718e
    718a:	80 00 c0 73 	bra	#0x073c0	
    718e:	09 4b       	mov	r11,	r9	
    7190:	59 02       	rlam	#1,	r9	
    7192:	0c 49       	mov	r9,	r12	
    7194:	3c 50 f6 20 	add	#8438,	r12	;#0x20f6
    7198:	68 4c       	mov.b	@r12,	r8	
    719a:	78 f0 07 00 	and.b	#7,	r8	;#0x0007
    719e:	58 93       	cmp.b	#1,	r8	;r3 As==01
    71a0:	30 20       	jnz	$+98     	;abs 0x7202
    71a2:	0a 93       	tst	r10		
    71a4:	05 24       	jz	$+12     	;abs 0x71b0
    71a6:	fc f0 f8 ff 00 00 	and.b	#-8,	0(r12)	;#0xfff8, 0x0000(r12)
    71ac:	80 00 c0 73 	bra	#0x073c0	
    71b0:	4f 43       	clr.b	r15		
    71b2:	b0 12 3a 4a 	call	#0x4a3a	
    71b6:	5b 0a       	rlam	#3,	r11	
    71b8:	0f 93       	tst	r15		
    71ba:	0c 20       	jnz	$+26     	;abs 0x71d4
    71bc:	d2 d3 e5 1c 	bis.b	#1,	&0x1ce5	;r3 As==01
    71c0:	03 12       	push	#0		;r3 As==00
    71c2:	30 12 06 00 	push	#6		;#0x0006
    71c6:	0b 89       	sub	r9,	r11	
    71c8:	3b 50 4e 1d 	add	#7502,	r11	;#0x1d4e
    71cc:	0b 12       	push	r11		
    71ce:	0c 43       	clr	r12		
    71d0:	0d 43       	clr	r13		
    71d2:	ce 3c       	jmp	$+414    	;abs 0x7370
    71d4:	0b 89       	sub	r9,	r11	
    71d6:	2b 53       	incd	r11		
    71d8:	0f 4b       	mov	r11,	r15	
    71da:	3f 50 4e 1d 	add	#7502,	r15	;#0x1d4e
    71de:	b0 12 c8 49 	call	#0x49c8	
    71e2:	09 4e       	mov	r14,	r9	
    71e4:	0a 4f       	mov	r15,	r10	
    71e6:	0f 4b       	mov	r11,	r15	
    71e8:	3f 50 7f 20 	add	#8319,	r15	;#0x207f
    71ec:	b0 12 c8 49 	call	#0x49c8	
    71f0:	5d 43       	mov.b	#1,	r13	;r3 As==01
    71f2:	0f 9a       	cmp	r10,	r15	
    71f4:	04 28       	jnc	$+10     	;abs 0x71fe
    71f6:	02 20       	jnz	$+6      	;abs 0x71fc
    71f8:	0e 99       	cmp	r9,	r14	
    71fa:	01 28       	jnc	$+4      	;abs 0x71fe
    71fc:	4d 43       	clr.b	r13		
    71fe:	4e 4d       	mov.b	r13,	r14	
    7200:	8c 3c       	jmp	$+282    	;abs 0x731a
    7202:	0c 4a       	mov	r10,	r12	
    7204:	b0 12 0e 6c 	call	#0x6c0e	
    7208:	db 3c       	jmp	$+440    	;abs 0x73c0
    720a:	49 93       	tst.b	r9		
    720c:	d9 20       	jnz	$+436    	;abs 0x73c0
    720e:	5b 02       	rlam	#1,	r11	
    7210:	fb b2 f6 20 	bit.b	#8,	8438(r11);r2 As==11, 0x20f6(r11)
    7214:	0f 43       	clr	r15		
    7216:	0f 6f       	rlc	r15		
    7218:	4f 93       	tst.b	r15		
    721a:	14 24       	jz	$+42     	;abs 0x7244
    721c:	0a 93       	tst	r10		
    721e:	05 24       	jz	$+12     	;abs 0x722a
    7220:	0e 4a       	mov	r10,	r14	
    7222:	4f 43       	clr.b	r15		
    7224:	b0 12 64 66 	call	#0x6664	
    7228:	cb 3c       	jmp	$+408    	;abs 0x73c0
    722a:	03 12       	push	#0		;r3 As==00
    722c:	03 12       	push	#0		;r3 As==00
    722e:	03 12       	push	#0		;r3 As==00
    7230:	0c 43       	clr	r12		
    7232:	0d 43       	clr	r13		
    7234:	4e 43       	clr.b	r14		
    7236:	7f 40 03 00 	mov.b	#3,	r15	;#0x0003
    723a:	b0 12 08 69 	call	#0x6908	
    723e:	31 50 06 00 	add	#6,	r1	;#0x0006
    7242:	be 3c       	jmp	$+382    	;abs 0x73c0
    7244:	4f 43       	clr.b	r15		
    7246:	b0 12 4a 66 	call	#0x664a	
    724a:	0a 93       	tst	r10		
    724c:	b9 20       	jnz	$+372    	;abs 0x73c0
    724e:	b0 12 50 6b 	call	#0x6b50	
    7252:	b6 3c       	jmp	$+366    	;abs 0x73c0
    7254:	49 93       	tst.b	r9		
    7256:	b4 20       	jnz	$+362    	;abs 0x73c0
    7258:	08 4b       	mov	r11,	r8	
    725a:	58 02       	rlam	#1,	r8	
    725c:	5f 48 f6 20 	mov.b	8438(r8),r15	;0x20f6(r8)
    7260:	7f f0 07 00 	and.b	#7,	r15	;#0x0007
    7264:	5f 93       	cmp.b	#1,	r15	;r3 As==01
    7266:	90 20       	jnz	$+290    	;abs 0x7388
    7268:	4f 43       	clr.b	r15		
    726a:	b0 12 3a 4a 	call	#0x4a3a	
    726e:	06 4f       	mov	r15,	r6	
    7270:	49 4f       	mov.b	r15,	r9	
    7272:	0a 93       	tst	r10		
    7274:	31 20       	jnz	$+100    	;abs 0x72d8
    7276:	0a 4b       	mov	r11,	r10	
    7278:	5a 0a       	rlam	#3,	r10	
    727a:	0a 88       	sub	r8,	r10	
    727c:	49 93       	tst.b	r9		
    727e:	0b 24       	jz	$+24     	;abs 0x7296
    7280:	0f 4a       	mov	r10,	r15	
    7282:	3f 50 4e 1d 	add	#7502,	r15	;#0x1d4e
    7286:	6d 4f       	mov.b	@r15,	r13	
    7288:	8d 10       	swpb	r13		
    728a:	5f 4f 01 00 	mov.b	1(r15),	r15	;0x0001(r15)
    728e:	0d df       	bis	r15,	r13	
    7290:	07 9d       	cmp	r13,	r7	
    7292:	22 20       	jnz	$+70     	;abs 0x72d8
    7294:	0a 3c       	jmp	$+22     	;abs 0x72aa
    7296:	3a 50 7f 20 	add	#8319,	r10	;#0x207f
    729a:	6d 4a       	mov.b	@r10,	r13	
    729c:	8d 10       	swpb	r13		
    729e:	5f 4a 01 00 	mov.b	1(r10),	r15	;0x0001(r10)
    72a2:	0d df       	bis	r15,	r13	
    72a4:	07 9d       	cmp	r13,	r7	
    72a6:	18 20       	jnz	$+50     	;abs 0x72d8
    72a8:	0d 3c       	jmp	$+28     	;abs 0x72c4
    72aa:	2a 53       	incd	r10		
    72ac:	0f 4a       	mov	r10,	r15	
    72ae:	3f 50 4e 1d 	add	#7502,	r15	;#0x1d4e
    72b2:	b0 12 c8 49 	call	#0x49c8	
    72b6:	0d 4e       	mov	r14,	r13	
    72b8:	0e 4f       	mov	r15,	r14	
    72ba:	0f 4a       	mov	r10,	r15	
    72bc:	3f 50 7f 20 	add	#8319,	r15	;#0x207f
    72c0:	b0 12 9c 49 	call	#0x499c	
    72c4:	5b 02       	rlam	#1,	r11	
    72c6:	5f 4b f6 20 	mov.b	8438(r11),r15	;0x20f6(r11)
    72ca:	7f f0 f8 ff 	and.b	#-8,	r15	;#0xfff8
    72ce:	7f d0 03 00 	bis.b	#3,	r15	;#0x0003
    72d2:	cb 4f f6 20 	mov.b	r15,	8438(r11);0x20f6(r11)
    72d6:	39 3c       	jmp	$+116    	;abs 0x734a
    72d8:	0f 4b       	mov	r11,	r15	
    72da:	5f 02       	rlam	#1,	r15	
    72dc:	0a 4b       	mov	r11,	r10	
    72de:	5a 0a       	rlam	#3,	r10	
    72e0:	0a 8f       	sub	r15,	r10	
    72e2:	2a 53       	incd	r10		
    72e4:	0f 4a       	mov	r10,	r15	
    72e6:	3f 50 4e 1d 	add	#7502,	r15	;#0x1d4e
    72ea:	b0 12 c8 49 	call	#0x49c8	
    72ee:	07 4e       	mov	r14,	r7	
    72f0:	08 4f       	mov	r15,	r8	
    72f2:	3a 50 7f 20 	add	#8319,	r10	;#0x207f
    72f6:	0f 4a       	mov	r10,	r15	
    72f8:	b0 12 c8 49 	call	#0x49c8	
    72fc:	1d 43       	mov	#1,	r13	;r3 As==01
    72fe:	0f 98       	cmp	r8,	r15	
    7300:	04 28       	jnc	$+10     	;abs 0x730a
    7302:	02 20       	jnz	$+6      	;abs 0x7308
    7304:	0e 97       	cmp	r7,	r14	
    7306:	01 28       	jnc	$+4      	;abs 0x730a
    7308:	0d 43       	clr	r13		
    730a:	36 f0 ff 00 	and	#255,	r6	;#0x00ff
    730e:	0d 96       	cmp	r6,	r13	
    7310:	0b 20       	jnz	$+24     	;abs 0x7328
    7312:	5e 43       	mov.b	#1,	r14	;r3 As==01
    7314:	49 93       	tst.b	r9		
    7316:	01 24       	jz	$+4      	;abs 0x731a
    7318:	4e 43       	clr.b	r14		
    731a:	4f 43       	clr.b	r15		
    731c:	b0 12 1a 66 	call	#0x661a	
    7320:	4f 43       	clr.b	r15		
    7322:	b0 12 04 6b 	call	#0x6b04	
    7326:	4c 3c       	jmp	$+154    	;abs 0x73c0
    7328:	5b 02       	rlam	#1,	r11	
    732a:	5f 4b f6 20 	mov.b	8438(r11),r15	;0x20f6(r11)
    732e:	7f f0 f8 ff 	and.b	#-8,	r15	;#0xfff8
    7332:	7f d0 05 00 	bis.b	#5,	r15	;#0x0005
    7336:	cb 4f f6 20 	mov.b	r15,	8438(r11);0x20f6(r11)
    733a:	ca 43 03 00 	mov.b	#0,	3(r10)	;r3 As==00, 0x0003(r10)
    733e:	ca 43 02 00 	mov.b	#0,	2(r10)	;r3 As==00, 0x0002(r10)
    7342:	ca 43 01 00 	mov.b	#0,	1(r10)	;r3 As==00, 0x0001(r10)
    7346:	ca 43 00 00 	mov.b	#0,	0(r10)	;r3 As==00, 0x0000(r10)
    734a:	5f 42 f6 20 	mov.b	&0x20f6,r15	
    734e:	7f f0 07 00 	and.b	#7,	r15	;#0x0007
    7352:	7f 90 05 00 	cmp.b	#5,	r15	;#0x0005
    7356:	0f 24       	jz	$+32     	;abs 0x7376
    7358:	4f 4f       	mov.b	r15,	r15	
    735a:	3f 90 03 00 	cmp	#3,	r15	;#0x0003
    735e:	30 38       	jl	$+98     	;abs 0x73c0
    7360:	03 12       	push	#0		;r3 As==00
    7362:	30 12 0a 00 	push	#10		;#0x000a
    7366:	30 12 40 21 	push	#8512		;#0x2140
    736a:	3c 40 06 00 	mov	#6,	r12	;#0x0006
    736e:	0d 43       	clr	r13		
    7370:	4e 43       	clr.b	r14		
    7372:	6f 42       	mov.b	#4,	r15	;r2 As==10
    7374:	62 3f       	jmp	$-314    	;abs 0x723a
    7376:	b0 12 28 50 	call	#0x5028	
    737a:	b0 12 50 6b 	call	#0x6b50	
    737e:	0f 93       	tst	r15		
    7380:	1f 20       	jnz	$+64     	;abs 0x73c0
    7382:	b0 12 3a 50 	call	#0x503a	
    7386:	1c 3c       	jmp	$+58     	;abs 0x73c0
    7388:	7f 90 03 00 	cmp.b	#3,	r15	;#0x0003
    738c:	03 20       	jnz	$+8      	;abs 0x7394
    738e:	b0 12 aa 4e 	call	#0x4eaa	
    7392:	16 3c       	jmp	$+46     	;abs 0x73c0
    7394:	0a 93       	tst	r10		
    7396:	44 23       	jnz	$-374    	;abs 0x7220
    7398:	5b 0a       	rlam	#3,	r11	
    739a:	0b 88       	sub	r8,	r11	
    739c:	3b 50 7f 20 	add	#8319,	r11	;#0x207f
    73a0:	cb 47 01 00 	mov.b	r7,	1(r11)	;0x0001(r11)
    73a4:	87 10       	swpb	r7		
    73a6:	cb 47 00 00 	mov.b	r7,	0(r11)	;0x0000(r11)
    73aa:	03 12       	push	#0		;r3 As==00
    73ac:	30 12 06 00 	push	#6		;#0x0006
    73b0:	0b 12       	push	r11		
    73b2:	0c 43       	clr	r12		
    73b4:	0d 43       	clr	r13		
    73b6:	4e 43       	clr.b	r14		
    73b8:	5f 43       	mov.b	#1,	r15	;r3 As==01
    73ba:	3f 3f       	jmp	$-384    	;abs 0x723a
    73bc:	49 93       	tst.b	r9		
    73be:	30 27       	jz	$-414    	;abs 0x7220
    73c0:	56 17       	popm	#6,	r11	
    73c2:	30 41       	ret			

000073c4 <ConfigStorageP__copyCopyPageDone>:
    73c4:	2b 15       	pushm	#3,	r11	
    73c6:	5b 42 0c 1c 	mov.b	&0x1c0c,r11	
    73ca:	0f 93       	tst	r15		
    73cc:	08 24       	jz	$+18     	;abs 0x73de
    73ce:	f2 43 0c 1c 	mov.b	#-1,	&0x1c0c	;r3 As==11
    73d2:	c2 4b 0b 1c 	mov.b	r11,	&0x1c0b	
    73d6:	0e 43       	clr	r14		
    73d8:	b0 12 16 71 	call	#0x7116	
    73dc:	34 3c       	jmp	$+106    	;abs 0x7446
    73de:	1e 42 4c 1d 	mov	&0x1d4c,r14	
    73e2:	0e 93       	tst	r14		
    73e4:	10 20       	jnz	$+34     	;abs 0x7406
    73e6:	4f 4b       	mov.b	r11,	r15	
    73e8:	5f 02       	rlam	#1,	r15	
    73ea:	5e 4f f6 20 	mov.b	8438(r15),r14	;0x20f6(r15)
    73ee:	7e f0 f8 ff 	and.b	#-8,	r14	;#0xfff8
    73f2:	6e d2       	bis.b	#4,	r14	;r2 As==10
    73f4:	cf 4e f6 20 	mov.b	r14,	8438(r15);0x20f6(r15)
    73f8:	f2 43 0c 1c 	mov.b	#-1,	&0x1c0c	;r3 As==11
    73fc:	c2 4b 0b 1c 	mov.b	r11,	&0x1c0b	
    7400:	b0 12 46 84 	call	#0x8446	
    7404:	20 3c       	jmp	$+66     	;abs 0x7446
    7406:	4b 93       	tst.b	r11		
    7408:	02 24       	jz	$+6      	;abs 0x740e
    740a:	09 43       	clr	r9		
    740c:	02 3c       	jmp	$+6      	;abs 0x7412
    740e:	39 40 09 00 	mov	#9,	r9	;#0x0009
    7412:	59 03       	rrum	#1,	r9	
    7414:	3e 53       	add	#-1,	r14	;r3 As==11
    7416:	82 4e 4c 1d 	mov	r14,	&0x1d4c	
    741a:	4f 4b       	mov.b	r11,	r15	
    741c:	b0 12 a2 58 	call	#0x58a2	
    7420:	0a 4f       	mov	r15,	r10	
    7422:	4f 4b       	mov.b	r11,	r15	
    7424:	b0 12 3a 4a 	call	#0x4a3a	
    7428:	4f 93       	tst.b	r15		
    742a:	03 24       	jz	$+8      	;abs 0x7432
    742c:	0e 4a       	mov	r10,	r14	
    742e:	0e 89       	sub	r9,	r14	
    7430:	02 3c       	jmp	$+6      	;abs 0x7436
    7432:	0e 49       	mov	r9,	r14	
    7434:	0e 5a       	add	r10,	r14	
    7436:	03 12       	push	#0		;r3 As==00
    7438:	0c 43       	clr	r12		
    743a:	0d 4a       	mov	r10,	r13	
    743c:	7f 40 05 00 	mov.b	#5,	r15	;#0x0005
    7440:	b0 12 68 7b 	call	#0x7b68	
    7444:	21 53       	incd	r1		
    7446:	29 17       	popm	#3,	r11	
    7448:	30 41       	ret			

0000744a <At45dbP__requestDone>:
    744a:	3b 15       	pushm	#4,	r11	
    744c:	0b 4f       	mov	r15,	r11	
    744e:	0a 4e       	mov	r14,	r10	
    7450:	5f 42 41 1d 	mov.b	&0x1d41,r15	
    7454:	c2 4d 41 1d 	mov.b	r13,	&0x1d41	
    7458:	7f 53       	add.b	#-1,	r15	;r3 As==11
    745a:	7f 90 09 00 	cmp.b	#9,	r15	;#0x0009
    745e:	02 28       	jnc	$+6      	;abs 0x7464
    7460:	80 00 7c 79 	bra	#0x0797c	
    7464:	4f 4f       	mov.b	r15,	r15	
    7466:	5f 02       	rlam	#1,	r15	
    7468:	10 4f 0c c1 	br	-16116(r15)	;0xc10c(r15)
    746c:	f2 93 0b 1c 	cmp.b	#-1,	&0x1c0b	;r3 As==11
    7470:	04 24       	jz	$+10     	;abs 0x747a
    7472:	0e 43       	clr	r14		
    7474:	0f 4b       	mov	r11,	r15	
    7476:	b0 12 fe 83 	call	#0x83fe	
    747a:	5a 42 18 1c 	mov.b	&0x1c18,r10	
    747e:	7a 93       	cmp.b	#-1,	r10	;r3 As==11
    7480:	02 20       	jnz	$+6      	;abs 0x7486
    7482:	80 00 7c 79 	bra	#0x0797c	
    7486:	0b 93       	tst	r11		
    7488:	02 24       	jz	$+6      	;abs 0x748e
    748a:	1f 43       	mov	#1,	r15	;r3 As==01
    748c:	5a 3c       	jmp	$+182    	;abs 0x7542
    748e:	f2 90 06 00 2b 1d 	cmp.b	#6,	&0x1d2b	;#0x0006
    7494:	02 28       	jnc	$+6      	;abs 0x749a
    7496:	80 00 7c 79 	bra	#0x0797c	
    749a:	5f 42 2b 1d 	mov.b	&0x1d2b,r15	
    749e:	5f 02       	rlam	#1,	r15	
    74a0:	10 4f 20 c1 	br	-16096(r15)	;0xc120(r15)
    74a4:	1f 42 d8 1f 	mov	&0x1fd8,r15	
    74a8:	21 3c       	jmp	$+68     	;abs 0x74ec
    74aa:	5f 42 5c 1d 	mov.b	&0x1d5c,r15	
    74ae:	8f 10       	swpb	r15		
    74b0:	5e 42 5d 1d 	mov.b	&0x1d5d,r14	
    74b4:	0f de       	bis	r14,	r15	
    74b6:	3f 90 56 42 	cmp	#16982,	r15	;#0x4256
    74ba:	ae 20       	jnz	$+350    	;abs 0x7618
    74bc:	3f 40 5e 1d 	mov	#7518,	r15	;#0x1d5e
    74c0:	b0 12 c8 49 	call	#0x49c8	
    74c4:	4c 4a       	mov.b	r10,	r12	
    74c6:	5c 06       	rlam	#2,	r12	
    74c8:	0d 4c       	mov	r12,	r13	
    74ca:	5d 0a       	rlam	#3,	r13	
    74cc:	0d 8c       	sub	r12,	r13	
    74ce:	3d 50 88 20 	add	#8328,	r13	;#0x2088
    74d2:	3d 50 0a 00 	add	#10,	r13	;#0x000a
    74d6:	8d 9f 02 00 	cmp	r15,	2(r13)	;0x0002(r13)
    74da:	06 28       	jnc	$+14     	;abs 0x74e8
    74dc:	1f 9d 02 00 	cmp	2(r13),	r15	;0x0002(r13)
    74e0:	9b 28       	jnc	$+312    	;abs 0x7618
    74e2:	8d 9e 00 00 	cmp	r14,	0(r13)	;0x0000(r13)
    74e6:	98 2c       	jc	$+306    	;abs 0x7618
    74e8:	b0 12 54 4a 	call	#0x4a54	
    74ec:	b0 12 7c 7e 	call	#0x7e7c	
    74f0:	80 00 7c 79 	bra	#0x0797c	
    74f4:	5f 42 5c 1d 	mov.b	&0x1d5c,r15	
    74f8:	8f 10       	swpb	r15		
    74fa:	5e 42 5d 1d 	mov.b	&0x1d5d,r14	
    74fe:	0f de       	bis	r14,	r15	
    7500:	3f 90 56 42 	cmp	#16982,	r15	;#0x4256
    7504:	06 20       	jnz	$+14     	;abs 0x7512
    7506:	e2 b2 63 1d 	bit.b	#4,	&0x1d63	;r2 As==10
    750a:	03 24       	jz	$+8      	;abs 0x7512
    750c:	1f 42 88 1c 	mov	&0x1c88,r15	
    7510:	ed 3f       	jmp	$-36     	;abs 0x74ec
    7512:	b0 12 fa 7b 	call	#0x7bfa	
    7516:	80 00 7c 79 	bra	#0x0797c	
    751a:	4e 4a       	mov.b	r10,	r14	
    751c:	5e 06       	rlam	#2,	r14	
    751e:	0f 4e       	mov	r14,	r15	
    7520:	5f 0a       	rlam	#3,	r15	
    7522:	0f 8e       	sub	r14,	r15	
    7524:	3f 50 88 20 	add	#8328,	r15	;#0x2088
    7528:	1f 4f 16 00 	mov	22(r15),r15	;0x0016(r15)
    752c:	df 3f       	jmp	$-64     	;abs 0x74ec
    752e:	5f 42 5c 1d 	mov.b	&0x1d5c,r15	
    7532:	8f 10       	swpb	r15		
    7534:	5e 42 5d 1d 	mov.b	&0x1d5d,r14	
    7538:	0f de       	bis	r14,	r15	
    753a:	3f 90 56 42 	cmp	#16982,	r15	;#0x4256
    753e:	e6 27       	jz	$-50     	;abs 0x750c
    7540:	0f 43       	clr	r15		
    7542:	b0 12 b6 69 	call	#0x69b6	
    7546:	80 00 7c 79 	bra	#0x0797c	
    754a:	b0 12 d6 7c 	call	#0x7cd6	
    754e:	80 00 7c 79 	bra	#0x0797c	
    7552:	f2 93 0b 1c 	cmp.b	#-1,	&0x1c0b	;r3 As==11
    7556:	03 24       	jz	$+8      	;abs 0x755e
    7558:	0f 4b       	mov	r11,	r15	
    755a:	b0 12 fe 83 	call	#0x83fe	
    755e:	59 42 18 1c 	mov.b	&0x1c18,r9	
    7562:	79 93       	cmp.b	#-1,	r9	;r3 As==11
    7564:	02 20       	jnz	$+6      	;abs 0x756a
    7566:	80 00 7c 79 	bra	#0x0797c	
    756a:	0b 93       	tst	r11		
    756c:	8e 23       	jnz	$-226    	;abs 0x748a
    756e:	5f 42 2b 1d 	mov.b	&0x1d2b,r15	
    7572:	7f 53       	add.b	#-1,	r15	;r3 As==11
    7574:	7f 90 06 00 	cmp.b	#6,	r15	;#0x0006
    7578:	02 28       	jnc	$+6      	;abs 0x757e
    757a:	80 00 7c 79 	bra	#0x0797c	
    757e:	4f 4f       	mov.b	r15,	r15	
    7580:	5f 02       	rlam	#1,	r15	
    7582:	10 4f 2c c1 	br	-16084(r15)	;0xc12c(r15)
    7586:	5f 42 5c 1d 	mov.b	&0x1d5c,r15	
    758a:	8f 10       	swpb	r15		
    758c:	5e 42 5d 1d 	mov.b	&0x1d5d,r14	
    7590:	0f de       	bis	r14,	r15	
    7592:	3f 90 56 42 	cmp	#16982,	r15	;#0x4256
    7596:	16 20       	jnz	$+46     	;abs 0x75c4
    7598:	5f 42 64 1d 	mov.b	&0x1d64,r15	
    759c:	8f 10       	swpb	r15		
    759e:	5e 42 65 1d 	mov.b	&0x1d65,r14	
    75a2:	0f de       	bis	r14,	r15	
    75a4:	0a 9f       	cmp	r15,	r10	
    75a6:	0e 20       	jnz	$+30     	;abs 0x75c4
    75a8:	3f 40 5e 1d 	mov	#7518,	r15	;#0x1d5e
    75ac:	b0 12 c8 49 	call	#0x49c8	
    75b0:	49 49       	mov.b	r9,	r9	
    75b2:	59 06       	rlam	#2,	r9	
    75b4:	0d 49       	mov	r9,	r13	
    75b6:	5d 0a       	rlam	#3,	r13	
    75b8:	0d 89       	sub	r9,	r13	
    75ba:	8d 4e 92 20 	mov	r14,	8338(r13);0x2092(r13)
    75be:	8d 4f 94 20 	mov	r15,	8340(r13);0x2094(r13)
    75c2:	09 3c       	jmp	$+20     	;abs 0x75d6
    75c4:	49 49       	mov.b	r9,	r9	
    75c6:	59 06       	rlam	#2,	r9	
    75c8:	0f 49       	mov	r9,	r15	
    75ca:	5f 0a       	rlam	#3,	r15	
    75cc:	0f 89       	sub	r9,	r15	
    75ce:	8f 43 92 20 	mov	#0,	8338(r15);r3 As==00, 0x2092(r15)
    75d2:	8f 43 94 20 	mov	#0,	8340(r15);r3 As==00, 0x2094(r15)
    75d6:	e2 43 2b 1d 	mov.b	#2,	&0x1d2b	;r3 As==10
    75da:	b0 12 30 7c 	call	#0x7c30	
    75de:	80 00 7c 79 	bra	#0x0797c	
    75e2:	5f 42 64 1d 	mov.b	&0x1d64,r15	
    75e6:	8f 10       	swpb	r15		
    75e8:	5e 42 65 1d 	mov.b	&0x1d65,r14	
    75ec:	0f de       	bis	r14,	r15	
    75ee:	0a 9f       	cmp	r15,	r10	
    75f0:	13 20       	jnz	$+40     	;abs 0x7618
    75f2:	3f 40 5e 1d 	mov	#7518,	r15	;#0x1d5e
    75f6:	b0 12 c8 49 	call	#0x49c8	
    75fa:	49 49       	mov.b	r9,	r9	
    75fc:	59 06       	rlam	#2,	r9	
    75fe:	0d 49       	mov	r9,	r13	
    7600:	5d 0a       	rlam	#3,	r13	
    7602:	0d 89       	sub	r9,	r13	
    7604:	8d 4e 92 20 	mov	r14,	8338(r13);0x2092(r13)
    7608:	8d 4f 94 20 	mov	r15,	8340(r13);0x2094(r13)
    760c:	b0 12 54 4a 	call	#0x4a54	
    7610:	1f 53       	inc	r15		
    7612:	82 4f 88 1c 	mov	r15,	&0x1c88	
    7616:	e1 3f       	jmp	$-60     	;abs 0x75da
    7618:	b0 12 54 4a 	call	#0x4a54	
    761c:	82 4f d8 1f 	mov	r15,	&0x1fd8	
    7620:	dc 3f       	jmp	$-70     	;abs 0x75da
    7622:	5f 42 64 1d 	mov.b	&0x1d64,r15	
    7626:	8f 10       	swpb	r15		
    7628:	5e 42 65 1d 	mov.b	&0x1d65,r14	
    762c:	0f de       	bis	r14,	r15	
    762e:	0a 9f       	cmp	r15,	r10	
    7630:	70 23       	jnz	$-286    	;abs 0x7512
    7632:	49 49       	mov.b	r9,	r9	
    7634:	59 06       	rlam	#2,	r9	
    7636:	0f 49       	mov	r9,	r15	
    7638:	5f 0a       	rlam	#3,	r15	
    763a:	0f 89       	sub	r9,	r15	
    763c:	ff c2 90 20 	bic.b	#8,	8336(r15);r2 As==11, 0x2090(r15)
    7640:	d2 b3 63 1d 	bit.b	#1,	&0x1d63	;r3 As==01
    7644:	26 24       	jz	$+78     	;abs 0x7692
    7646:	1b 42 88 1c 	mov	&0x1c88,r11	
    764a:	1b 92 d8 1f 	cmp	&0x1fd8,r11	
    764e:	0b 20       	jnz	$+24     	;abs 0x7666
    7650:	3f 40 5e 1d 	mov	#7518,	r15	;#0x1d5e
    7654:	b0 12 c8 49 	call	#0x49c8	
    7658:	0e 93       	tst	r14		
    765a:	05 20       	jnz	$+12     	;abs 0x7666
    765c:	0f 93       	tst	r15		
    765e:	03 20       	jnz	$+8      	;abs 0x7666
    7660:	b0 12 72 59 	call	#0x5972	
    7664:	02 3c       	jmp	$+6      	;abs 0x766a
    7666:	0f 4b       	mov	r11,	r15	
    7668:	1f 53       	inc	r15		
    766a:	b0 12 5a 5a 	call	#0x5a5a	
    766e:	3f 40 5e 1d 	mov	#7518,	r15	;#0x1d5e
    7672:	b0 12 c8 49 	call	#0x49c8	
    7676:	5d 42 18 1c 	mov.b	&0x1c18,r13	
    767a:	5d 06       	rlam	#2,	r13	
    767c:	0c 4d       	mov	r13,	r12	
    767e:	5c 0a       	rlam	#3,	r12	
    7680:	0c 8d       	sub	r13,	r12	
    7682:	3e 50 06 02 	add	#518,	r14	;#0x0206
    7686:	0f 63       	adc	r15		
    7688:	8c 4e 92 20 	mov	r14,	8338(r12);0x2092(r12)
    768c:	8c 4f 94 20 	mov	r15,	8340(r12);0x2094(r12)
    7690:	1b 3c       	jmp	$+56     	;abs 0x76c8
    7692:	0b 4f       	mov	r15,	r11	
    7694:	3b 50 88 20 	add	#8328,	r11	;#0x2088
    7698:	9b 42 88 1c 0e 00 	mov	&0x1c88,14(r11)	;0x000e(r11)
    769e:	5a 42 62 1d 	mov.b	&0x1d62,r10	
    76a2:	0f 4b       	mov	r11,	r15	
    76a4:	3f 50 10 00 	add	#16,	r15	;#0x0010
    76a8:	cf 4a 00 00 	mov.b	r10,	0(r15)	;0x0000(r15)
    76ac:	cf 43 01 00 	mov.b	#0,	1(r15)	;r3 As==00, 0x0001(r15)
    76b0:	3f 40 5e 1d 	mov	#7518,	r15	;#0x1d5e
    76b4:	b0 12 c8 49 	call	#0x49c8	
    76b8:	4c 4a       	mov.b	r10,	r12	
    76ba:	0d 43       	clr	r13		
    76bc:	0e 5c       	add	r12,	r14	
    76be:	0f 6d       	addc	r13,	r15	
    76c0:	8b 4e 0a 00 	mov	r14,	10(r11)	;0x000a(r11)
    76c4:	8b 4f 0c 00 	mov	r15,	12(r11)	;0x000c(r11)
    76c8:	5d 42 18 1c 	mov.b	&0x1c18,r13	
    76cc:	5c 42 63 1d 	mov.b	&0x1d63,r12	
    76d0:	5c 03       	rrum	#1,	r12	
    76d2:	1c f3       	and	#1,	r12	;r3 As==01
    76d4:	0e 4d       	mov	r13,	r14	
    76d6:	5e 06       	rlam	#2,	r14	
    76d8:	0f 4e       	mov	r14,	r15	
    76da:	5f 0a       	rlam	#3,	r15	
    76dc:	0f 8e       	sub	r14,	r15	
    76de:	3f 50 90 20 	add	#8336,	r15	;#0x2090
    76e2:	4e 4c       	mov.b	r12,	r14	
    76e4:	5e 06       	rlam	#2,	r14	
    76e6:	6b 4f       	mov.b	@r15,	r11	
    76e8:	6b c2       	bic.b	#4,	r11	;r2 As==10
    76ea:	4b de       	bis.b	r14,	r11	
    76ec:	cf 4b 00 00 	mov.b	r11,	0(r15)	;0x0000(r15)
    76f0:	4c 93       	tst.b	r12		
    76f2:	07 24       	jz	$+16     	;abs 0x7702
    76f4:	6b b3       	bit.b	#2,	r11	;r3 As==10
    76f6:	0f 43       	clr	r15		
    76f8:	0f 6f       	rlc	r15		
    76fa:	4f 93       	tst.b	r15		
    76fc:	02 20       	jnz	$+6      	;abs 0x7702
    76fe:	80 00 8a 74 	bra	#0x0748a	
    7702:	0e 4d       	mov	r13,	r14	
    7704:	5e 06       	rlam	#2,	r14	
    7706:	0f 4e       	mov	r14,	r15	
    7708:	5f 0a       	rlam	#3,	r15	
    770a:	0f 8e       	sub	r14,	r15	
    770c:	df d3 90 20 	bis.b	#1,	8336(r15);r3 As==01, 0x2090(r15)
    7710:	b0 12 4a 81 	call	#0x814a	
    7714:	80 00 7c 79 	bra	#0x0797c	
    7718:	5f 42 5c 1d 	mov.b	&0x1d5c,r15	
    771c:	8f 10       	swpb	r15		
    771e:	5e 42 5d 1d 	mov.b	&0x1d5d,r14	
    7722:	0f de       	bis	r14,	r15	
    7724:	3f 90 56 42 	cmp	#16982,	r15	;#0x4256
    7728:	02 24       	jz	$+6      	;abs 0x772e
    772a:	80 00 40 75 	bra	#0x07540	
    772e:	5f 42 64 1d 	mov.b	&0x1d64,r15	
    7732:	8f 10       	swpb	r15		
    7734:	5e 42 65 1d 	mov.b	&0x1d65,r14	
    7738:	0f de       	bis	r14,	r15	
    773a:	0a 9f       	cmp	r15,	r10	
    773c:	02 24       	jz	$+6      	;abs 0x7742
    773e:	80 00 40 75 	bra	#0x07540	
    7742:	3f 40 5e 1d 	mov	#7518,	r15	;#0x1d5e
    7746:	b0 12 c8 49 	call	#0x49c8	
    774a:	49 49       	mov.b	r9,	r9	
    774c:	59 06       	rlam	#2,	r9	
    774e:	0b 49       	mov	r9,	r11	
    7750:	5b 0a       	rlam	#3,	r11	
    7752:	0b 89       	sub	r9,	r11	
    7754:	0a 4b       	mov	r11,	r10	
    7756:	3a 50 88 20 	add	#8328,	r10	;#0x2088
    775a:	1c 4a 18 00 	mov	24(r10),r12	;0x0018(r10)
    775e:	0d 43       	clr	r13		
    7760:	18 4a 12 00 	mov	18(r10),r8	;0x0012(r10)
    7764:	19 4a 14 00 	mov	20(r10),r9	;0x0014(r10)
    7768:	08 8c       	sub	r12,	r8	
    776a:	09 7d       	subc	r13,	r9	
    776c:	0c 48       	mov	r8,	r12	
    776e:	0d 49       	mov	r9,	r13	
    7770:	0e 98       	cmp	r8,	r14	
    7772:	02 24       	jz	$+6      	;abs 0x7778
    7774:	80 00 40 75 	bra	#0x07540	
    7778:	0f 9d       	cmp	r13,	r15	
    777a:	02 24       	jz	$+6      	;abs 0x7780
    777c:	80 00 40 75 	bra	#0x07540	
    7780:	fb d2 90 20 	bis.b	#8,	8336(r11);r2 As==11, 0x2090(r11)
    7784:	d2 b3 63 1d 	bit.b	#1,	&0x1d63	;r3 As==01
    7788:	02 20       	jnz	$+6      	;abs 0x778e
    778a:	80 00 40 75 	bra	#0x07540	
    778e:	0f 4a       	mov	r10,	r15	
    7790:	3f 50 1a 00 	add	#26,	r15	;#0x001a
    7794:	df 42 62 1d 00 00 	mov.b	&0x1d62,0(r15)	;0x0000(r15)
    779a:	cf 43 01 00 	mov.b	#0,	1(r15)	;r3 As==00, 0x0001(r15)
    779e:	80 00 40 75 	bra	#0x07540	
    77a2:	0b 43       	clr	r11		
    77a4:	5e 4b 5c 1d 	mov.b	7516(r11),r14	;0x1d5c(r11)
    77a8:	0f 4a       	mov	r10,	r15	
    77aa:	b0 12 ae 4a 	call	#0x4aae	
    77ae:	0a 4f       	mov	r15,	r10	
    77b0:	1b 53       	inc	r11		
    77b2:	3b 92       	cmp	#8,	r11	;r2 As==11
    77b4:	f7 23       	jnz	$-16     	;abs 0x77a4
    77b6:	c2 4f 65 1d 	mov.b	r15,	&0x1d65	
    77ba:	8a 10       	swpb	r10		
    77bc:	c2 4a 64 1d 	mov.b	r10,	&0x1d64	
    77c0:	30 12 0a 00 	push	#10		;#0x000a
    77c4:	3c 40 5c 1d 	mov	#7516,	r12	;#0x1d5c
    77c8:	3d 40 06 02 	mov	#518,	r13	;#0x0206
    77cc:	1e 42 88 1c 	mov	&0x1c88,r14	
    77d0:	7f 40 03 00 	mov.b	#3,	r15	;#0x0003
    77d4:	b0 12 68 7b 	call	#0x7b68	
    77d8:	21 53       	incd	r1		
    77da:	d0 3c       	jmp	$+418    	;abs 0x797c
    77dc:	49 49       	mov.b	r9,	r9	
    77de:	59 06       	rlam	#2,	r9	
    77e0:	0f 49       	mov	r9,	r15	
    77e2:	5f 0a       	rlam	#3,	r15	
    77e4:	0f 89       	sub	r9,	r15	
    77e6:	ff b2 90 20 	bit.b	#8,	8336(r15);r2 As==11, 0x2090(r15)
    77ea:	0e 43       	clr	r14		
    77ec:	0e 6e       	rlc	r14		
    77ee:	5f 42 64 1d 	mov.b	&0x1d64,r15	
    77f2:	5d 42 65 1d 	mov.b	&0x1d65,r13	
    77f6:	8f 10       	swpb	r15		
    77f8:	0f dd       	bis	r13,	r15	
    77fa:	4e 93       	tst.b	r14		
    77fc:	0b 20       	jnz	$+24     	;abs 0x7814
    77fe:	0a 9f       	cmp	r15,	r10	
    7800:	06 20       	jnz	$+14     	;abs 0x780e
    7802:	e2 b2 63 1d 	bit.b	#4,	&0x1d63	;r2 As==10
    7806:	03 24       	jz	$+8      	;abs 0x780e
    7808:	5f 42 62 1d 	mov.b	&0x1d62,r15	
    780c:	08 3c       	jmp	$+18     	;abs 0x781e
    780e:	b0 12 58 7c 	call	#0x7c58	
    7812:	b4 3c       	jmp	$+362    	;abs 0x797c
    7814:	0a 9f       	cmp	r15,	r10	
    7816:	02 24       	jz	$+6      	;abs 0x781c
    7818:	80 00 40 75 	bra	#0x07540	
    781c:	0f 43       	clr	r15		
    781e:	b0 12 1c 7e 	call	#0x7e1c	
    7822:	ac 3c       	jmp	$+346    	;abs 0x797c
    7824:	f2 93 0b 1c 	cmp.b	#-1,	&0x1c0b	;r3 As==11
    7828:	04 24       	jz	$+10     	;abs 0x7832
    782a:	0e 43       	clr	r14		
    782c:	0f 4b       	mov	r11,	r15	
    782e:	b0 12 fe 83 	call	#0x83fe	
    7832:	5e 42 18 1c 	mov.b	&0x1c18,r14	
    7836:	7e 93       	cmp.b	#-1,	r14	;r3 As==11
    7838:	a1 24       	jz	$+324    	;abs 0x797c
    783a:	0b 93       	tst	r11		
    783c:	02 24       	jz	$+6      	;abs 0x7842
    783e:	80 00 8a 74 	bra	#0x0748a	
    7842:	5f 42 2b 1d 	mov.b	&0x1d2b,r15	
    7846:	4f 93       	tst.b	r15		
    7848:	12 24       	jz	$+38     	;abs 0x786e
    784a:	7f 90 06 00 	cmp.b	#6,	r15	;#0x0006
    784e:	96 20       	jnz	$+302    	;abs 0x797c
    7850:	c2 43 2b 1d 	mov.b	#0,	&0x1d2b	;r3 As==00
    7854:	5e 42 63 1d 	mov.b	&0x1d63,r14	
    7858:	5e f3       	and.b	#1,	r14	;r3 As==01
    785a:	1f 42 88 1c 	mov	&0x1c88,r15	
    785e:	03 24       	jz	$+8      	;abs 0x7866
    7860:	7e 40 06 00 	mov.b	#6,	r14	;#0x0006
    7864:	01 3c       	jmp	$+4      	;abs 0x7868
    7866:	7e 42       	mov.b	#8,	r14	;r2 As==11
    7868:	b0 12 9a 84 	call	#0x849a	
    786c:	87 3c       	jmp	$+272    	;abs 0x797c
    786e:	4e 4e       	mov.b	r14,	r14	
    7870:	5e 06       	rlam	#2,	r14	
    7872:	0f 4e       	mov	r14,	r15	
    7874:	5f 0a       	rlam	#3,	r15	
    7876:	0f 8e       	sub	r14,	r15	
    7878:	3f 50 88 20 	add	#8328,	r15	;#0x2088
    787c:	bf 90 06 02 10 00 	cmp	#518,	16(r15)	;#0x0206, 0x0010(r15)
    7882:	02 24       	jz	$+6      	;abs 0x7888
    7884:	80 00 40 75 	bra	#0x07540	
    7888:	b0 12 90 7e 	call	#0x7e90	
    788c:	77 3c       	jmp	$+240    	;abs 0x797c
    788e:	f2 93 0b 1c 	cmp.b	#-1,	&0x1c0b	;r3 As==11
    7892:	04 24       	jz	$+10     	;abs 0x789c
    7894:	0e 43       	clr	r14		
    7896:	0f 4b       	mov	r11,	r15	
    7898:	b0 12 16 71 	call	#0x7116	
    789c:	5e 42 18 1c 	mov.b	&0x1c18,r14	
    78a0:	7e 93       	cmp.b	#-1,	r14	;r3 As==11
    78a2:	6c 24       	jz	$+218    	;abs 0x797c
    78a4:	0b 93       	tst	r11		
    78a6:	02 24       	jz	$+6      	;abs 0x78ac
    78a8:	80 00 8a 74 	bra	#0x0748a	
    78ac:	4e 4e       	mov.b	r14,	r14	
    78ae:	5e 06       	rlam	#2,	r14	
    78b0:	0f 4e       	mov	r14,	r15	
    78b2:	5f 0a       	rlam	#3,	r15	
    78b4:	0f 8e       	sub	r14,	r15	
    78b6:	0b 4f       	mov	r15,	r11	
    78b8:	3b 50 88 20 	add	#8328,	r11	;#0x2088
    78bc:	6e 4b       	mov.b	@r11,	r14	
    78be:	6e 93       	cmp.b	#2,	r14	;r3 As==10
    78c0:	1f 24       	jz	$+64     	;abs 0x7900
    78c2:	7e 90 03 00 	cmp.b	#3,	r14	;#0x0003
    78c6:	2a 24       	jz	$+86     	;abs 0x791c
    78c8:	5e 93       	cmp.b	#1,	r14	;r3 As==01
    78ca:	58 20       	jnz	$+178    	;abs 0x797c
    78cc:	bb 40 06 02 0a 00 	mov	#518,	10(r11)	;#0x0206, 0x000a(r11)
    78d2:	8b 43 0c 00 	mov	#0,	12(r11)	;r3 As==00, 0x000c(r11)
    78d6:	ef c2 90 20 	bic.b	#4,	8336(r15);r2 As==10, 0x2090(r15)
    78da:	b0 12 72 59 	call	#0x5972	
    78de:	b0 12 5a 5a 	call	#0x5a5a	
    78e2:	5e 42 18 1c 	mov.b	&0x1c18,r14	
    78e6:	5e 06       	rlam	#2,	r14	
    78e8:	0f 4e       	mov	r14,	r15	
    78ea:	5f 0a       	rlam	#3,	r15	
    78ec:	0f 8e       	sub	r14,	r15	
    78ee:	5e 4f 90 20 	mov.b	8336(r15),r14	;0x2090(r15)
    78f2:	7e f0 f6 ff 	and.b	#-10,	r14	;#0xfff6
    78f6:	5e d3       	bis.b	#1,	r14	;r3 As==01
    78f8:	cf 4e 90 20 	mov.b	r14,	8336(r15);0x2090(r15)
    78fc:	80 00 40 75 	bra	#0x07540	
    7900:	3f 40 5e 1d 	mov	#7518,	r15	;#0x1d5e
    7904:	b0 12 c8 49 	call	#0x49c8	
    7908:	3e 50 06 02 	add	#518,	r14	;#0x0206
    790c:	0f 63       	adc	r15		
    790e:	8b 4e 0a 00 	mov	r14,	10(r11)	;0x000a(r11)
    7912:	8b 4f 0c 00 	mov	r15,	12(r11)	;0x000c(r11)
    7916:	b0 12 a4 80 	call	#0x80a4	
    791a:	30 3c       	jmp	$+98     	;abs 0x797c
    791c:	3f 40 5e 1d 	mov	#7518,	r15	;#0x1d5e
    7920:	b0 12 c8 49 	call	#0x49c8	
    7924:	3e 50 06 02 	add	#518,	r14	;#0x0206
    7928:	0f 63       	adc	r15		
    792a:	8b 4e 0a 00 	mov	r14,	10(r11)	;0x000a(r11)
    792e:	8b 4f 0c 00 	mov	r15,	12(r11)	;0x000c(r11)
    7932:	80 00 40 75 	bra	#0x07540	
    7936:	f2 93 18 1c 	cmp.b	#-1,	&0x1c18	;r3 As==11
    793a:	20 24       	jz	$+66     	;abs 0x797c
    793c:	0b 93       	tst	r11		
    793e:	02 24       	jz	$+6      	;abs 0x7944
    7940:	80 00 8a 74 	bra	#0x0748a	
    7944:	c2 43 63 1d 	mov.b	#0,	&0x1d63	;r3 As==00
    7948:	b0 12 c8 7f 	call	#0x7fc8	
    794c:	17 3c       	jmp	$+48     	;abs 0x797c
    794e:	f2 93 0b 1c 	cmp.b	#-1,	&0x1c0b	;r3 As==11
    7952:	04 24       	jz	$+10     	;abs 0x795c
    7954:	0e 43       	clr	r14		
    7956:	0f 4b       	mov	r11,	r15	
    7958:	b0 12 16 71 	call	#0x7116	
    795c:	f2 93 18 1c 	cmp.b	#-1,	&0x1c18	;r3 As==11
    7960:	0d 24       	jz	$+28     	;abs 0x797c
    7962:	0b 93       	tst	r11		
    7964:	02 24       	jz	$+6      	;abs 0x796a
    7966:	80 00 8a 74 	bra	#0x0748a	
    796a:	b0 12 74 7f 	call	#0x7f74	
    796e:	06 3c       	jmp	$+14     	;abs 0x797c
    7970:	f2 93 0c 1c 	cmp.b	#-1,	&0x1c0c	;r3 As==11
    7974:	03 24       	jz	$+8      	;abs 0x797c
    7976:	0f 4b       	mov	r11,	r15	
    7978:	b0 12 c4 73 	call	#0x73c4	
    797c:	38 17       	popm	#4,	r11	
    797e:	30 41       	ret			

00007980 <At45dbP__handleRWRequest>:
    7980:	2b 15       	pushm	#3,	r11	
    7982:	1c 42 4a 1d 	mov	&0x1d4a,r12	
    7986:	5f 42 c7 1e 	mov.b	&0x1ec7,r15	
    798a:	4e 4f       	mov.b	r15,	r14	
    798c:	59 42 41 1d 	mov.b	&0x1d41,r9	
    7990:	0a 4e       	mov	r14,	r10	
    7992:	5a 06       	rlam	#2,	r10	
    7994:	0b 4a       	mov	r10,	r11	
    7996:	3b 50 1a 1d 	add	#7450,	r11	;#0x1d1a
    799a:	3a 50 1c 1d 	add	#7452,	r10	;#0x1d1c
    799e:	2c 9b       	cmp	@r11,	r12	
    79a0:	ba 20       	jnz	$+374    	;abs 0x7b16
    79a2:	5d 42 41 1d 	mov.b	&0x1d41,r13	
    79a6:	4b 4d       	mov.b	r13,	r11	
    79a8:	7b 53       	add.b	#-1,	r11	;r3 As==11
    79aa:	7b 90 09 00 	cmp.b	#9,	r11	;#0x0009
    79ae:	da 2c       	jc	$+438    	;abs 0x7b64
    79b0:	4b 4b       	mov.b	r11,	r11	
    79b2:	5b 02       	rlam	#1,	r11	
    79b4:	10 4b 38 c1 	br	-16072(r11)	;0xc138(r11)
    79b8:	1f 42 52 21 	mov	&0x2152,r15	
    79bc:	1f 93       	cmp	#1,	r15	;r3 As==01
    79be:	17 24       	jz	$+48     	;abs 0x79ee
    79c0:	03 28       	jnc	$+8      	;abs 0x79c8
    79c2:	2f 93       	cmp	#2,	r15	;r3 As==10
    79c4:	cf 20       	jnz	$+416    	;abs 0x7b64
    79c6:	0f 3c       	jmp	$+32     	;abs 0x79e6
    79c8:	c2 93 78 1c 	tst.b	&0x1c78	
    79cc:	03 24       	jz	$+8      	;abs 0x79d4
    79ce:	b0 12 9e 67 	call	#0x679e	
    79d2:	c8 3c       	jmp	$+402    	;abs 0x7b64
    79d4:	13 12       	push	#1		;r3 As==01
    79d6:	03 12       	push	#0		;r3 As==00
    79d8:	03 12       	push	#0		;r3 As==00
    79da:	4d 43       	clr.b	r13		
    79dc:	7e 40 81 ff 	mov.b	#-127,	r14	;#0xff81
    79e0:	7f 40 0b 00 	mov.b	#11,	r15	;#0x000b
    79e4:	bb 3c       	jmp	$+376    	;abs 0x7b5c
    79e6:	0f 4e       	mov	r14,	r15	
    79e8:	5f 06       	rlam	#2,	r15	
    79ea:	ef d2 1c 1d 	bis.b	#4,	7452(r15);r2 As==10, 0x1d1c(r15)
    79ee:	5e 06       	rlam	#2,	r14	
    79f0:	ee d3 1c 1d 	bis.b	#2,	7452(r14);r3 As==10, 0x1d1c(r14)
    79f4:	4d 43       	clr.b	r13		
    79f6:	0e 43       	clr	r14		
    79f8:	0f 43       	clr	r15		
    79fa:	b0 12 4a 74 	call	#0x744a	
    79fe:	b2 3c       	jmp	$+358    	;abs 0x7b64
    7a00:	5e 06       	rlam	#2,	r14	
    7a02:	0f 4e       	mov	r14,	r15	
    7a04:	3f 50 1c 1d 	add	#7452,	r15	;#0x1d1c
    7a08:	ef b3 00 00 	bit.b	#2,	0(r15)	;r3 As==10, 0x0000(r15)
    7a0c:	0d 43       	clr	r13		
    7a0e:	0d 6d       	rlc	r13		
    7a10:	4d 93       	tst.b	r13		
    7a12:	03 20       	jnz	$+8      	;abs 0x7a1a
    7a14:	b0 12 aa 67 	call	#0x67aa	
    7a18:	a5 3c       	jmp	$+332    	;abs 0x7b64
    7a1a:	9e 42 52 21 1a 1d 	mov	&0x2152,7450(r14);0x1d1a(r14)
    7a20:	ef c3 00 00 	bic.b	#2,	0(r15)	;r3 As==10, 0x0000(r15)
    7a24:	1d 3c       	jmp	$+60     	;abs 0x7a60
    7a26:	0c 4e       	mov	r14,	r12	
    7a28:	5c 06       	rlam	#2,	r12	
    7a2a:	3c 50 1c 1d 	add	#7452,	r12	;#0x1d1c
    7a2e:	ec b3 00 00 	bit.b	#2,	0(r12)	;r3 As==10, 0x0000(r12)
    7a32:	0b 43       	clr	r11		
    7a34:	0b 6b       	rlc	r11		
    7a36:	4b 93       	tst.b	r11		
    7a38:	07 24       	jz	$+16     	;abs 0x7a48
    7a3a:	6c 4c       	mov.b	@r12,	r12	
    7a3c:	5c 0b       	rrum	#3,	r12	
    7a3e:	3c f0 03 00 	and	#3,	r12	;#0x0003
    7a42:	4c 93       	tst.b	r12		
    7a44:	01 24       	jz	$+4      	;abs 0x7a48
    7a46:	73 3c       	jmp	$+232    	;abs 0x7b2e
    7a48:	5e 06       	rlam	#2,	r14	
    7a4a:	ee b3 1c 1d 	bit.b	#2,	7452(r14);r3 As==10, 0x1d1c(r14)
    7a4e:	0f 43       	clr	r15		
    7a50:	0f 6f       	rlc	r15		
    7a52:	4f 93       	tst.b	r15		
    7a54:	df 27       	jz	$-64     	;abs 0x7a14
    7a56:	7d 92       	cmp.b	#8,	r13	;r2 As==11
    7a58:	03 24       	jz	$+8      	;abs 0x7a60
    7a5a:	7d 90 06 00 	cmp.b	#6,	r13	;#0x0006
    7a5e:	03 20       	jnz	$+8      	;abs 0x7a66
    7a60:	b0 12 b0 4d 	call	#0x4db0	
    7a64:	7f 3c       	jmp	$+256    	;abs 0x7b64
    7a66:	c2 43 41 1d 	mov.b	#0,	&0x1d41	;r3 As==00
    7a6a:	4f 4d       	mov.b	r13,	r15	
    7a6c:	b0 12 12 84 	call	#0x8412	
    7a70:	79 3c       	jmp	$+244    	;abs 0x7b64
    7a72:	5e 06       	rlam	#2,	r14	
    7a74:	de b3 1c 1d 	bit.b	#1,	7452(r14);r3 As==01, 0x1d1c(r14)
    7a78:	0e 43       	clr	r14		
    7a7a:	0e 6e       	rlc	r14		
    7a7c:	4e 93       	tst.b	r14		
    7a7e:	a7 23       	jnz	$-176    	;abs 0x79ce
    7a80:	1b 42 72 1e 	mov	&0x1e72,r11	
    7a84:	1c 42 66 1d 	mov	&0x1d66,r12	
    7a88:	1d 42 52 21 	mov	&0x2152,r13	
    7a8c:	4f 93       	tst.b	r15		
    7a8e:	03 24       	jz	$+8      	;abs 0x7a96
    7a90:	7e 40 d4 ff 	mov.b	#-44,	r14	;#0xffd4
    7a94:	02 3c       	jmp	$+6      	;abs 0x7a9a
    7a96:	7e 40 d6 ff 	mov.b	#-42,	r14	;#0xffd6
    7a9a:	0b 12       	push	r11		
    7a9c:	0c 12       	push	r12		
    7a9e:	0d 12       	push	r13		
    7aa0:	0c 43       	clr	r12		
    7aa2:	6d 43       	mov.b	#2,	r13	;r3 As==10
    7aa4:	6f 43       	mov.b	#2,	r15	;r3 As==10
    7aa6:	5a 3c       	jmp	$+182    	;abs 0x7b5c
    7aa8:	5e 06       	rlam	#2,	r14	
    7aaa:	de b3 1c 1d 	bit.b	#1,	7452(r14);r3 As==01, 0x1d1c(r14)
    7aae:	0e 43       	clr	r14		
    7ab0:	0e 6e       	rlc	r14		
    7ab2:	4e 93       	tst.b	r14		
    7ab4:	8c 23       	jnz	$-230    	;abs 0x79ce
    7ab6:	1c 42 66 1d 	mov	&0x1d66,r12	
    7aba:	1b 42 72 1e 	mov	&0x1e72,r11	
    7abe:	1d 42 52 21 	mov	&0x2152,r13	
    7ac2:	4f 93       	tst.b	r15		
    7ac4:	03 24       	jz	$+8      	;abs 0x7acc
    7ac6:	7e 40 d4 ff 	mov.b	#-44,	r14	;#0xffd4
    7aca:	02 3c       	jmp	$+6      	;abs 0x7ad0
    7acc:	7e 40 d6 ff 	mov.b	#-42,	r14	;#0xffd6
    7ad0:	0b 12       	push	r11		
    7ad2:	0c 12       	push	r12		
    7ad4:	0d 12       	push	r13		
    7ad6:	0c 43       	clr	r12		
    7ad8:	6d 43       	mov.b	#2,	r13	;r3 As==10
    7ada:	7f 40 03 00 	mov.b	#3,	r15	;#0x0003
    7ade:	3e 3c       	jmp	$+126    	;abs 0x7b5c
    7ae0:	5e 06       	rlam	#2,	r14	
    7ae2:	de b3 1c 1d 	bit.b	#1,	7452(r14);r3 As==01, 0x1d1c(r14)
    7ae6:	0e 43       	clr	r14		
    7ae8:	0e 6e       	rlc	r14		
    7aea:	4e 93       	tst.b	r14		
    7aec:	70 23       	jnz	$-286    	;abs 0x79ce
    7aee:	1b 42 72 1e 	mov	&0x1e72,r11	
    7af2:	1c 42 66 1d 	mov	&0x1d66,r12	
    7af6:	1d 42 52 21 	mov	&0x2152,r13	
    7afa:	4f 93       	tst.b	r15		
    7afc:	03 24       	jz	$+8      	;abs 0x7b04
    7afe:	7e 40 84 ff 	mov.b	#-124,	r14	;#0xff84
    7b02:	02 3c       	jmp	$+6      	;abs 0x7b08
    7b04:	7e 40 87 ff 	mov.b	#-121,	r14	;#0xff87
    7b08:	0b 12       	push	r11		
    7b0a:	0c 12       	push	r12		
    7b0c:	0d 12       	push	r13		
    7b0e:	0c 43       	clr	r12		
    7b10:	4d 43       	clr.b	r13		
    7b12:	6f 42       	mov.b	#4,	r15	;r2 As==10
    7b14:	23 3c       	jmp	$+72     	;abs 0x7b5c
    7b16:	ea b3 00 00 	bit.b	#2,	0(r10)	;r3 As==10, 0x0000(r10)
    7b1a:	0d 43       	clr	r13		
    7b1c:	0d 6d       	rlc	r13		
    7b1e:	4d 93       	tst.b	r13		
    7b20:	79 27       	jz	$-268    	;abs 0x7a14
    7b22:	6d 4a       	mov.b	@r10,	r13	
    7b24:	5d 0b       	rrum	#3,	r13	
    7b26:	3d f0 03 00 	and	#3,	r13	;#0x0003
    7b2a:	4d 93       	tst.b	r13		
    7b2c:	03 24       	jz	$+8      	;abs 0x7b34
    7b2e:	b0 12 02 68 	call	#0x6802	
    7b32:	18 3c       	jmp	$+50     	;abs 0x7b64
    7b34:	69 92       	cmp.b	#4,	r9	;r2 As==10
    7b36:	03 20       	jnz	$+8      	;abs 0x7b3e
    7b38:	8b 4c 00 00 	mov	r12,	0(r11)	;0x0000(r11)
    7b3c:	30 3f       	jmp	$-414    	;abs 0x799e
    7b3e:	c2 93 78 1c 	tst.b	&0x1c78	
    7b42:	45 23       	jnz	$-372    	;abs 0x79ce
    7b44:	4f 93       	tst.b	r15		
    7b46:	03 24       	jz	$+8      	;abs 0x7b4e
    7b48:	7e 40 53 00 	mov.b	#83,	r14	;#0x0053
    7b4c:	02 3c       	jmp	$+6      	;abs 0x7b52
    7b4e:	7e 40 55 00 	mov.b	#85,	r14	;#0x0055
    7b52:	13 12       	push	#1		;r3 As==01
    7b54:	03 12       	push	#0		;r3 As==00
    7b56:	03 12       	push	#0		;r3 As==00
    7b58:	4d 43       	clr.b	r13		
    7b5a:	7f 42       	mov.b	#8,	r15	;r2 As==11
    7b5c:	b0 12 58 67 	call	#0x6758	
    7b60:	31 50 06 00 	add	#6,	r1	;#0x0006
    7b64:	29 17       	popm	#3,	r11	
    7b66:	30 41       	ret			

00007b68 <At45dbP__newRequest>:
    7b68:	0b 12       	push	r11		
    7b6a:	1b 41 04 00 	mov	4(r1),	r11	;0x0004(r1)
    7b6e:	c2 4f 41 1d 	mov.b	r15,	&0x1d41	
    7b72:	82 4b 72 1e 	mov	r11,	&0x1e72	
    7b76:	82 4c 66 1d 	mov	r12,	&0x1d66	
    7b7a:	82 4e 4a 1d 	mov	r14,	&0x1d4a	
    7b7e:	82 4d 52 21 	mov	r13,	&0x2152	
    7b82:	1e 92 1a 1d 	cmp	&0x1d1a,r14	
    7b86:	03 20       	jnz	$+8      	;abs 0x7b8e
    7b88:	c2 43 c7 1e 	mov.b	#0,	&0x1ec7	;r3 As==00
    7b8c:	0d 3c       	jmp	$+28     	;abs 0x7ba8
    7b8e:	1e 92 1e 1d 	cmp	&0x1d1e,r14	
    7b92:	03 20       	jnz	$+8      	;abs 0x7b9a
    7b94:	d2 43 c7 1e 	mov.b	#1,	&0x1ec7	;r3 As==01
    7b98:	07 3c       	jmp	$+16     	;abs 0x7ba8
    7b9a:	5c 43       	mov.b	#1,	r12	;r3 As==01
    7b9c:	c2 93 c7 1e 	tst.b	&0x1ec7	
    7ba0:	01 24       	jz	$+4      	;abs 0x7ba4
    7ba2:	4c 43       	clr.b	r12		
    7ba4:	c2 4c c7 1e 	mov.b	r12,	&0x1ec7	
    7ba8:	3e 90 00 20 	cmp	#8192,	r14	;#0x2000
    7bac:	11 2c       	jc	$+36     	;abs 0x7bd0
    7bae:	3b 90 11 02 	cmp	#529,	r11	;#0x0211
    7bb2:	0e 2c       	jc	$+30     	;abs 0x7bd0
    7bb4:	7f 90 05 00 	cmp.b	#5,	r15	;#0x0005
    7bb8:	08 24       	jz	$+18     	;abs 0x7bca
    7bba:	3d 90 10 02 	cmp	#528,	r13	;#0x0210
    7bbe:	08 2c       	jc	$+18     	;abs 0x7bd0
    7bc0:	0d 5b       	add	r11,	r13	
    7bc2:	3d 90 11 02 	cmp	#529,	r13	;#0x0211
    7bc6:	09 28       	jnc	$+20     	;abs 0x7bda
    7bc8:	03 3c       	jmp	$+8      	;abs 0x7bd0
    7bca:	3d 90 00 20 	cmp	#8192,	r13	;#0x2000
    7bce:	05 28       	jnc	$+12     	;abs 0x7bda
    7bd0:	7f 40 10 00 	mov.b	#16,	r15	;#0x0010
    7bd4:	b0 12 62 4d 	call	#0x4d62	
    7bd8:	02 3c       	jmp	$+6      	;abs 0x7bde
    7bda:	b0 12 80 79 	call	#0x7980	
    7bde:	3b 41       	pop	r11		
    7be0:	30 41       	ret			

00007be2 <LogStorageP__readMetadata>:
    7be2:	30 12 0a 00 	push	#10		;#0x000a
    7be6:	3c 40 5c 1d 	mov	#7516,	r12	;#0x1d5c
    7bea:	3d 40 06 02 	mov	#518,	r13	;#0x0206
    7bee:	0e 4f       	mov	r15,	r14	
    7bf0:	5f 43       	mov.b	#1,	r15	;r3 As==01
    7bf2:	b0 12 68 7b 	call	#0x7b68	
    7bf6:	21 53       	incd	r1		
    7bf8:	30 41       	ret			

00007bfa <LogStorageP__locateLastRecord>:
    7bfa:	1b 15       	pushm	#2,	r11	
    7bfc:	1b 42 88 1c 	mov	&0x1c88,r11	
    7c00:	1a 42 d8 1f 	mov	&0x1fd8,r10	
    7c04:	0b 9a       	cmp	r10,	r11	
    7c06:	04 20       	jnz	$+10     	;abs 0x7c10
    7c08:	1f 43       	mov	#1,	r15	;r3 As==01
    7c0a:	b0 12 b6 69 	call	#0x69b6	
    7c0e:	0e 3c       	jmp	$+30     	;abs 0x7c2c
    7c10:	b0 12 72 59 	call	#0x5972	
    7c14:	0b 9f       	cmp	r15,	r11	
    7c16:	03 20       	jnz	$+8      	;abs 0x7c1e
    7c18:	82 4a 88 1c 	mov	r10,	&0x1c88	
    7c1c:	03 3c       	jmp	$+8      	;abs 0x7c24
    7c1e:	3b 53       	add	#-1,	r11	;r3 As==11
    7c20:	82 4b 88 1c 	mov	r11,	&0x1c88	
    7c24:	1f 42 88 1c 	mov	&0x1c88,r15	
    7c28:	b0 12 e2 7b 	call	#0x7be2	
    7c2c:	1a 17       	popm	#2,	r11	
    7c2e:	30 41       	ret			

00007c30 <LogStorageP__locateBinarySearch>:
    7c30:	92 92 d8 1f 88 1c 	cmp	&0x1fd8,&0x1c88	
    7c36:	0b 28       	jnc	$+24     	;abs 0x7c4e
    7c38:	f2 40 03 00 2b 1d 	mov.b	#3,	&0x1d2b	;#0x0003
    7c3e:	b0 12 4a 5a 	call	#0x5a4a	
    7c42:	3f 53       	add	#-1,	r15	;r3 As==11
    7c44:	82 4f d8 1f 	mov	r15,	&0x1fd8	
    7c48:	b0 12 fa 7b 	call	#0x7bfa	
    7c4c:	30 41       	ret			
    7c4e:	b0 12 54 4a 	call	#0x4a54	
    7c52:	b0 12 e2 7b 	call	#0x7be2	
    7c56:	30 41       	ret			

00007c58 <LogStorageP__rmetadataContinue>:
    7c58:	0b 12       	push	r11		
    7c5a:	1b 42 88 1c 	mov	&0x1c88,r11	
    7c5e:	1b 53       	inc	r11		
    7c60:	82 4b 88 1c 	mov	r11,	&0x1c88	
    7c64:	b0 12 4a 5a 	call	#0x5a4a	
    7c68:	0b 9f       	cmp	r15,	r11	
    7c6a:	04 20       	jnz	$+10     	;abs 0x7c74
    7c6c:	b0 12 72 59 	call	#0x5972	
    7c70:	82 4f 88 1c 	mov	r15,	&0x1c88	
    7c74:	1f 42 88 1c 	mov	&0x1c88,r15	
    7c78:	5d 42 18 1c 	mov.b	&0x1c18,r13	
    7c7c:	5d 06       	rlam	#2,	r13	
    7c7e:	0e 4d       	mov	r13,	r14	
    7c80:	5e 0a       	rlam	#3,	r14	
    7c82:	0e 8d       	sub	r13,	r14	
    7c84:	0d 4e       	mov	r14,	r13	
    7c86:	3d 50 88 20 	add	#8328,	r13	;#0x2088
    7c8a:	1f 9d 0e 00 	cmp	14(r13),r15	;0x000e(r13)
    7c8e:	1f 20       	jnz	$+64     	;abs 0x7cce
    7c90:	fe b2 90 20 	bit.b	#8,	8336(r14);r2 As==11, 0x2090(r14)
    7c94:	0f 43       	clr	r15		
    7c96:	0f 6f       	rlc	r15		
    7c98:	4f 93       	tst.b	r15		
    7c9a:	04 20       	jnz	$+10     	;abs 0x7ca4
    7c9c:	0f 43       	clr	r15		
    7c9e:	b0 12 b6 69 	call	#0x69b6	
    7ca2:	17 3c       	jmp	$+48     	;abs 0x7cd2
    7ca4:	c2 43 63 1d 	mov.b	#0,	&0x1d63	;r3 As==00
    7ca8:	1e 4d 10 00 	mov	16(r13),r14	;0x0010(r13)
    7cac:	0f 43       	clr	r15		
    7cae:	1b 4d 0a 00 	mov	10(r13),r11	;0x000a(r13)
    7cb2:	1c 4d 0c 00 	mov	12(r13),r12	;0x000c(r13)
    7cb6:	0b 8e       	sub	r14,	r11	
    7cb8:	0c 7f       	subc	r15,	r12	
    7cba:	0d 4b       	mov	r11,	r13	
    7cbc:	0e 4c       	mov	r12,	r14	
    7cbe:	3f 40 5e 1d 	mov	#7518,	r15	;#0x1d5e
    7cc2:	b0 12 9c 49 	call	#0x499c	
    7cc6:	0f 43       	clr	r15		
    7cc8:	b0 12 1c 7e 	call	#0x7e1c	
    7ccc:	02 3c       	jmp	$+6      	;abs 0x7cd2
    7cce:	b0 12 e2 7b 	call	#0x7be2	
    7cd2:	3b 41       	pop	r11		
    7cd4:	30 41       	ret			

00007cd6 <LogStorageP__readContinue>:
    7cd6:	6b 15       	pushm	#7,	r11	
    7cd8:	58 42 18 1c 	mov.b	&0x1c18,r8	
    7cdc:	0a 48       	mov	r8,	r10	
    7cde:	5a 06       	rlam	#2,	r10	
    7ce0:	0f 4a       	mov	r10,	r15	
    7ce2:	5f 0a       	rlam	#3,	r15	
    7ce4:	0f 8a       	sub	r10,	r15	
    7ce6:	3f 50 88 20 	add	#8328,	r15	;#0x2088
    7cea:	17 4f 02 00 	mov	2(r15),	r7	;0x0002(r15)
    7cee:	1c 42 c0 1e 	mov	&0x1ec0,r12	
    7cf2:	1d 42 c2 1e 	mov	&0x1ec2,r13	
    7cf6:	19 4f 18 00 	mov	24(r15),r9	;0x0018(r15)
    7cfa:	15 4f 1a 00 	mov	26(r15),r5	;0x001a(r15)
    7cfe:	1e 4f 04 00 	mov	4(r15),	r14	;0x0004(r15)
    7d02:	1f 4f 06 00 	mov	6(r15),	r15	;0x0006(r15)
    7d06:	0e 8c       	sub	r12,	r14	
    7d08:	0f 7d       	subc	r13,	r15	
    7d0a:	0e 93       	tst	r14		
    7d0c:	06 20       	jnz	$+14     	;abs 0x7d1a
    7d0e:	0f 93       	tst	r15		
    7d10:	04 20       	jnz	$+10     	;abs 0x7d1a
    7d12:	0f 43       	clr	r15		
    7d14:	b0 12 b6 69 	call	#0x69b6	
    7d18:	7f 3c       	jmp	$+256    	;abs 0x7e18
    7d1a:	0b 4a       	mov	r10,	r11	
    7d1c:	5b 0a       	rlam	#3,	r11	
    7d1e:	0b 8a       	sub	r10,	r11	
    7d20:	0a 4b       	mov	r11,	r10	
    7d22:	3a 50 90 20 	add	#8336,	r10	;#0x2090
    7d26:	fa b2 00 00 	bit.b	#8,	0(r10)	;r2 As==11, 0x0000(r10)
    7d2a:	06 43       	clr	r6		
    7d2c:	06 66       	rlc	r6		
    7d2e:	3b 50 88 20 	add	#8328,	r11	;#0x2088
    7d32:	46 93       	tst.b	r6		
    7d34:	1e 20       	jnz	$+62     	;abs 0x7d72
    7d36:	ea b2 00 00 	bit.b	#4,	0(r10)	;r2 As==10, 0x0000(r10)
    7d3a:	0f 43       	clr	r15		
    7d3c:	0f 6f       	rlc	r15		
    7d3e:	4f 93       	tst.b	r15		
    7d40:	04 24       	jz	$+10     	;abs 0x7d4a
    7d42:	9b 4b 0e 00 16 00 	mov	14(r11),22(r11)	;0x000e(r11), 0x0016(r11)
    7d48:	07 3c       	jmp	$+16     	;abs 0x7d58
    7d4a:	fa d2 00 00 	bis.b	#8,	0(r10)	;r2 As==11, 0x0000(r10)
    7d4e:	b0 12 4a 5a 	call	#0x5a4a	
    7d52:	3f 53       	add	#-1,	r15	;r3 As==11
    7d54:	8b 4f 16 00 	mov	r15,	22(r11)	;0x0016(r11)
    7d58:	f2 40 05 00 2b 1d 	mov.b	#5,	&0x1d2b	;#0x0005
    7d5e:	58 06       	rlam	#2,	r8	
    7d60:	0f 48       	mov	r8,	r15	
    7d62:	5f 0a       	rlam	#3,	r15	
    7d64:	0f 88       	sub	r8,	r15	
    7d66:	3f 50 88 20 	add	#8328,	r15	;#0x2088
    7d6a:	92 4f 16 00 88 1c 	mov	22(r15),&0x1c88	;0x0016(r15)
    7d70:	21 3c       	jmp	$+68     	;abs 0x7db4
    7d72:	1a 4b 16 00 	mov	22(r11),r10	;0x0016(r11)
    7d76:	16 4b 0e 00 	mov	14(r11),r6	;0x000e(r11)
    7d7a:	0a 96       	cmp	r6,	r10	
    7d7c:	02 20       	jnz	$+6      	;abs 0x7d82
    7d7e:	15 4b 10 00 	mov	16(r11),r5	;0x0010(r11)
    7d82:	09 95       	cmp	r5,	r9	
    7d84:	1a 20       	jnz	$+54     	;abs 0x7dba
    7d86:	b0 12 4a 5a 	call	#0x5a4a	
    7d8a:	0e 4a       	mov	r10,	r14	
    7d8c:	1e 53       	inc	r14		
    7d8e:	0e 9f       	cmp	r15,	r14	
    7d90:	0a 20       	jnz	$+22     	;abs 0x7da6
    7d92:	58 06       	rlam	#2,	r8	
    7d94:	0f 48       	mov	r8,	r15	
    7d96:	5f 0a       	rlam	#3,	r15	
    7d98:	0f 88       	sub	r8,	r15	
    7d9a:	ef b3 90 20 	bit.b	#2,	8336(r15);r3 As==10, 0x2090(r15)
    7d9e:	0f 43       	clr	r15		
    7da0:	0f 6f       	rlc	r15		
    7da2:	4f 93       	tst.b	r15		
    7da4:	b6 27       	jz	$-146    	;abs 0x7d12
    7da6:	0a 96       	cmp	r6,	r10	
    7da8:	b4 27       	jz	$-150    	;abs 0x7d12
    7daa:	f2 40 05 00 2b 1d 	mov.b	#5,	&0x1d2b	;#0x0005
    7db0:	82 4a 88 1c 	mov	r10,	&0x1c88	
    7db4:	b0 12 58 7c 	call	#0x7c58	
    7db8:	2f 3c       	jmp	$+96     	;abs 0x7e18
    7dba:	0a 49       	mov	r9,	r10	
    7dbc:	0b 43       	clr	r11		
    7dbe:	0a 5e       	add	r14,	r10	
    7dc0:	0b 6f       	addc	r15,	r11	
    7dc2:	06 43       	clr	r6		
    7dc4:	06 9b       	cmp	r11,	r6	
    7dc6:	05 28       	jnc	$+12     	;abs 0x7dd2
    7dc8:	02 20       	jnz	$+6      	;abs 0x7dce
    7dca:	05 9a       	cmp	r10,	r5	
    7dcc:	02 28       	jnc	$+6      	;abs 0x7dd2
    7dce:	0a 4e       	mov	r14,	r10	
    7dd0:	02 3c       	jmp	$+6      	;abs 0x7dd6
    7dd2:	0a 45       	mov	r5,	r10	
    7dd4:	0a 89       	sub	r9,	r10	
    7dd6:	0e 4a       	mov	r10,	r14	
    7dd8:	0f 43       	clr	r15		
    7dda:	05 4e       	mov	r14,	r5	
    7ddc:	06 4f       	mov	r15,	r6	
    7dde:	05 5c       	add	r12,	r5	
    7de0:	06 6d       	addc	r13,	r6	
    7de2:	82 45 c0 1e 	mov	r5,	&0x1ec0	
    7de6:	82 46 c2 1e 	mov	r6,	&0x1ec2	
    7dea:	58 06       	rlam	#2,	r8	
    7dec:	0b 48       	mov	r8,	r11	
    7dee:	5b 0a       	rlam	#3,	r11	
    7df0:	0b 88       	sub	r8,	r11	
    7df2:	3b 50 88 20 	add	#8328,	r11	;#0x2088
    7df6:	8b 5e 12 00 	add	r14,	18(r11)	;0x0012(r11)
    7dfa:	8b 6f 14 00 	addc	r15,	20(r11)	;0x0014(r11)
    7dfe:	06 4a       	mov	r10,	r6	
    7e00:	06 59       	add	r9,	r6	
    7e02:	8b 46 18 00 	mov	r6,	24(r11)	;0x0018(r11)
    7e06:	0a 12       	push	r10		
    7e08:	0c 57       	add	r7,	r12	
    7e0a:	0d 49       	mov	r9,	r13	
    7e0c:	1e 4b 16 00 	mov	22(r11),r14	;0x0016(r11)
    7e10:	5f 43       	mov.b	#1,	r15	;r3 As==01
    7e12:	b0 12 68 7b 	call	#0x7b68	
    7e16:	21 53       	incd	r1		
    7e18:	65 17       	popm	#7,	r11	
    7e1a:	30 41       	ret			

00007e1c <LogStorageP__continueReadAt>:
    7e1c:	2b 15       	pushm	#3,	r11	
    7e1e:	09 4f       	mov	r15,	r9	
    7e20:	c2 43 2b 1d 	mov.b	#0,	&0x1d2b	;r3 As==00
    7e24:	5a 42 18 1c 	mov.b	&0x1c18,r10	
    7e28:	3f 40 5e 1d 	mov	#7518,	r15	;#0x1d5e
    7e2c:	b0 12 c8 49 	call	#0x49c8	
    7e30:	5a 06       	rlam	#2,	r10	
    7e32:	0b 4a       	mov	r10,	r11	
    7e34:	5b 0a       	rlam	#3,	r11	
    7e36:	0b 8a       	sub	r10,	r11	
    7e38:	3b 50 88 20 	add	#8328,	r11	;#0x2088
    7e3c:	0c 49       	mov	r9,	r12	
    7e3e:	0d 43       	clr	r13		
    7e40:	0e 5c       	add	r12,	r14	
    7e42:	0f 6d       	addc	r13,	r15	
    7e44:	8b 4e 12 00 	mov	r14,	18(r11)	;0x0012(r11)
    7e48:	8b 4f 14 00 	mov	r15,	20(r11)	;0x0014(r11)
    7e4c:	9b 42 88 1c 16 00 	mov	&0x1c88,22(r11)	;0x0016(r11)
    7e52:	8b 49 18 00 	mov	r9,	24(r11)	;0x0018(r11)
    7e56:	d2 b3 63 1d 	bit.b	#1,	&0x1d63	;r3 As==01
    7e5a:	03 24       	jz	$+8      	;abs 0x7e62
    7e5c:	5e 42 62 1d 	mov.b	&0x1d62,r14	
    7e60:	02 3c       	jmp	$+6      	;abs 0x7e66
    7e62:	3e 40 06 02 	mov	#518,	r14	;#0x0206
    7e66:	0f 4a       	mov	r10,	r15	
    7e68:	5f 0a       	rlam	#3,	r15	
    7e6a:	0f 8a       	sub	r10,	r15	
    7e6c:	8f 4e a2 20 	mov	r14,	8354(r15);0x20a2(r15)
    7e70:	ff d2 90 20 	bis.b	#8,	8336(r15);r2 As==11, 0x2090(r15)
    7e74:	b0 12 d6 7c 	call	#0x7cd6	
    7e78:	29 17       	popm	#3,	r11	
    7e7a:	30 41       	ret			

00007e7c <LogStorageP__crcPage>:
    7e7c:	30 12 0e 02 	push	#526		;#0x020e
    7e80:	0c 43       	clr	r12		
    7e82:	0d 43       	clr	r13		
    7e84:	0e 4f       	mov	r15,	r14	
    7e86:	6f 43       	mov.b	#2,	r15	;r3 As==10
    7e88:	b0 12 68 7b 	call	#0x7b68	
    7e8c:	21 53       	incd	r1		
    7e8e:	30 41       	ret			

00007e90 <LogStorageP__wmetadataStart>:
    7e90:	0b 12       	push	r11		
    7e92:	f2 40 06 00 2b 1d 	mov.b	#6,	&0x1d2b	;#0x0006
    7e98:	5f 42 18 1c 	mov.b	&0x1c18,r15	
    7e9c:	5f 06       	rlam	#2,	r15	
    7e9e:	0d 4f       	mov	r15,	r13	
    7ea0:	5d 0a       	rlam	#3,	r13	
    7ea2:	0d 8f       	sub	r15,	r13	
    7ea4:	3d 50 88 20 	add	#8328,	r13	;#0x2088
    7ea8:	92 4d 0e 00 88 1c 	mov	14(r13),&0x1c88	;0x000e(r13)
    7eae:	1e 4d 10 00 	mov	16(r13),r14	;0x0010(r13)
    7eb2:	0f 43       	clr	r15		
    7eb4:	1b 4d 0a 00 	mov	10(r13),r11	;0x000a(r13)
    7eb8:	1c 4d 0c 00 	mov	12(r13),r12	;0x000c(r13)
    7ebc:	0b 8e       	sub	r14,	r11	
    7ebe:	0c 7f       	subc	r15,	r12	
    7ec0:	0d 4b       	mov	r11,	r13	
    7ec2:	0e 4c       	mov	r12,	r14	
    7ec4:	3f 40 5e 1d 	mov	#7518,	r15	;#0x1d5e
    7ec8:	b0 12 9c 49 	call	#0x499c	
    7ecc:	f2 40 56 00 5d 1d 	mov.b	#86,	&0x1d5d	;#0x0056
    7ed2:	f2 40 42 00 5c 1d 	mov.b	#66,	&0x1d5c	;#0x0042
    7ed8:	5f 42 18 1c 	mov.b	&0x1c18,r15	
    7edc:	5f 06       	rlam	#2,	r15	
    7ede:	0e 4f       	mov	r15,	r14	
    7ee0:	5e 0a       	rlam	#3,	r14	
    7ee2:	0e 8f       	sub	r15,	r14	
    7ee4:	ee b2 90 20 	bit.b	#4,	8336(r14);r2 As==10, 0x2090(r14)
    7ee8:	0f 43       	clr	r15		
    7eea:	0f 6f       	rlc	r15		
    7eec:	4f 93       	tst.b	r15		
    7eee:	02 24       	jz	$+6      	;abs 0x7ef4
    7ef0:	e2 d3 63 1d 	bis.b	#2,	&0x1d63	;r3 As==10
    7ef4:	30 12 06 02 	push	#518		;#0x0206
    7ef8:	0c 43       	clr	r12		
    7efa:	0d 43       	clr	r13		
    7efc:	1e 42 88 1c 	mov	&0x1c88,r14	
    7f00:	6f 43       	mov.b	#2,	r15	;r3 As==10
    7f02:	b0 12 68 7b 	call	#0x7b68	
    7f06:	21 53       	incd	r1		
    7f08:	5e 42 18 1c 	mov.b	&0x1c18,r14	
    7f0c:	5e 06       	rlam	#2,	r14	
    7f0e:	0f 4e       	mov	r14,	r15	
    7f10:	5f 0a       	rlam	#3,	r15	
    7f12:	0f 8e       	sub	r14,	r15	
    7f14:	3f 50 88 20 	add	#8328,	r15	;#0x2088
    7f18:	1f 4f 0e 00 	mov	14(r15),r15	;0x000e(r15)
    7f1c:	1f 53       	inc	r15		
    7f1e:	b0 12 5a 5a 	call	#0x5a5a	
    7f22:	5e 42 18 1c 	mov.b	&0x1c18,r14	
    7f26:	5e 06       	rlam	#2,	r14	
    7f28:	0f 4e       	mov	r14,	r15	
    7f2a:	5f 0a       	rlam	#3,	r15	
    7f2c:	0f 8e       	sub	r14,	r15	
    7f2e:	0e 4f       	mov	r15,	r14	
    7f30:	3e 50 88 20 	add	#8328,	r14	;#0x2088
    7f34:	9e 9e 16 00 0e 00 	cmp	22(r14),14(r14)	;0x0016(r14), 0x000e(r14)
    7f3a:	02 20       	jnz	$+6      	;abs 0x7f40
    7f3c:	ff c2 90 20 	bic.b	#8,	8336(r15);r2 As==11, 0x2090(r15)
    7f40:	3b 41       	pop	r11		
    7f42:	30 41       	ret			

00007f44 <LogStorageP__sync>:
    7f44:	f2 40 05 00 63 1d 	mov.b	#5,	&0x1d63	;#0x0005
    7f4a:	5e 42 18 1c 	mov.b	&0x1c18,r14	
    7f4e:	5e 06       	rlam	#2,	r14	
    7f50:	0f 4e       	mov	r14,	r15	
    7f52:	5f 0a       	rlam	#3,	r15	
    7f54:	0f 8e       	sub	r14,	r15	
    7f56:	3f 50 88 20 	add	#8328,	r15	;#0x2088
    7f5a:	1e 4f 10 00 	mov	16(r15),r14	;0x0010(r15)
    7f5e:	c2 4e 62 1d 	mov.b	r14,	&0x1d62	
    7f62:	9f 9f 0e 00 16 00 	cmp	14(r15),22(r15)	;0x000e(r15), 0x0016(r15)
    7f68:	02 20       	jnz	$+6      	;abs 0x7f6e
    7f6a:	8f 4e 1a 00 	mov	r14,	26(r15)	;0x001a(r15)
    7f6e:	b0 12 90 7e 	call	#0x7e90	
    7f72:	30 41       	ret			

00007f74 <LogStorageP__eraseEraseDone>:
    7f74:	1f 42 88 1c 	mov	&0x1c88,r15	
    7f78:	1e 42 d8 1f 	mov	&0x1fd8,r14	
    7f7c:	3e 53       	add	#-1,	r14	;r3 As==11
    7f7e:	0f 9e       	cmp	r14,	r15	
    7f80:	16 20       	jnz	$+46     	;abs 0x7fae
    7f82:	f2 40 05 00 63 1d 	mov.b	#5,	&0x1d63	;#0x0005
    7f88:	c2 43 62 1d 	mov.b	#0,	&0x1d62	;r3 As==00
    7f8c:	b0 12 5a 5a 	call	#0x5a5a	
    7f90:	5e 42 18 1c 	mov.b	&0x1c18,r14	
    7f94:	5e 06       	rlam	#2,	r14	
    7f96:	0f 4e       	mov	r14,	r15	
    7f98:	5f 0a       	rlam	#3,	r15	
    7f9a:	0f 8e       	sub	r14,	r15	
    7f9c:	ef c2 90 20 	bic.b	#4,	8336(r15);r2 As==10, 0x2090(r15)
    7fa0:	8f 43 92 20 	mov	#0,	8338(r15);r3 As==00, 0x2092(r15)
    7fa4:	8f 43 94 20 	mov	#0,	8340(r15);r3 As==00, 0x2094(r15)
    7fa8:	b0 12 90 7e 	call	#0x7e90	
    7fac:	30 41       	ret			
    7fae:	0e 4f       	mov	r15,	r14	
    7fb0:	1e 53       	inc	r14		
    7fb2:	82 4e 88 1c 	mov	r14,	&0x1c88	
    7fb6:	03 12       	push	#0		;r3 As==00
    7fb8:	0c 43       	clr	r12		
    7fba:	0d 43       	clr	r13		
    7fbc:	0e 4f       	mov	r15,	r14	
    7fbe:	6f 42       	mov.b	#4,	r15	;r2 As==10
    7fc0:	b0 12 68 7b 	call	#0x7b68	
    7fc4:	21 53       	incd	r1		
    7fc6:	30 41       	ret			

00007fc8 <LogStorageP__appendContinue>:
    7fc8:	6b 15       	pushm	#7,	r11	
    7fca:	55 42 18 1c 	mov.b	&0x1c18,r5	
    7fce:	0e 45       	mov	r5,	r14	
    7fd0:	5e 06       	rlam	#2,	r14	
    7fd2:	0f 4e       	mov	r14,	r15	
    7fd4:	5f 0a       	rlam	#3,	r15	
    7fd6:	0f 8e       	sub	r14,	r15	
    7fd8:	3f 50 88 20 	add	#8328,	r15	;#0x2088
    7fdc:	17 4f 02 00 	mov	2(r15),	r7	;0x0002(r15)
    7fe0:	18 42 c0 1e 	mov	&0x1ec0,r8	
    7fe4:	19 42 c2 1e 	mov	&0x1ec2,r9	
    7fe8:	16 4f 10 00 	mov	16(r15),r6	;0x0010(r15)
    7fec:	1a 4f 04 00 	mov	4(r15),	r10	;0x0004(r15)
    7ff0:	1b 4f 06 00 	mov	6(r15),	r11	;0x0006(r15)
    7ff4:	0a 88       	sub	r8,	r10	
    7ff6:	0b 79       	subc	r9,	r11	
    7ff8:	0a 93       	tst	r10		
    7ffa:	04 20       	jnz	$+10     	;abs 0x8004
    7ffc:	0b 93       	tst	r11		
    7ffe:	02 20       	jnz	$+6      	;abs 0x8004
    8000:	0f 43       	clr	r15		
    8002:	0d 3c       	jmp	$+28     	;abs 0x801e
    8004:	b0 12 4a 5a 	call	#0x5a4a	
    8008:	0d 45       	mov	r5,	r13	
    800a:	5d 06       	rlam	#2,	r13	
    800c:	0e 4d       	mov	r13,	r14	
    800e:	5e 0a       	rlam	#3,	r14	
    8010:	0e 8d       	sub	r13,	r14	
    8012:	3e 50 88 20 	add	#8328,	r14	;#0x2088
    8016:	1f 9e 0e 00 	cmp	14(r14),r15	;0x000e(r14)
    801a:	04 20       	jnz	$+10     	;abs 0x8024
    801c:	2f 43       	mov	#2,	r15	;r3 As==10
    801e:	b0 12 b6 69 	call	#0x69b6	
    8022:	3e 3c       	jmp	$+126    	;abs 0x80a0
    8024:	0e 46       	mov	r6,	r14	
    8026:	0f 43       	clr	r15		
    8028:	0e 5a       	add	r10,	r14	
    802a:	0f 6b       	addc	r11,	r15	
    802c:	1f 93       	cmp	#1,	r15	;r3 As==01
    802e:	03 2c       	jc	$+8      	;abs 0x8036
    8030:	3e 90 07 02 	cmp	#519,	r14	;#0x0207
    8034:	03 28       	jnc	$+8      	;abs 0x803c
    8036:	3a 40 06 02 	mov	#518,	r10	;#0x0206
    803a:	0a 86       	sub	r6,	r10	
    803c:	0e 4a       	mov	r10,	r14	
    803e:	0f 43       	clr	r15		
    8040:	0c 45       	mov	r5,	r12	
    8042:	5c 06       	rlam	#2,	r12	
    8044:	0d 4c       	mov	r12,	r13	
    8046:	5d 0a       	rlam	#3,	r13	
    8048:	0d 8c       	sub	r12,	r13	
    804a:	0c 4d       	mov	r13,	r12	
    804c:	3c 50 88 20 	add	#8328,	r12	;#0x2088
    8050:	8c 5e 0a 00 	add	r14,	10(r12)	;0x000a(r12)
    8054:	8c 6f 0c 00 	addc	r15,	12(r12)	;0x000c(r12)
    8058:	8c 5a 10 00 	add	r10,	16(r12)	;0x0010(r12)
    805c:	0b 4e       	mov	r14,	r11	
    805e:	0c 4f       	mov	r15,	r12	
    8060:	0b 58       	add	r8,	r11	
    8062:	0c 69       	addc	r9,	r12	
    8064:	82 4b c0 1e 	mov	r11,	&0x1ec0	
    8068:	82 4c c2 1e 	mov	r12,	&0x1ec2	
    806c:	06 93       	tst	r6		
    806e:	07 20       	jnz	$+16     	;abs 0x807e
    8070:	ed b2 90 20 	bit.b	#4,	8336(r13);r2 As==10, 0x2090(r13)
    8074:	0f 6f       	rlc	r15		
    8076:	4f 93       	tst.b	r15		
    8078:	02 24       	jz	$+6      	;abs 0x807e
    807a:	d2 43 79 1c 	mov.b	#1,	&0x1c79	;r3 As==01
    807e:	55 06       	rlam	#2,	r5	
    8080:	0f 45       	mov	r5,	r15	
    8082:	5f 0a       	rlam	#3,	r15	
    8084:	0f 85       	sub	r5,	r15	
    8086:	3f 50 88 20 	add	#8328,	r15	;#0x2088
    808a:	0a 12       	push	r10		
    808c:	0c 47       	mov	r7,	r12	
    808e:	0c 58       	add	r8,	r12	
    8090:	0d 46       	mov	r6,	r13	
    8092:	1e 4f 0e 00 	mov	14(r15),r14	;0x000e(r15)
    8096:	7f 40 03 00 	mov.b	#3,	r15	;#0x0003
    809a:	b0 12 68 7b 	call	#0x7b68	
    809e:	21 53       	incd	r1		
    80a0:	65 17       	popm	#7,	r11	
    80a2:	30 41       	ret			

000080a4 <LogStorageP__appendStart>:
    80a4:	4b 15       	pushm	#5,	r11	
    80a6:	5e 42 18 1c 	mov.b	&0x1c18,r14	
    80aa:	47 4e       	mov.b	r14,	r7	
    80ac:	0d 47       	mov	r7,	r13	
    80ae:	5d 06       	rlam	#2,	r13	
    80b0:	0f 4d       	mov	r13,	r15	
    80b2:	5f 0a       	rlam	#3,	r15	
    80b4:	0f 8d       	sub	r13,	r15	
    80b6:	3f 50 88 20 	add	#8328,	r15	;#0x2088
    80ba:	18 4f 04 00 	mov	4(r15),	r8	;0x0004(r15)
    80be:	19 4f 06 00 	mov	6(r15),	r9	;0x0006(r15)
    80c2:	18 82 c0 1e 	sub	&0x1ec0,r8	
    80c6:	19 72 c2 1e 	subc	&0x1ec2,r9	
    80ca:	4e 93       	tst.b	r14		
    80cc:	02 24       	jz	$+6      	;abs 0x80d2
    80ce:	0f 43       	clr	r15		
    80d0:	02 3c       	jmp	$+6      	;abs 0x80d6
    80d2:	3f 40 00 02 	mov	#512,	r15	;#0x0200
    80d6:	02 12       	push	r2		
    80d8:	32 c2       	dint			
    80da:	03 43       	nop			
    80dc:	82 4f c0 04 	mov	r15,	&0x04c0	
    80e0:	b2 40 06 02 c8 04 	mov	#518,	&0x04c8	;#0x0206
    80e6:	1a 42 ca 04 	mov	&0x04ca,r10	
    80ea:	1b 42 cc 04 	mov	&0x04cc,r11	
    80ee:	32 41       	pop	r2		
    80f0:	c2 43 79 1c 	mov.b	#0,	&0x1c79	;r3 As==00
    80f4:	0e 47       	mov	r7,	r14	
    80f6:	5e 06       	rlam	#2,	r14	
    80f8:	0f 4e       	mov	r14,	r15	
    80fa:	5f 0a       	rlam	#3,	r15	
    80fc:	0f 8e       	sub	r14,	r15	
    80fe:	3f 50 88 20 	add	#8328,	r15	;#0x2088
    8102:	0c 4a       	mov	r10,	r12	
    8104:	0d 4b       	mov	r11,	r13	
    8106:	1e 4f 0a 00 	mov	10(r15),r14	;0x000a(r15)
    810a:	1f 4f 0c 00 	mov	12(r15),r15	;0x000c(r15)
    810e:	3e 50 fa fd 	add	#-518,	r14	;#0xfdfa
    8112:	3f 63       	addc	#-1,	r15	;r3 As==11
    8114:	b0 12 14 af 	call	#0xaf14	
    8118:	0a 88       	sub	r8,	r10	
    811a:	0b 79       	subc	r9,	r11	
    811c:	0f 9b       	cmp	r11,	r15	
    811e:	06 28       	jnc	$+14     	;abs 0x812c
    8120:	02 20       	jnz	$+6      	;abs 0x8126
    8122:	0e 9a       	cmp	r10,	r14	
    8124:	03 28       	jnc	$+8      	;abs 0x812c
    8126:	b0 12 44 7f 	call	#0x7f44	
    812a:	0d 3c       	jmp	$+28     	;abs 0x8146
    812c:	57 06       	rlam	#2,	r7	
    812e:	0f 47       	mov	r7,	r15	
    8130:	5f 0a       	rlam	#3,	r15	
    8132:	0f 87       	sub	r7,	r15	
    8134:	3f 50 88 20 	add	#8328,	r15	;#0x2088
    8138:	d2 4f 10 00 62 1d 	mov.b	16(r15),&0x1d62	;0x0010(r15)
    813e:	e2 42 63 1d 	mov.b	#4,	&0x1d63	;r2 As==10
    8142:	b0 12 c8 7f 	call	#0x7fc8	
    8146:	47 17       	popm	#5,	r11	
    8148:	30 41       	ret			

0000814a <LogStorageP__startRequest>:
    814a:	7b 15       	pushm	#8,	r11	
    814c:	56 42 18 1c 	mov.b	&0x1c18,r6	
    8150:	47 46       	mov.b	r6,	r7	
    8152:	0e 47       	mov	r7,	r14	
    8154:	5e 06       	rlam	#2,	r14	
    8156:	0f 4e       	mov	r14,	r15	
    8158:	5f 0a       	rlam	#3,	r15	
    815a:	0f 8e       	sub	r14,	r15	
    815c:	df b3 90 20 	bit.b	#1,	8336(r15);r3 As==01, 0x2090(r15)
    8160:	0e 43       	clr	r14		
    8162:	0e 6e       	rlc	r14		
    8164:	4e 93       	tst.b	r14		
    8166:	0f 20       	jnz	$+32     	;abs 0x8186
    8168:	df 93 88 20 	cmp.b	#1,	8328(r15);r3 As==01, 0x2088(r15)
    816c:	0c 24       	jz	$+26     	;abs 0x8186
    816e:	d2 43 2b 1d 	mov.b	#1,	&0x1d2b	;r3 As==01
    8172:	b0 12 72 59 	call	#0x5972	
    8176:	82 4f 88 1c 	mov	r15,	&0x1c88	
    817a:	b0 12 4a 5a 	call	#0x5a4a	
    817e:	3f 53       	add	#-1,	r15	;r3 As==11
    8180:	82 4f d8 1f 	mov	r15,	&0x1fd8	
    8184:	c1 3c       	jmp	$+388    	;abs 0x8308
    8186:	c2 43 2b 1d 	mov.b	#0,	&0x1d2b	;r3 As==00
    818a:	0e 47       	mov	r7,	r14	
    818c:	5e 06       	rlam	#2,	r14	
    818e:	0f 4e       	mov	r14,	r15	
    8190:	5f 0a       	rlam	#3,	r15	
    8192:	0f 8e       	sub	r14,	r15	
    8194:	5f 4f 88 20 	mov.b	8328(r15),r15	;0x2088(r15)
    8198:	7f 53       	add.b	#-1,	r15	;r3 As==11
    819a:	7f 90 05 00 	cmp.b	#5,	r15	;#0x0005
    819e:	b6 2c       	jc	$+366    	;abs 0x830c
    81a0:	4f 4f       	mov.b	r15,	r15	
    81a2:	5f 02       	rlam	#1,	r15	
    81a4:	10 4f 4c c1 	br	-16052(r15)	;0xc14c(r15)
    81a8:	57 06       	rlam	#2,	r7	
    81aa:	0f 47       	mov	r7,	r15	
    81ac:	5f 0a       	rlam	#3,	r15	
    81ae:	0f 87       	sub	r7,	r15	
    81b0:	df c3 90 20 	bic.b	#1,	8336(r15);r3 As==01, 0x2090(r15)
    81b4:	b0 12 72 59 	call	#0x5972	
    81b8:	82 4f 88 1c 	mov	r15,	&0x1c88	
    81bc:	b0 12 4a 5a 	call	#0x5a4a	
    81c0:	82 4f d8 1f 	mov	r15,	&0x1fd8	
    81c4:	b0 12 74 7f 	call	#0x7f74	
    81c8:	a1 3c       	jmp	$+324    	;abs 0x830c
    81ca:	b0 12 a4 80 	call	#0x80a4	
    81ce:	9e 3c       	jmp	$+318    	;abs 0x830c
    81d0:	57 06       	rlam	#2,	r7	
    81d2:	0f 47       	mov	r7,	r15	
    81d4:	5f 0a       	rlam	#3,	r15	
    81d6:	0f 87       	sub	r7,	r15	
    81d8:	3f 50 88 20 	add	#8328,	r15	;#0x2088
    81dc:	8f 93 10 00 	tst	16(r15)	;0x0010(r15)
    81e0:	02 20       	jnz	$+6      	;abs 0x81e6
    81e2:	0f 43       	clr	r15		
    81e4:	34 3c       	jmp	$+106    	;abs 0x824e
    81e6:	b0 12 44 7f 	call	#0x7f44	
    81ea:	90 3c       	jmp	$+290    	;abs 0x830c
    81ec:	b0 12 d6 7c 	call	#0x7cd6	
    81f0:	8d 3c       	jmp	$+284    	;abs 0x830c
    81f2:	0e 47       	mov	r7,	r14	
    81f4:	5e 06       	rlam	#2,	r14	
    81f6:	0f 4e       	mov	r14,	r15	
    81f8:	5f 0a       	rlam	#3,	r15	
    81fa:	0f 8e       	sub	r14,	r15	
    81fc:	0d 4f       	mov	r15,	r13	
    81fe:	3d 50 88 20 	add	#8328,	r13	;#0x2088
    8202:	0a 43       	clr	r10		
    8204:	0b 43       	clr	r11		
    8206:	1b 4d 02 00 	mov	2(r13),	r11	;0x0002(r13)
    820a:	1a dd 04 00 	bis	4(r13),	r10	;0x0004(r13)
    820e:	1b dd 06 00 	bis	6(r13),	r11	;0x0006(r13)
    8212:	ff c2 90 20 	bic.b	#8,	8336(r15);r2 As==11, 0x2090(r15)
    8216:	0a 93       	tst	r10		
    8218:	05 20       	jnz	$+12     	;abs 0x8224
    821a:	0b 93       	tst	r11		
    821c:	03 20       	jnz	$+8      	;abs 0x8224
    821e:	3a 40 06 02 	mov	#518,	r10	;#0x0206
    8222:	0b 43       	clr	r11		
    8224:	0f 4e       	mov	r14,	r15	
    8226:	5f 0a       	rlam	#3,	r15	
    8228:	0f 8e       	sub	r14,	r15	
    822a:	3f 50 88 20 	add	#8328,	r15	;#0x2088
    822e:	3f 50 0a 00 	add	#10,	r15	;#0x000a
    8232:	8f 9b 02 00 	cmp	r11,	2(r15)	;0x0002(r15)
    8236:	09 28       	jnc	$+20     	;abs 0x824a
    8238:	03 20       	jnz	$+8      	;abs 0x8240
    823a:	8f 9a 00 00 	cmp	r10,	0(r15)	;0x0000(r15)
    823e:	05 28       	jnc	$+12     	;abs 0x824a
    8240:	1b 93       	cmp	#1,	r11	;r3 As==01
    8242:	08 2c       	jc	$+18     	;abs 0x8254
    8244:	3a 90 06 02 	cmp	#518,	r10	;#0x0206
    8248:	05 2c       	jc	$+12     	;abs 0x8254
    824a:	3f 40 06 00 	mov	#6,	r15	;#0x0006
    824e:	b0 12 b6 69 	call	#0x69b6	
    8252:	5c 3c       	jmp	$+186    	;abs 0x830c
    8254:	05 47       	mov	r7,	r5	
    8256:	55 06       	rlam	#2,	r5	
    8258:	0f 45       	mov	r5,	r15	
    825a:	5f 0a       	rlam	#3,	r15	
    825c:	0f 85       	sub	r5,	r15	
    825e:	3f 50 88 20 	add	#8328,	r15	;#0x2088
    8262:	8f 4a 12 00 	mov	r10,	18(r15)	;0x0012(r15)
    8266:	8f 4b 14 00 	mov	r11,	20(r15)	;0x0014(r15)
    826a:	08 4a       	mov	r10,	r8	
    826c:	09 4b       	mov	r11,	r9	
    826e:	38 50 fa fd 	add	#-518,	r8	;#0xfdfa
    8272:	39 63       	addc	#-1,	r9	;r3 As==11
    8274:	04 4f       	mov	r15,	r4	
    8276:	34 50 18 00 	add	#24,	r4	;#0x0018
    827a:	3c 40 06 02 	mov	#518,	r12	;#0x0206
    827e:	0d 43       	clr	r13		
    8280:	0e 48       	mov	r8,	r14	
    8282:	0f 49       	mov	r9,	r15	
    8284:	b0 12 14 af 	call	#0xaf14	
    8288:	84 4e 00 00 	mov	r14,	0(r4)	;0x0000(r4)
    828c:	b0 12 72 59 	call	#0x5972	
    8290:	04 4f       	mov	r15,	r4	
    8292:	3c 40 06 02 	mov	#518,	r12	;#0x0206
    8296:	0d 43       	clr	r13		
    8298:	0e 48       	mov	r8,	r14	
    829a:	0f 49       	mov	r9,	r15	
    829c:	b0 12 e6 ae 	call	#0xaee6	
    82a0:	46 93       	tst.b	r6		
    82a2:	02 24       	jz	$+6      	;abs 0x82a8
    82a4:	0c 43       	clr	r12		
    82a6:	02 3c       	jmp	$+6      	;abs 0x82ac
    82a8:	3c 40 00 02 	mov	#512,	r12	;#0x0200
    82ac:	09 45       	mov	r5,	r9	
    82ae:	59 0a       	rlam	#3,	r9	
    82b0:	09 85       	sub	r5,	r9	
    82b2:	39 50 88 20 	add	#8328,	r9	;#0x2088
    82b6:	08 49       	mov	r9,	r8	
    82b8:	38 50 16 00 	add	#22,	r8	;#0x0016
    82bc:	0d 43       	clr	r13		
    82be:	b0 12 14 af 	call	#0xaf14	
    82c2:	04 5e       	add	r14,	r4	
    82c4:	88 44 00 00 	mov	r4,	0(r8)	;0x0000(r8)
    82c8:	b9 40 06 02 1a 00 	mov	#518,	26(r9)	;#0x0206, 0x001a(r9)
    82ce:	0f 44       	mov	r4,	r15	
    82d0:	14 99 0e 00 	cmp	14(r9),	r4	;0x000e(r9)
    82d4:	17 20       	jnz	$+48     	;abs 0x8304
    82d6:	1e 49 10 00 	mov	16(r9),	r14	;0x0010(r9)
    82da:	0f 43       	clr	r15		
    82dc:	1c 49 0a 00 	mov	10(r9),	r12	;0x000a(r9)
    82e0:	1d 49 0c 00 	mov	12(r9),	r13	;0x000c(r9)
    82e4:	0c 8e       	sub	r14,	r12	
    82e6:	0d 7f       	subc	r15,	r13	
    82e8:	0e 4c       	mov	r12,	r14	
    82ea:	0f 4d       	mov	r13,	r15	
    82ec:	0b 9f       	cmp	r15,	r11	
    82ee:	79 2b       	jnc	$-268    	;abs 0x81e2
    82f0:	02 20       	jnz	$+6      	;abs 0x82f6
    82f2:	0a 9c       	cmp	r12,	r10	
    82f4:	76 2b       	jnc	$-274    	;abs 0x81e2
    82f6:	57 06       	rlam	#2,	r7	
    82f8:	0f 47       	mov	r7,	r15	
    82fa:	5f 0a       	rlam	#3,	r15	
    82fc:	0f 87       	sub	r7,	r15	
    82fe:	ff d2 90 20 	bis.b	#8,	8336(r15);r2 As==11, 0x2090(r15)
    8302:	6f 3f       	jmp	$-288    	;abs 0x81e2
    8304:	e2 42 2b 1d 	mov.b	#4,	&0x1d2b	;r2 As==10
    8308:	b0 12 e2 7b 	call	#0x7be2	
    830c:	74 17       	popm	#8,	r11	
    830e:	30 41       	ret			

00008310 <BlockStorageP__multipageContinue>:
    8310:	7b 15       	pushm	#8,	r11	
    8312:	21 82       	sub	#4,	r1	;r2 As==10
    8314:	81 4f 02 00 	mov	r15,	2(r1)	;0x0002(r1)
    8318:	54 42 0b 1c 	mov.b	&0x1c0b,r4	
    831c:	45 44       	mov.b	r4,	r5	
    831e:	18 42 26 1d 	mov	&0x1d26,r8	
    8322:	19 42 28 1d 	mov	&0x1d28,r9	
    8326:	0e 45       	mov	r5,	r14	
    8328:	5e 06       	rlam	#2,	r14	
    832a:	0d 45       	mov	r5,	r13	
    832c:	5d 0e       	rlam	#4,	r13	
    832e:	0f 4d       	mov	r13,	r15	
    8330:	0f 8e       	sub	r14,	r15	
    8332:	3f 50 52 1e 	add	#7762,	r15	;#0x1e52
    8336:	1a 4f 08 00 	mov	8(r15),	r10	;0x0008(r15)
    833a:	1b 4f 0a 00 	mov	10(r15),r11	;0x000a(r15)
    833e:	0a 88       	sub	r8,	r10	
    8340:	0b 79       	subc	r9,	r11	
    8342:	91 4f 02 00 00 00 	mov	2(r15),	0(r1)	;0x0002(r15), 0x0000(r1)
    8348:	0a 93       	tst	r10		
    834a:	08 20       	jnz	$+18     	;abs 0x835c
    834c:	0b 93       	tst	r11		
    834e:	06 20       	jnz	$+14     	;abs 0x835c
    8350:	1e 41 02 00 	mov	2(r1),	r14	;0x0002(r1)
    8354:	0f 43       	clr	r15		
    8356:	b0 12 16 71 	call	#0x7116	
    835a:	4e 3c       	jmp	$+158    	;abs 0x83f8
    835c:	0d 8e       	sub	r14,	r13	
    835e:	3d 50 52 1e 	add	#7762,	r13	;#0x1e52
    8362:	06 48       	mov	r8,	r6	
    8364:	07 49       	mov	r9,	r7	
    8366:	16 5d 04 00 	add	4(r13),	r6	;0x0004(r13)
    836a:	17 6d 06 00 	addc	6(r13),	r7	;0x0006(r13)
    836e:	3c 40 10 02 	mov	#528,	r12	;#0x0210
    8372:	0d 43       	clr	r13		
    8374:	0e 46       	mov	r6,	r14	
    8376:	0f 47       	mov	r7,	r15	
    8378:	b0 12 e6 ae 	call	#0xaee6	
    837c:	4f 44       	mov.b	r4,	r15	
    837e:	b0 12 a2 58 	call	#0x58a2	
    8382:	04 4f       	mov	r15,	r4	
    8384:	3c 40 10 02 	mov	#528,	r12	;#0x0210
    8388:	0d 43       	clr	r13		
    838a:	0e 46       	mov	r6,	r14	
    838c:	0f 47       	mov	r7,	r15	
    838e:	b0 12 14 af 	call	#0xaf14	
    8392:	0d 4e       	mov	r14,	r13	
    8394:	37 40 10 02 	mov	#528,	r7	;#0x0210
    8398:	07 8e       	sub	r14,	r7	
    839a:	0b 93       	tst	r11		
    839c:	03 20       	jnz	$+8      	;abs 0x83a4
    839e:	0a 97       	cmp	r7,	r10	
    83a0:	01 2c       	jc	$+4      	;abs 0x83a4
    83a2:	07 4a       	mov	r10,	r7	
    83a4:	0f 45       	mov	r5,	r15	
    83a6:	5f 06       	rlam	#2,	r15	
    83a8:	55 0e       	rlam	#4,	r5	
    83aa:	05 8f       	sub	r15,	r5	
    83ac:	5f 45 52 1e 	mov.b	7762(r5),r15	;0x1e52(r5)
    83b0:	6f 92       	cmp.b	#4,	r15	;r2 As==10
    83b2:	0d 24       	jz	$+28     	;abs 0x83ce
    83b4:	7f 90 05 00 	cmp.b	#5,	r15	;#0x0005
    83b8:	11 24       	jz	$+36     	;abs 0x83dc
    83ba:	5f 93       	cmp.b	#1,	r15	;r3 As==01
    83bc:	17 20       	jnz	$+48     	;abs 0x83ec
    83be:	07 12       	push	r7		
    83c0:	1c 41 02 00 	mov	2(r1),	r12	;0x0002(r1)
    83c4:	0c 58       	add	r8,	r12	
    83c6:	0e 44       	mov	r4,	r14	
    83c8:	7f 40 03 00 	mov.b	#3,	r15	;#0x0003
    83cc:	0c 3c       	jmp	$+26     	;abs 0x83e6
    83ce:	07 12       	push	r7		
    83d0:	1c 41 02 00 	mov	2(r1),	r12	;0x0002(r1)
    83d4:	0c 58       	add	r8,	r12	
    83d6:	0e 44       	mov	r4,	r14	
    83d8:	5f 43       	mov.b	#1,	r15	;r3 As==01
    83da:	05 3c       	jmp	$+12     	;abs 0x83e6
    83dc:	07 12       	push	r7		
    83de:	1c 41 04 00 	mov	4(r1),	r12	;0x0004(r1)
    83e2:	0e 44       	mov	r4,	r14	
    83e4:	6f 43       	mov.b	#2,	r15	;r3 As==10
    83e6:	b0 12 68 7b 	call	#0x7b68	
    83ea:	21 53       	incd	r1		
    83ec:	0e 47       	mov	r7,	r14	
    83ee:	0f 43       	clr	r15		
    83f0:	82 5e 26 1d 	add	r14,	&0x1d26	
    83f4:	82 6f 28 1d 	addc	r15,	&0x1d28	
    83f8:	21 52       	add	#4,	r1	;r2 As==10
    83fa:	74 17       	popm	#8,	r11	
    83fc:	30 41       	ret			

000083fe <BlockStorageP__multipageOpDone>:
    83fe:	0f 93       	tst	r15		
    8400:	04 24       	jz	$+10     	;abs 0x840a
    8402:	0e 43       	clr	r14		
    8404:	b0 12 16 71 	call	#0x7116	
    8408:	30 41       	ret			
    840a:	0f 4e       	mov	r14,	r15	
    840c:	b0 12 10 83 	call	#0x8310	
    8410:	30 41       	ret			

00008412 <At45dbP__syncOrFlushAll>:
    8412:	c2 4f 41 1d 	mov.b	r15,	&0x1d41	
    8416:	e2 b3 1c 1d 	bit.b	#2,	&0x1d1c	;r3 As==10
    841a:	03 20       	jnz	$+8      	;abs 0x8422
    841c:	c2 43 c7 1e 	mov.b	#0,	&0x1ec7	;r3 As==00
    8420:	09 3c       	jmp	$+20     	;abs 0x8434
    8422:	e2 b3 20 1d 	bit.b	#2,	&0x1d20	;r3 As==10
    8426:	03 20       	jnz	$+8      	;abs 0x842e
    8428:	d2 43 c7 1e 	mov.b	#1,	&0x1ec7	;r3 As==01
    842c:	03 3c       	jmp	$+8      	;abs 0x8434
    842e:	b0 12 b0 4d 	call	#0x4db0	
    8432:	30 41       	ret			
    8434:	5f 42 c7 1e 	mov.b	&0x1ec7,r15	
    8438:	5f 06       	rlam	#2,	r15	
    843a:	ff f0 e7 ff 1c 1d 	and.b	#-25,	7452(r15);#0xffe7, 0x1d1c(r15)
    8440:	b0 12 80 79 	call	#0x7980	
    8444:	30 41       	ret			

00008446 <BlockStorageP__startRequest>:
    8446:	5f 42 0b 1c 	mov.b	&0x1c0b,r15	
    844a:	4e 4f       	mov.b	r15,	r14	
    844c:	0d 4e       	mov	r14,	r13	
    844e:	5d 06       	rlam	#2,	r13	
    8450:	5e 0e       	rlam	#4,	r14	
    8452:	0e 8d       	sub	r13,	r14	
    8454:	3e 50 52 1e 	add	#7762,	r14	;#0x1e52
    8458:	6d 4e       	mov.b	@r14,	r13	
    845a:	6d 93       	cmp.b	#2,	r13	;r3 As==10
    845c:	04 24       	jz	$+10     	;abs 0x8466
    845e:	7d 90 03 00 	cmp.b	#3,	r13	;#0x0003
    8462:	12 20       	jnz	$+38     	;abs 0x8488
    8464:	0c 3c       	jmp	$+26     	;abs 0x847e
    8466:	0e 43       	clr	r14		
    8468:	b0 12 a2 58 	call	#0x58a2	
    846c:	03 12       	push	#0		;r3 As==00
    846e:	0c 43       	clr	r12		
    8470:	0d 43       	clr	r13		
    8472:	0e 4f       	mov	r15,	r14	
    8474:	6f 42       	mov.b	#4,	r15	;r2 As==10
    8476:	b0 12 68 7b 	call	#0x7b68	
    847a:	21 53       	incd	r1		
    847c:	30 41       	ret			
    847e:	7f 40 07 00 	mov.b	#7,	r15	;#0x0007
    8482:	b0 12 12 84 	call	#0x8412	
    8486:	30 41       	ret			
    8488:	1f 4e 02 00 	mov	2(r14),	r15	;0x0002(r14)
    848c:	82 43 26 1d 	mov	#0,	&0x1d26	;r3 As==00
    8490:	82 43 28 1d 	mov	#0,	&0x1d28	;r3 As==00
    8494:	b0 12 10 83 	call	#0x8310	
    8498:	30 41       	ret			

0000849a <At45dbP__syncOrFlush>:
    849a:	c2 4e 41 1d 	mov.b	r14,	&0x1d41	
    849e:	1f 92 1a 1d 	cmp	&0x1d1a,r15	
    84a2:	03 20       	jnz	$+8      	;abs 0x84aa
    84a4:	c2 43 c7 1e 	mov.b	#0,	&0x1ec7	;r3 As==00
    84a8:	09 3c       	jmp	$+20     	;abs 0x84bc
    84aa:	1f 92 1e 1d 	cmp	&0x1d1e,r15	
    84ae:	03 20       	jnz	$+8      	;abs 0x84b6
    84b0:	d2 43 c7 1e 	mov.b	#1,	&0x1ec7	;r3 As==01
    84b4:	03 3c       	jmp	$+8      	;abs 0x84bc
    84b6:	b0 12 b0 4d 	call	#0x4db0	
    84ba:	30 41       	ret			
    84bc:	5f 42 c7 1e 	mov.b	&0x1ec7,r15	
    84c0:	5f 06       	rlam	#2,	r15	
    84c2:	ff f0 e7 ff 1c 1d 	and.b	#-25,	7452(r15);#0xffe7, 0x1d1c(r15)
    84c8:	b0 12 80 79 	call	#0x7980	
    84cc:	30 41       	ret			

000084ce <TaskletC__doit>:
    84ce:	7b 15       	pushm	#8,	r11	
    84d0:	21 83       	decd	r1		
    84d2:	c2 93 6c 1c 	tst.b	&0x1c6c	
    84d6:	c5 24       	jz	$+396    	;abs 0x8662
    84d8:	b0 12 38 6d 	call	#0x6d38	
    84dc:	4f 93       	tst.b	r15		
    84de:	c1 24       	jz	$+388    	;abs 0x8662
    84e0:	0f 42       	mov	r2,	r15	
    84e2:	32 c2       	dint			
    84e4:	03 43       	nop			
    84e6:	18 42 dc 1f 	mov	&0x1fdc,r8	
    84ea:	3f f2       	and	#8,	r15	;r2 As==11
    84ec:	01 24       	jz	$+4      	;abs 0x84f0
    84ee:	32 d2       	eint			
    84f0:	c2 43 6c 1c 	mov.b	#0,	&0x1c6c	;r3 As==00
    84f4:	7f 40 0f 00 	mov.b	#15,	r15	;#0x000f
    84f8:	b0 12 a4 5b 	call	#0x5ba4	
    84fc:	49 4f       	mov.b	r15,	r9	
    84fe:	5f 42 a4 20 	mov.b	&0x20a4,r15	
    8502:	7f 90 03 00 	cmp.b	#3,	r15	;#0x0003
    8506:	03 24       	jz	$+8      	;abs 0x850e
    8508:	7f 90 07 00 	cmp.b	#7,	r15	;#0x0007
    850c:	05 20       	jnz	$+12     	;abs 0x8518
    850e:	f2 40 05 00 6a 22 	mov.b	#5,	&0x226a	;#0x0005
    8514:	f2 42 a4 20 	mov.b	#8,	&0x20a4	;r2 As==11
    8518:	69 b2       	bit.b	#4,	r9	;r2 As==10
    851a:	43 24       	jz	$+136    	;abs 0x85a2
    851c:	f2 90 06 00 a4 20 	cmp.b	#6,	&0x20a4	;#0x0006
    8522:	02 20       	jnz	$+6      	;abs 0x8528
    8524:	c2 43 a4 20 	mov.b	#0,	&0x20a4	;r3 As==00
    8528:	c2 93 a4 20 	tst.b	&0x20a4	
    852c:	3a 20       	jnz	$+118    	;abs 0x85a2
    852e:	69 92       	cmp.b	#4,	r9	;r2 As==10
    8530:	30 20       	jnz	$+98     	;abs 0x8592
    8532:	7f 40 06 00 	mov.b	#6,	r15	;#0x0006
    8536:	b0 12 a4 5b 	call	#0x5ba4	
    853a:	7f f0 1f 00 	and.b	#31,	r15	;#0x001f
    853e:	5e 42 3c 21 	mov.b	&0x213c,r14	
    8542:	4d 4e       	mov.b	r14,	r13	
    8544:	5d 07       	rrum	#2,	r13	
    8546:	4e 8d       	sub.b	r13,	r14	
    8548:	4e 5f       	add.b	r15,	r14	
    854a:	c2 4e 3c 21 	mov.b	r14,	&0x213c	
    854e:	1e 42 44 22 	mov	&0x2244,r14	
    8552:	5d 4e 44 00 	mov.b	68(r14),r13	;0x0044(r14)
    8556:	6d c2       	bic.b	#4,	r13	;r2 As==10
    8558:	7d d2       	bis.b	#8,	r13	;r2 As==11
    855a:	ce 4d 44 00 	mov.b	r13,	68(r14)	;0x0044(r14)
    855e:	ce 4f 48 00 	mov.b	r15,	72(r14)	;0x0048(r14)
    8562:	b0 12 f6 5e 	call	#0x5ef6	
    8566:	0d 48       	mov	r8,	r13	
    8568:	3d 82       	sub	#8,	r13	;r2 As==11
    856a:	0d 8e       	sub	r14,	r13	
    856c:	0a 4d       	mov	r13,	r10	
    856e:	8d 10       	swpb	r13		
    8570:	8d 11       	sxt	r13		
    8572:	8d 10       	swpb	r13		
    8574:	8d 11       	sxt	r13		
    8576:	0b 4d       	mov	r13,	r11	
    8578:	1d 42 44 22 	mov	&0x2244,r13	
    857c:	ed d3 44 00 	bis.b	#2,	68(r13)	;r3 As==10, 0x0044(r13)
    8580:	07 4a       	mov	r10,	r7	
    8582:	08 4b       	mov	r11,	r8	
    8584:	07 5e       	add	r14,	r7	
    8586:	08 6f       	addc	r15,	r8	
    8588:	8d 47 40 00 	mov	r7,	64(r13)	;0x0040(r13)
    858c:	8d 48 42 00 	mov	r8,	66(r13)	;0x0042(r13)
    8590:	05 3c       	jmp	$+12     	;abs 0x859c
    8592:	1f 42 44 22 	mov	&0x2244,r15	
    8596:	ff f0 f5 ff 44 00 	and.b	#-11,	68(r15)	;#0xfff5, 0x0044(r15)
    859c:	f2 40 05 00 a4 20 	mov.b	#5,	&0x20a4	;#0x0005
    85a2:	79 f2       	and.b	#8,	r9	;r2 As==11
    85a4:	5e 24       	jz	$+190    	;abs 0x8662
    85a6:	5f 42 a4 20 	mov.b	&0x20a4,r15	
    85aa:	6f 92       	cmp.b	#4,	r15	;r2 As==10
    85ac:	46 20       	jnz	$+142    	;abs 0x863a
    85ae:	f2 40 05 00 6a 22 	mov.b	#5,	&0x226a	;#0x0005
    85b4:	c2 43 a4 20 	mov.b	#0,	&0x20a4	;r3 As==00
    85b8:	f2 90 03 00 e8 1c 	cmp.b	#3,	&0x1ce8	;#0x0003
    85be:	03 20       	jnz	$+8      	;abs 0x85c6
    85c0:	c2 43 e8 1c 	mov.b	#0,	&0x1ce8	;r3 As==00
    85c4:	4e 3c       	jmp	$+158    	;abs 0x8662
    85c6:	1e 42 52 22 	mov	&0x2252,r14	
    85ca:	5f 4e 02 00 	mov.b	2(r14),	r15	;0x0002(r14)
    85ce:	8f 10       	swpb	r15		
    85d0:	5d 4e 01 00 	mov.b	1(r14),	r13	;0x0001(r14)
    85d4:	0f dd       	bis	r13,	r15	
    85d6:	3f b0 20 00 	bit	#32,	r15	;#0x0020
    85da:	11 24       	jz	$+36     	;abs 0x85fe
    85dc:	3f f0 47 cc 	and	#-13241,r15	;#0xcc47
    85e0:	3f 90 41 88 	cmp	#-30655,r15	;#0x8841
    85e4:	0c 20       	jnz	$+26     	;abs 0x85fe
    85e6:	5f 4e 07 00 	mov.b	7(r14),	r15	;0x0007(r14)
    85ea:	8f 10       	swpb	r15		
    85ec:	5e 4e 06 00 	mov.b	6(r14),	r14	;0x0006(r14)
    85f0:	0f de       	bis	r14,	r15	
    85f2:	1e 43       	mov	#1,	r14	;r3 As==01
    85f4:	3f 93       	cmp	#-1,	r15	;r3 As==11
    85f6:	01 20       	jnz	$+4      	;abs 0x85fa
    85f8:	0e 43       	clr	r14		
    85fa:	0f 4e       	mov	r14,	r15	
    85fc:	01 3c       	jmp	$+4      	;abs 0x8600
    85fe:	0f 43       	clr	r15		
    8600:	4f 93       	tst.b	r15		
    8602:	10 24       	jz	$+34     	;abs 0x8624
    8604:	c2 93 d2 1f 	tst.b	&0x1fd2	
    8608:	0d 20       	jnz	$+28     	;abs 0x8624
    860a:	e2 43 fe 1d 	mov.b	#2,	&0x1dfe	;r3 As==10
    860e:	d2 43 d2 1f 	mov.b	#1,	&0x1fd2	;r3 As==01
    8612:	1f 42 90 03 	mov	&0x0390,r15	
    8616:	3e 40 e8 03 	mov	#1000,	r14	;#0x03e8
    861a:	b0 12 f0 5f 	call	#0x5ff0	
    861e:	e2 43 e8 1c 	mov.b	#2,	&0x1ce8	;r3 As==10
    8622:	1f 3c       	jmp	$+64     	;abs 0x8662
    8624:	c2 43 e8 1c 	mov.b	#0,	&0x1ce8	;r3 As==00
    8628:	c2 43 43 1d 	mov.b	#0,	&0x1d43	;r3 As==00
    862c:	82 43 5e 21 	mov	#0,	&0x215e	;r3 As==00
    8630:	e2 42 42 1d 	mov.b	#4,	&0x1d42	;r2 As==10
    8634:	b0 12 ba 4d 	call	#0x4dba	
    8638:	14 3c       	jmp	$+42     	;abs 0x8662
    863a:	7f 90 05 00 	cmp.b	#5,	r15	;#0x0005
    863e:	11 20       	jnz	$+36     	;abs 0x8662
    8640:	7f 40 06 00 	mov.b	#6,	r15	;#0x0006
    8644:	b0 12 a4 5b 	call	#0x5ba4	
    8648:	5e 42 38 1f 	mov.b	&0x1f38,r14	
    864c:	4d 4e       	mov.b	r14,	r13	
    864e:	5d 07       	rrum	#2,	r13	
    8650:	4e 8d       	sub.b	r13,	r14	
    8652:	7f f0 1f 00 	and.b	#31,	r15	;#0x001f
    8656:	4e 5f       	add.b	r15,	r14	
    8658:	c2 4e 38 1f 	mov.b	r14,	&0x1f38	
    865c:	f2 40 09 00 a4 20 	mov.b	#9,	&0x20a4	;#0x0009
    8662:	5f 42 a4 20 	mov.b	&0x20a4,r15	
    8666:	4f 93       	tst.b	r15		
    8668:	02 20       	jnz	$+6      	;abs 0x866e
    866a:	80 00 0e 8b 	bra	#0x08b0e	
    866e:	7f 90 09 00 	cmp.b	#9,	r15	;#0x0009
    8672:	02 24       	jz	$+6      	;abs 0x8678
    8674:	80 00 ba 89 	bra	#0x089ba	
    8678:	b0 12 20 51 	call	#0x5120	
    867c:	7f 40 20 00 	mov.b	#32,	r15	;#0x0020
    8680:	b0 12 6e 49 	call	#0x496e	
    8684:	b0 12 5a 49 	call	#0x495a	
    8688:	4f 43       	clr.b	r15		
    868a:	b0 12 6e 49 	call	#0x496e	
    868e:	b0 12 5a 49 	call	#0x495a	
    8692:	49 4f       	mov.b	r15,	r9	
    8694:	7f 90 03 00 	cmp.b	#3,	r15	;#0x0003
    8698:	83 28       	jnc	$+264    	;abs 0x87a0
    869a:	4f 4f       	mov.b	r15,	r15	
    869c:	3f 90 40 00 	cmp	#64,	r15	;#0x0040
    86a0:	7f 34       	jge	$+256    	;abs 0x87a0
    86a2:	4f 43       	clr.b	r15		
    86a4:	b0 12 6e 49 	call	#0x496e	
    86a8:	1f 42 44 22 	mov	&0x2244,r15	
    86ac:	05 4f       	mov	r15,	r5	
    86ae:	15 53       	inc	r5		
    86b0:	cf 49 00 00 	mov.b	r9,	0(r15)	;0x0000(r15)
    86b4:	46 49       	mov.b	r9,	r6	
    86b6:	66 83       	decd.b	r6		
    86b8:	76 90 07 00 	cmp.b	#7,	r6	;#0x0007
    86bc:	03 28       	jnc	$+8      	;abs 0x86c4
    86be:	77 40 07 00 	mov.b	#7,	r7	;#0x0007
    86c2:	01 3c       	jmp	$+4      	;abs 0x86c6
    86c4:	47 46       	mov.b	r6,	r7	
    86c6:	08 45       	mov	r5,	r8	
    86c8:	09 43       	clr	r9		
    86ca:	4d 47       	mov.b	r7,	r13	
    86cc:	4d 55       	add.b	r5,	r13	
    86ce:	c1 4d 00 00 	mov.b	r13,	0(r1)	;0x0000(r1)
    86d2:	b0 12 5a 49 	call	#0x495a	
    86d6:	44 4f       	mov.b	r15,	r4	
    86d8:	4f 43       	clr.b	r15		
    86da:	b0 12 6e 49 	call	#0x496e	
    86de:	c8 44 00 00 	mov.b	r4,	0(r8)	;0x0000(r8)
    86e2:	18 53       	inc	r8		
    86e4:	4e 44       	mov.b	r4,	r14	
    86e6:	0f 49       	mov	r9,	r15	
    86e8:	b0 12 7a 49 	call	#0x497a	
    86ec:	09 4f       	mov	r15,	r9	
    86ee:	c1 98 00 00 	cmp.b	r8,	0(r1)	;0x0000(r1)
    86f2:	ef 23       	jnz	$-32     	;abs 0x86d2
    86f4:	48 47       	mov.b	r7,	r8	
    86f6:	78 53       	add.b	#-1,	r8	;r3 As==11
    86f8:	48 48       	mov.b	r8,	r8	
    86fa:	18 53       	inc	r8		
    86fc:	08 55       	add	r5,	r8	
    86fe:	1f 42 44 22 	mov	&0x2244,r15	
    8702:	5e 4f 02 00 	mov.b	2(r15),	r14	;0x0002(r15)
    8706:	8e 10       	swpb	r14		
    8708:	5f 4f 01 00 	mov.b	1(r15),	r15	;0x0001(r15)
    870c:	0e df       	bis	r15,	r14	
    870e:	3e f0 07 00 	and	#7,	r14	;#0x0007
    8712:	2e 93       	cmp	#2,	r14	;r3 As==10
    8714:	04 20       	jnz	$+10     	;abs 0x871e
    8716:	e2 93 e8 1c 	cmp.b	#2,	&0x1ce8	;r3 As==10
    871a:	40 20       	jnz	$+130    	;abs 0x879c
    871c:	0e 3c       	jmp	$+30     	;abs 0x873a
    871e:	0e 42       	mov	r2,	r14	
    8720:	32 c2       	dint			
    8722:	03 43       	nop			
    8724:	5f 43       	mov.b	#1,	r15	;r3 As==01
    8726:	f2 90 03 00 a5 20 	cmp.b	#3,	&0x20a5	;#0x0003
    872c:	01 28       	jnc	$+4      	;abs 0x8730
    872e:	4f 43       	clr.b	r15		
    8730:	3e f2       	and	#8,	r14	;r2 As==11
    8732:	01 24       	jz	$+4      	;abs 0x8736
    8734:	32 d2       	eint			
    8736:	4f 93       	tst.b	r15		
    8738:	31 24       	jz	$+100    	;abs 0x879c
    873a:	46 87       	sub.b	r7,	r6	
    873c:	47 46       	mov.b	r6,	r7	
    873e:	47 58       	add.b	r8,	r7	
    8740:	0e 3c       	jmp	$+30     	;abs 0x875e
    8742:	b0 12 5a 49 	call	#0x495a	
    8746:	46 4f       	mov.b	r15,	r6	
    8748:	4f 43       	clr.b	r15		
    874a:	b0 12 6e 49 	call	#0x496e	
    874e:	c8 46 00 00 	mov.b	r6,	0(r8)	;0x0000(r8)
    8752:	18 53       	inc	r8		
    8754:	4e 46       	mov.b	r6,	r14	
    8756:	0f 49       	mov	r9,	r15	
    8758:	b0 12 7a 49 	call	#0x497a	
    875c:	09 4f       	mov	r15,	r9	
    875e:	47 98       	cmp.b	r8,	r7	
    8760:	f0 23       	jnz	$-30     	;abs 0x8742
    8762:	b0 12 5a 49 	call	#0x495a	
    8766:	48 4f       	mov.b	r15,	r8	
    8768:	4f 43       	clr.b	r15		
    876a:	b0 12 6e 49 	call	#0x496e	
    876e:	4e 48       	mov.b	r8,	r14	
    8770:	0f 49       	mov	r9,	r15	
    8772:	b0 12 7a 49 	call	#0x497a	
    8776:	09 4f       	mov	r15,	r9	
    8778:	b0 12 5a 49 	call	#0x495a	
    877c:	48 4f       	mov.b	r15,	r8	
    877e:	4f 43       	clr.b	r15		
    8780:	b0 12 6e 49 	call	#0x496e	
    8784:	4e 48       	mov.b	r8,	r14	
    8786:	0f 49       	mov	r9,	r15	
    8788:	b0 12 7a 49 	call	#0x497a	
    878c:	09 4f       	mov	r15,	r9	
    878e:	b0 12 5a 49 	call	#0x495a	
    8792:	1e 42 44 22 	mov	&0x2244,r14	
    8796:	ce 4f 46 00 	mov.b	r15,	70(r14)	;0x0046(r14)
    879a:	03 3c       	jmp	$+8      	;abs 0x87a2
    879c:	b0 12 5a 49 	call	#0x495a	
    87a0:	19 43       	mov	#1,	r9	;r3 As==01
    87a2:	b0 12 72 4e 	call	#0x4e72	
    87a6:	f2 40 05 00 6a 22 	mov.b	#5,	&0x226a	;#0x0005
    87ac:	c2 43 a4 20 	mov.b	#0,	&0x20a4	;r3 As==00
    87b0:	09 93       	tst	r9		
    87b2:	02 24       	jz	$+6      	;abs 0x87b8
    87b4:	80 00 fc 8a 	bra	#0x08afc	
    87b8:	19 42 44 22 	mov	&0x2244,r9	
    87bc:	5f 49 02 00 	mov.b	2(r9),	r15	;0x0002(r9)
    87c0:	8f 10       	swpb	r15		
    87c2:	5e 49 01 00 	mov.b	1(r9),	r14	;0x0001(r9)
    87c6:	0f de       	bis	r14,	r15	
    87c8:	3f f0 07 00 	and	#7,	r15	;#0x0007
    87cc:	2f 93       	cmp	#2,	r15	;r3 As==10
    87ce:	1f 20       	jnz	$+64     	;abs 0x880e
    87d0:	e2 93 e8 1c 	cmp.b	#2,	&0x1ce8	;r3 As==10
    87d4:	02 24       	jz	$+6      	;abs 0x87da
    87d6:	80 00 b4 89 	bra	#0x089b4	
    87da:	1f 42 52 22 	mov	&0x2252,r15	
    87de:	d9 9f 03 00 03 00 	cmp.b	3(r15),	3(r9)	;0x0003(r15), 0x0003(r9)
    87e4:	02 24       	jz	$+6      	;abs 0x87ea
    87e6:	80 00 b4 89 	bra	#0x089b4	
    87ea:	b2 f0 ef ff 84 03 	and	#-17,	&0x0384	;#0xffef
    87f0:	c2 43 d2 1f 	mov.b	#0,	&0x1fd2	;r3 As==00
    87f4:	df d3 44 00 	bis.b	#1,	68(r15)	;r3 As==01, 0x0044(r15)
    87f8:	c2 43 e8 1c 	mov.b	#0,	&0x1ce8	;r3 As==00
    87fc:	c2 43 43 1d 	mov.b	#0,	&0x1d43	;r3 As==00
    8800:	82 43 5e 21 	mov	#0,	&0x215e	;r3 As==00
    8804:	e2 42 42 1d 	mov.b	#4,	&0x1d42	;r2 As==10
    8808:	b0 12 ba 4d 	call	#0x4dba	
    880c:	d3 3c       	jmp	$+424    	;abs 0x89b4
    880e:	c2 93 e8 1c 	tst.b	&0x1ce8	
    8812:	18 20       	jnz	$+50     	;abs 0x8844
    8814:	0f 49       	mov	r9,	r15	
    8816:	b0 12 ae 5d 	call	#0x5dae	
    881a:	4f 93       	tst.b	r15		
    881c:	13 24       	jz	$+40     	;abs 0x8844
    881e:	f2 40 05 00 08 1e 	mov.b	#5,	&0x1e08	;#0x0005
    8824:	e2 43 09 1e 	mov.b	#2,	&0x1e09	;r3 As==10
    8828:	c2 43 0a 1e 	mov.b	#0,	&0x1e0a	;r3 As==00
    882c:	d2 49 03 00 0b 1e 	mov.b	3(r9),	&0x1e0b	;0x0003(r9)
    8832:	3f 40 08 1e 	mov	#7688,	r15	;#0x1e08
    8836:	b0 12 4c 6f 	call	#0x6f4c	
    883a:	0f 93       	tst	r15		
    883c:	03 20       	jnz	$+8      	;abs 0x8844
    883e:	f2 40 03 00 e8 1c 	mov.b	#3,	&0x1ce8	;#0x0003
    8844:	18 42 90 03 	mov	&0x0390,r8	
    8848:	0f 49       	mov	r9,	r15	
    884a:	b0 12 ae 5d 	call	#0x5dae	
    884e:	4f 93       	tst.b	r15		
    8850:	02 24       	jz	$+6      	;abs 0x8856
    8852:	38 50 60 03 	add	#864,	r8	;#0x0360
    8856:	82 48 6a 1e 	mov	r8,	&0x1e6a	
    885a:	18 82 90 03 	sub	&0x0390,r8	
    885e:	0f 48       	mov	r8,	r15	
    8860:	18 93       	cmp	#1,	r8	;r3 As==01
    8862:	11 38       	jl	$+36     	;abs 0x8886
    8864:	5e 42 43 1d 	mov.b	&0x1d43,r14	
    8868:	4e 93       	tst.b	r14		
    886a:	09 20       	jnz	$+20     	;abs 0x887e
    886c:	c2 93 d2 1f 	tst.b	&0x1fd2	
    8870:	0a 20       	jnz	$+22     	;abs 0x8886
    8872:	b0 12 36 60 	call	#0x6036	
    8876:	f2 40 80 ff 43 1d 	mov.b	#-128,	&0x1d43	;#0xff80
    887c:	04 3c       	jmp	$+10     	;abs 0x8886
    887e:	7e d0 80 ff 	bis.b	#-128,	r14	;#0xff80
    8882:	c2 4e 43 1d 	mov.b	r14,	&0x1d43	
    8886:	5e 49 09 00 	mov.b	9(r9),	r14	;0x0009(r9)
    888a:	8e 10       	swpb	r14		
    888c:	5f 49 08 00 	mov.b	8(r9),	r15	;0x0008(r9)
    8890:	0e df       	bis	r15,	r14	
    8892:	58 42 f0 1c 	mov.b	&0x1cf0,r8	
    8896:	4f 48       	mov.b	r8,	r15	
    8898:	0d 4f       	mov	r15,	r13	
    889a:	5d 02       	rlam	#1,	r13	
    889c:	5c 42 da 1f 	mov.b	&0x1fda,r12	
    88a0:	1e 9d 22 21 	cmp	8482(r13),r14	;0x2122(r13)
    88a4:	0a 20       	jnz	$+22     	;abs 0x88ba
    88a6:	3f 50 4c 22 	add	#8780,	r15	;#0x224c
    88aa:	6c 9f       	cmp.b	@r15,	r12	
    88ac:	4b 24       	jz	$+152    	;abs 0x8944
    88ae:	5c 53       	inc.b	r12		
    88b0:	c2 4c da 1f 	mov.b	r12,	&0x1fda	
    88b4:	cf 4c 00 00 	mov.b	r12,	0(r15)	;0x0000(r15)
    88b8:	16 3c       	jmp	$+46     	;abs 0x88e6
    88ba:	0f 43       	clr	r15		
    88bc:	47 43       	clr.b	r7		
    88be:	4d 43       	clr.b	r13		
    88c0:	48 4f       	mov.b	r15,	r8	
    88c2:	06 4f       	mov	r15,	r6	
    88c4:	56 02       	rlam	#1,	r6	
    88c6:	86 9e 22 21 	cmp	r14,	8482(r6);0x2122(r6)
    88ca:	10 20       	jnz	$+34     	;abs 0x88ec
    88cc:	c2 4f f0 1c 	mov.b	r15,	&0x1cf0	
    88d0:	5e 42 da 1f 	mov.b	&0x1fda,r14	
    88d4:	3f 50 4c 22 	add	#8780,	r15	;#0x224c
    88d8:	6e 9f       	cmp.b	@r15,	r14	
    88da:	34 24       	jz	$+106    	;abs 0x8944
    88dc:	5e 53       	inc.b	r14		
    88de:	c2 4e da 1f 	mov.b	r14,	&0x1fda	
    88e2:	cf 4e 00 00 	mov.b	r14,	0(r15)	;0x0000(r15)
    88e6:	7d 40 80 ff 	mov.b	#-128,	r13	;#0xff80
    88ea:	0d 3c       	jmp	$+28     	;abs 0x8906
    88ec:	48 4c       	mov.b	r12,	r8	
    88ee:	58 8f 4c 22 	sub.b	8780(r15),r8	;0x224c(r15)
    88f2:	4d 98       	cmp.b	r8,	r13	
    88f4:	02 2c       	jc	$+6      	;abs 0x88fa
    88f6:	47 4f       	mov.b	r15,	r7	
    88f8:	4d 48       	mov.b	r8,	r13	
    88fa:	1f 53       	inc	r15		
    88fc:	3f 90 05 00 	cmp	#5,	r15	;#0x0005
    8900:	df 23       	jnz	$-64     	;abs 0x88c0
    8902:	80 00 72 8c 	bra	#0x08c72	
    8906:	5e 42 da 1f 	mov.b	&0x1fda,r14	
    890a:	4f 4e       	mov.b	r14,	r15	
    890c:	7f f0 7f 00 	and.b	#127,	r15	;#0x007f
    8910:	7f 90 7f 00 	cmp.b	#127,	r15	;#0x007f
    8914:	03 24       	jz	$+8      	;abs 0x891c
    8916:	58 42 f0 1c 	mov.b	&0x1cf0,r8	
    891a:	14 3c       	jmp	$+42     	;abs 0x8944
    891c:	7d 90 7f 00 	cmp.b	#127,	r13	;#0x007f
    8920:	fa 2b       	jnc	$-10     	;abs 0x8916
    8922:	3f 40 4c 22 	mov	#8780,	r15	;#0x224c
    8926:	6d 4f       	mov.b	@r15,	r13	
    8928:	7d d0 7f 00 	bis.b	#127,	r13	;#0x007f
    892c:	4d 9e       	cmp.b	r14,	r13	
    892e:	05 24       	jz	$+12     	;abs 0x893a
    8930:	47 4e       	mov.b	r14,	r7	
    8932:	77 f0 80 ff 	and.b	#-128,	r7	;#0xff80
    8936:	cf 47 00 00 	mov.b	r7,	0(r15)	;0x0000(r15)
    893a:	1f 53       	inc	r15		
    893c:	3f 90 51 22 	cmp	#8785,	r15	;#0x2251
    8940:	f2 23       	jnz	$-26     	;abs 0x8926
    8942:	e9 3f       	jmp	$-44     	;abs 0x8916
    8944:	5f 49 03 00 	mov.b	3(r9),	r15	;0x0003(r9)
    8948:	48 48       	mov.b	r8,	r8	
    894a:	0e 48       	mov	r8,	r14	
    894c:	3e 50 6b 22 	add	#8811,	r14	;#0x226b
    8950:	6d 4e       	mov.b	@r14,	r13	
    8952:	4c 4d       	mov.b	r13,	r12	
    8954:	5c f3       	and.b	#1,	r12	;r3 As==01
    8956:	38 50 f1 20 	add	#8433,	r8	;#0x20f1
    895a:	4c 93       	tst.b	r12		
    895c:	03 24       	jz	$+8      	;abs 0x8964
    895e:	6f 98       	cmp.b	@r8,	r15	
    8960:	04 20       	jnz	$+10     	;abs 0x896a
    8962:	28 3c       	jmp	$+82     	;abs 0x89b4
    8964:	5d d3       	bis.b	#1,	r13	;r3 As==01
    8966:	ce 4d 00 00 	mov.b	r13,	0(r14)	;0x0000(r14)
    896a:	c8 4f 00 00 	mov.b	r15,	0(r8)	;0x0000(r8)
    896e:	08 42       	mov	r2,	r8	
    8970:	38 f2       	and	#8,	r8	;r2 As==11
    8972:	32 c2       	dint			
    8974:	03 43       	nop			
    8976:	5e 42 a5 20 	mov.b	&0x20a5,r14	
    897a:	7e 90 03 00 	cmp.b	#3,	r14	;#0x0003
    897e:	17 2c       	jc	$+48     	;abs 0x89ae
    8980:	4f 4e       	mov.b	r14,	r15	
    8982:	5f 52 4f 21 	add.b	&0x214f,r15	
    8986:	7f 90 03 00 	cmp.b	#3,	r15	;#0x0003
    898a:	02 28       	jnc	$+6      	;abs 0x8990
    898c:	7f 50 fd ff 	add.b	#-3,	r15	;#0xfffd
    8990:	4f 4f       	mov.b	r15,	r15	
    8992:	5f 02       	rlam	#1,	r15	
    8994:	3f 50 7c 1c 	add	#7292,	r15	;#0x1c7c
    8998:	27 4f       	mov	@r15,	r7	
    899a:	8f 49 00 00 	mov	r9,	0(r15)	;0x0000(r15)
    899e:	5e 53       	inc.b	r14		
    89a0:	c2 4e a5 20 	mov.b	r14,	&0x20a5	
    89a4:	7f 40 0b 00 	mov.b	#11,	r15	;#0x000b
    89a8:	b0 12 62 4d 	call	#0x4d62	
    89ac:	09 47       	mov	r7,	r9	
    89ae:	08 93       	tst	r8		
    89b0:	01 24       	jz	$+4      	;abs 0x89b4
    89b2:	32 d2       	eint			
    89b4:	82 49 44 22 	mov	r9,	&0x2244	
    89b8:	a1 3c       	jmp	$+324    	;abs 0x8afc
    89ba:	4e 4f       	mov.b	r15,	r14	
    89bc:	7e 53       	add.b	#-1,	r14	;r3 As==11
    89be:	7e 90 03 00 	cmp.b	#3,	r14	;#0x0003
    89c2:	85 2c       	jc	$+268    	;abs 0x8ace
    89c4:	4e 4f       	mov.b	r15,	r14	
    89c6:	6e 83       	decd.b	r14		
    89c8:	6e 93       	cmp.b	#2,	r14	;r3 As==10
    89ca:	4a 2c       	jc	$+150    	;abs 0x8a60
    89cc:	5e 42 6a 22 	mov.b	&0x226a,r14	
    89d0:	5e 93       	cmp.b	#1,	r14	;r3 As==01
    89d2:	13 20       	jnz	$+40     	;abs 0x89fa
    89d4:	c2 93 d2 1f 	tst.b	&0x1fd2	
    89d8:	43 20       	jnz	$+136    	;abs 0x8a60
    89da:	b0 12 84 4e 	call	#0x4e84	
    89de:	f2 40 03 00 fe 1d 	mov.b	#3,	&0x1dfe	;#0x0003
    89e4:	d2 43 d2 1f 	mov.b	#1,	&0x1fd2	;r3 As==01
    89e8:	1f 42 90 03 	mov	&0x0390,r15	
    89ec:	3e 40 70 03 	mov	#880,	r14	;#0x0370
    89f0:	b0 12 f0 5f 	call	#0x5ff0	
    89f4:	e2 43 6a 22 	mov.b	#2,	&0x226a	;r3 As==10
    89f8:	56 3c       	jmp	$+174    	;abs 0x8aa6
    89fa:	7f 90 03 00 	cmp.b	#3,	r15	;#0x0003
    89fe:	30 20       	jnz	$+98     	;abs 0x8a60
    8a00:	7e 90 03 00 	cmp.b	#3,	r14	;#0x0003
    8a04:	2d 20       	jnz	$+92     	;abs 0x8a60
    8a06:	b0 12 38 6d 	call	#0x6d38	
    8a0a:	4f 93       	tst.b	r15		
    8a0c:	29 24       	jz	$+84     	;abs 0x8a60
    8a0e:	7f 40 0f 00 	mov.b	#15,	r15	;#0x000f
    8a12:	b0 12 a4 5b 	call	#0x5ba4	
    8a16:	0f 42       	mov	r2,	r15	
    8a18:	32 c2       	dint			
    8a1a:	03 43       	nop			
    8a1c:	b2 f0 ef ff 82 03 	and	#-17,	&0x0382	;#0xffef
    8a22:	f2 d0 80 ff 0a 02 	bis.b	#-128,	&0x020a	;#0xff80
    8a28:	92 c3 82 03 	bic	#1,	&0x0382	;r3 As==01
    8a2c:	a2 c3 82 03 	bic	#2,	&0x0382	;r3 As==10
    8a30:	b2 40 00 41 82 03 	mov	#16640,	&0x0382	;#0x4100
    8a36:	b2 d0 10 00 82 03 	bis	#16,	&0x0382	;#0x0010
    8a3c:	3f f2       	and	#8,	r15	;r2 As==11
    8a3e:	01 24       	jz	$+4      	;abs 0x8a42
    8a40:	32 d2       	eint			
    8a42:	5e 42 fb 20 	mov.b	&0x20fb,r14	
    8a46:	7e d0 60 00 	bis.b	#96,	r14	;#0x0060
    8a4a:	7f 42       	mov.b	#8,	r15	;r2 As==11
    8a4c:	b0 12 7a 5b 	call	#0x5b7a	
    8a50:	7e 40 06 00 	mov.b	#6,	r14	;#0x0006
    8a54:	6f 43       	mov.b	#2,	r15	;r3 As==10
    8a56:	b0 12 7a 5b 	call	#0x5b7a	
    8a5a:	e2 42 6a 22 	mov.b	#4,	&0x226a	;r2 As==10
    8a5e:	23 3c       	jmp	$+72     	;abs 0x8aa6
    8a60:	5f 42 a4 20 	mov.b	&0x20a4,r15	
    8a64:	7f 53       	add.b	#-1,	r15	;r3 As==11
    8a66:	6f 93       	cmp.b	#2,	r15	;r3 As==10
    8a68:	1e 2c       	jc	$+62     	;abs 0x8aa6
    8a6a:	f2 90 05 00 6a 22 	cmp.b	#5,	&0x226a	;#0x0005
    8a70:	1a 20       	jnz	$+54     	;abs 0x8aa6
    8a72:	b0 12 38 6d 	call	#0x6d38	
    8a76:	4f 93       	tst.b	r15		
    8a78:	16 24       	jz	$+46     	;abs 0x8aa6
    8a7a:	7e 40 03 00 	mov.b	#3,	r14	;#0x0003
    8a7e:	6f 43       	mov.b	#2,	r15	;r3 As==10
    8a80:	b0 12 7a 5b 	call	#0x5b7a	
    8a84:	0f 42       	mov	r2,	r15	
    8a86:	32 c2       	dint			
    8a88:	03 43       	nop			
    8a8a:	b2 f0 ef ff 82 03 	and	#-17,	&0x0382	;#0xffef
    8a90:	f2 f0 7f 00 0a 02 	and.b	#127,	&0x020a	;#0x007f
    8a96:	3f f2       	and	#8,	r15	;r2 As==11
    8a98:	01 24       	jz	$+4      	;abs 0x8a9c
    8a9a:	32 d2       	eint			
    8a9c:	c2 43 6c 1c 	mov.b	#0,	&0x1c6c	;r3 As==00
    8aa0:	f2 40 03 00 6a 22 	mov.b	#3,	&0x226a	;#0x0003
    8aa6:	5f 42 a4 20 	mov.b	&0x20a4,r15	
    8aaa:	5f 93       	cmp.b	#1,	r15	;r3 As==01
    8aac:	09 20       	jnz	$+20     	;abs 0x8ac0
    8aae:	f2 90 03 00 6a 22 	cmp.b	#3,	&0x226a	;#0x0003
    8ab4:	23 20       	jnz	$+72     	;abs 0x8afc
    8ab6:	b0 12 32 51 	call	#0x5132	
    8aba:	d2 43 6a 22 	mov.b	#1,	&0x226a	;r3 As==01
    8abe:	1c 3c       	jmp	$+58     	;abs 0x8af8
    8ac0:	6f 93       	cmp.b	#2,	r15	;r3 As==10
    8ac2:	1c 20       	jnz	$+58     	;abs 0x8afc
    8ac4:	f2 90 03 00 6a 22 	cmp.b	#3,	&0x226a	;#0x0003
    8aca:	18 20       	jnz	$+50     	;abs 0x8afc
    8acc:	15 3c       	jmp	$+44     	;abs 0x8af8
    8ace:	7f 90 07 00 	cmp.b	#7,	r15	;#0x0007
    8ad2:	14 20       	jnz	$+42     	;abs 0x8afc
    8ad4:	b0 12 38 6d 	call	#0x6d38	
    8ad8:	4f 93       	tst.b	r15		
    8ada:	10 24       	jz	$+34     	;abs 0x8afc
    8adc:	5e 42 fb 20 	mov.b	&0x20fb,r14	
    8ae0:	7e d0 60 00 	bis.b	#96,	r14	;#0x0060
    8ae4:	7f 42       	mov.b	#8,	r15	;r2 As==11
    8ae6:	b0 12 7a 5b 	call	#0x5b7a	
    8aea:	f2 90 05 00 6a 22 	cmp.b	#5,	&0x226a	;#0x0005
    8af0:	03 20       	jnz	$+8      	;abs 0x8af8
    8af2:	e2 42 6a 22 	mov.b	#4,	&0x226a	;r2 As==10
    8af6:	02 3c       	jmp	$+6      	;abs 0x8afc
    8af8:	f2 42 a4 20 	mov.b	#8,	&0x20a4	;r2 As==11
    8afc:	f2 92 a4 20 	cmp.b	#8,	&0x20a4	;r2 As==11
    8b00:	06 20       	jnz	$+14     	;abs 0x8b0e
    8b02:	c2 43 a4 20 	mov.b	#0,	&0x20a4	;r3 As==00
    8b06:	7f 40 09 00 	mov.b	#9,	r15	;#0x0009
    8b0a:	b0 12 62 4d 	call	#0x4d62	
    8b0e:	c2 93 a4 20 	tst.b	&0x20a4	
    8b12:	17 20       	jnz	$+48     	;abs 0x8b42
    8b14:	f2 90 05 00 6a 22 	cmp.b	#5,	&0x226a	;#0x0005
    8b1a:	13 20       	jnz	$+40     	;abs 0x8b42
    8b1c:	c2 93 6c 1c 	tst.b	&0x1c6c	
    8b20:	10 20       	jnz	$+34     	;abs 0x8b42
    8b22:	c2 93 e8 1c 	tst.b	&0x1ce8	
    8b26:	0d 20       	jnz	$+28     	;abs 0x8b42
    8b28:	c2 93 43 1d 	tst.b	&0x1d43	
    8b2c:	0a 20       	jnz	$+22     	;abs 0x8b42
    8b2e:	c2 93 d2 1f 	tst.b	&0x1fd2	
    8b32:	07 20       	jnz	$+16     	;abs 0x8b42
    8b34:	e2 93 42 1d 	cmp.b	#2,	&0x1d42	;r3 As==10
    8b38:	04 20       	jnz	$+10     	;abs 0x8b42
    8b3a:	d2 43 42 1d 	mov.b	#1,	&0x1d42	;r3 As==01
    8b3e:	b0 12 ba 4d 	call	#0x4dba	
    8b42:	c2 93 a4 20 	tst.b	&0x20a4	
    8b46:	04 20       	jnz	$+10     	;abs 0x8b50
    8b48:	7f 40 0e 00 	mov.b	#14,	r15	;#0x000e
    8b4c:	b0 12 62 4d 	call	#0x4d62	
    8b50:	e2 93 d2 1f 	cmp.b	#2,	&0x1fd2	;r3 As==10
    8b54:	78 20       	jnz	$+242    	;abs 0x8c46
    8b56:	c2 43 d2 1f 	mov.b	#0,	&0x1fd2	;r3 As==00
    8b5a:	5f 42 fe 1d 	mov.b	&0x1dfe,r15	
    8b5e:	6f 93       	cmp.b	#2,	r15	;r3 As==10
    8b60:	55 24       	jz	$+172    	;abs 0x8c0c
    8b62:	7f 90 03 00 	cmp.b	#3,	r15	;#0x0003
    8b66:	5d 24       	jz	$+188    	;abs 0x8c22
    8b68:	5f 93       	cmp.b	#1,	r15	;r3 As==01
    8b6a:	6d 20       	jnz	$+220    	;abs 0x8c46
    8b6c:	18 42 90 03 	mov	&0x0390,r8	
    8b70:	1d 42 6a 1e 	mov	&0x1e6a,r13	
    8b74:	0d 88       	sub	r8,	r13	
    8b76:	08 4d       	mov	r13,	r8	
    8b78:	5f 42 43 1d 	mov.b	&0x1d43,r15	
    8b7c:	7f 90 80 ff 	cmp.b	#-128,	r15	;#0xff80
    8b80:	06 20       	jnz	$+14     	;abs 0x8b8e
    8b82:	c2 43 43 1d 	mov.b	#0,	&0x1d43	;r3 As==00
    8b86:	e2 93 42 1d 	cmp.b	#2,	&0x1d42	;r3 As==10
    8b8a:	5d 20       	jnz	$+188    	;abs 0x8c46
    8b8c:	3c 3c       	jmp	$+122    	;abs 0x8c06
    8b8e:	4f 93       	tst.b	r15		
    8b90:	02 34       	jge	$+6      	;abs 0x8b96
    8b92:	1d 93       	cmp	#1,	r13	;r3 As==01
    8b94:	14 34       	jge	$+42     	;abs 0x8bbe
    8b96:	19 42 3e 1d 	mov	&0x1d3e,r9	
    8b9a:	c2 93 e8 1c 	tst.b	&0x1ce8	
    8b9e:	0f 20       	jnz	$+32     	;abs 0x8bbe
    8ba0:	0f 49       	mov	r9,	r15	
    8ba2:	b0 12 4c 6f 	call	#0x6f4c	
    8ba6:	0f 93       	tst	r15		
    8ba8:	74 20       	jnz	$+234    	;abs 0x8c92
    8baa:	d9 c3 44 00 	bic.b	#1,	68(r9)	;r3 As==01, 0x0044(r9)
    8bae:	d2 43 e8 1c 	mov.b	#1,	&0x1ce8	;r3 As==01
    8bb2:	82 49 52 22 	mov	r9,	&0x2252	
    8bb6:	f2 40 03 00 43 1d 	mov.b	#3,	&0x1d43	;#0x0003
    8bbc:	44 3c       	jmp	$+138    	;abs 0x8c46
    8bbe:	39 40 05 00 	mov	#5,	r9	;#0x0005
    8bc2:	5f 42 43 1d 	mov.b	&0x1d43,r15	
    8bc6:	0e 4f       	mov	r15,	r14	
    8bc8:	3e f0 7f 00 	and	#127,	r14	;#0x007f
    8bcc:	1e 93       	cmp	#1,	r14	;r3 As==01
    8bce:	0c 20       	jnz	$+26     	;abs 0x8be8
    8bd0:	7f f0 80 ff 	and.b	#-128,	r15	;#0xff80
    8bd4:	6f d3       	bis.b	#2,	r15	;r3 As==10
    8bd6:	c2 4f 43 1d 	mov.b	r15,	&0x1d43	
    8bda:	3f 40 80 0c 	mov	#3200,	r15	;#0x0c80
    8bde:	b0 12 56 51 	call	#0x5156	
    8be2:	b0 12 36 60 	call	#0x6036	
    8be6:	2f 3c       	jmp	$+96     	;abs 0x8c46
    8be8:	4f 93       	tst.b	r15		
    8bea:	09 34       	jge	$+20     	;abs 0x8bfe
    8bec:	18 93       	cmp	#1,	r8	;r3 As==01
    8bee:	07 38       	jl	$+16     	;abs 0x8bfe
    8bf0:	f2 40 80 ff 43 1d 	mov.b	#-128,	&0x1d43	;#0xff80
    8bf6:	0f 48       	mov	r8,	r15	
    8bf8:	b0 12 36 60 	call	#0x6036	
    8bfc:	02 3c       	jmp	$+6      	;abs 0x8c02
    8bfe:	c2 43 43 1d 	mov.b	#0,	&0x1d43	;r3 As==00
    8c02:	82 49 5e 21 	mov	r9,	&0x215e	
    8c06:	d2 43 42 1d 	mov.b	#1,	&0x1d42	;r3 As==01
    8c0a:	08 3c       	jmp	$+18     	;abs 0x8c1c
    8c0c:	c2 43 e8 1c 	mov.b	#0,	&0x1ce8	;r3 As==00
    8c10:	c2 43 43 1d 	mov.b	#0,	&0x1d43	;r3 As==00
    8c14:	82 43 5e 21 	mov	#0,	&0x215e	;r3 As==00
    8c18:	e2 42 42 1d 	mov.b	#4,	&0x1d42	;r2 As==10
    8c1c:	b0 12 ba 4d 	call	#0x4dba	
    8c20:	12 3c       	jmp	$+38     	;abs 0x8c46
    8c22:	e2 93 6a 22 	cmp.b	#2,	&0x226a	;r3 As==10
    8c26:	04 20       	jnz	$+10     	;abs 0x8c30
    8c28:	f2 40 03 00 6a 22 	mov.b	#3,	&0x226a	;#0x0003
    8c2e:	09 3c       	jmp	$+20     	;abs 0x8c42
    8c30:	f2 90 06 00 a4 20 	cmp.b	#6,	&0x20a4	;#0x0006
    8c36:	05 20       	jnz	$+12     	;abs 0x8c42
    8c38:	c2 43 a4 20 	mov.b	#0,	&0x20a4	;r3 As==00
    8c3c:	5f 43       	mov.b	#1,	r15	;r3 As==01
    8c3e:	b0 12 a4 5b 	call	#0x5ba4	
    8c42:	b0 12 9c 8c 	call	#0x8c9c	
    8c46:	0f 42       	mov	r2,	r15	
    8c48:	3f f2       	and	#8,	r15	;r2 As==11
    8c4a:	32 c2       	dint			
    8c4c:	03 43       	nop			
    8c4e:	d2 93 2c 1d 	cmp.b	#1,	&0x1d2c	;r3 As==01
    8c52:	06 20       	jnz	$+14     	;abs 0x8c60
    8c54:	c2 43 2c 1d 	mov.b	#0,	&0x1d2c	;r3 As==00
    8c58:	0f 93       	tst	r15		
    8c5a:	1d 24       	jz	$+60     	;abs 0x8c96
    8c5c:	32 d2       	eint			
    8c5e:	1b 3c       	jmp	$+56     	;abs 0x8c96
    8c60:	d2 43 2c 1d 	mov.b	#1,	&0x1d2c	;r3 As==01
    8c64:	0f 93       	tst	r15		
    8c66:	02 20       	jnz	$+6      	;abs 0x8c6c
    8c68:	80 00 d2 84 	bra	#0x084d2	
    8c6c:	32 d2       	eint			
    8c6e:	80 00 d2 84 	bra	#0x084d2	
    8c72:	c2 47 f0 1c 	mov.b	r7,	&0x1cf0	
    8c76:	4f 47       	mov.b	r7,	r15	
    8c78:	08 4f       	mov	r15,	r8	
    8c7a:	58 02       	rlam	#1,	r8	
    8c7c:	88 4e 22 21 	mov	r14,	8482(r8);0x2122(r8)
    8c80:	5c 53       	inc.b	r12		
    8c82:	c2 4c da 1f 	mov.b	r12,	&0x1fda	
    8c86:	cf 4c 4c 22 	mov.b	r12,	8780(r15);0x224c(r15)
    8c8a:	cf 43 6b 22 	mov.b	#0,	8811(r15);r3 As==00, 0x226b(r15)
    8c8e:	80 00 06 89 	bra	#0x08906	
    8c92:	09 4f       	mov	r15,	r9	
    8c94:	96 3f       	jmp	$-210    	;abs 0x8bc2
    8c96:	21 53       	incd	r1		
    8c98:	74 17       	popm	#8,	r11	
    8c9a:	30 41       	ret			

00008c9c <TaskletC__Tasklet__schedule>:
    8c9c:	0f 42       	mov	r2,	r15	
    8c9e:	3f f2       	and	#8,	r15	;r2 As==11
    8ca0:	32 c2       	dint			
    8ca2:	03 43       	nop			
    8ca4:	5e 42 2c 1d 	mov.b	&0x1d2c,r14	
    8ca8:	4e 93       	tst.b	r14		
    8caa:	08 24       	jz	$+18     	;abs 0x8cbc
    8cac:	7e d0 80 ff 	bis.b	#-128,	r14	;#0xff80
    8cb0:	c2 4e 2c 1d 	mov.b	r14,	&0x1d2c	
    8cb4:	0f 93       	tst	r15		
    8cb6:	09 24       	jz	$+20     	;abs 0x8cca
    8cb8:	32 d2       	eint			
    8cba:	30 41       	ret			
    8cbc:	d2 43 2c 1d 	mov.b	#1,	&0x1d2c	;r3 As==01
    8cc0:	0f 93       	tst	r15		
    8cc2:	01 24       	jz	$+4      	;abs 0x8cc6
    8cc4:	32 d2       	eint			
    8cc6:	b0 12 ce 84 	call	#0x84ce	
    8cca:	30 41       	ret			

00008ccc <RF233DriverLayerP__SpiResource__granted>:
    8ccc:	b0 12 60 4e 	call	#0x4e60	
    8cd0:	b0 12 72 4e 	call	#0x4e72	
    8cd4:	c2 93 6a 22 	tst.b	&0x226a	
    8cd8:	49 20       	jnz	$+148    	;abs 0x8d6c
    8cda:	3f 40 fe 01 	mov	#510,	r15	;#0x01fe
    8cde:	b0 12 e8 50 	call	#0x50e8	
    8ce2:	0f 42       	mov	r2,	r15	
    8ce4:	32 c2       	dint			
    8ce6:	03 43       	nop			
    8ce8:	f2 f0 7f 00 23 02 	and.b	#127,	&0x0223	;#0x007f
    8cee:	3f f2       	and	#8,	r15	;r2 As==11
    8cf0:	01 24       	jz	$+4      	;abs 0x8cf4
    8cf2:	32 d2       	eint			
    8cf4:	b0 12 84 4e 	call	#0x4e84	
    8cf8:	3f 40 06 00 	mov	#6,	r15	;#0x0006
    8cfc:	b0 12 e8 50 	call	#0x50e8	
    8d00:	b0 12 96 4e 	call	#0x4e96	
    8d04:	4e 43       	clr.b	r14		
    8d06:	7f 40 03 00 	mov.b	#3,	r15	;#0x0003
    8d0a:	b0 12 7a 5b 	call	#0x5b7a	
    8d0e:	7e 42       	mov.b	#8,	r14	;r2 As==11
    8d10:	6f 43       	mov.b	#2,	r15	;r3 As==10
    8d12:	b0 12 7a 5b 	call	#0x5b7a	
    8d16:	3f 40 fe 01 	mov	#510,	r15	;#0x01fe
    8d1a:	b0 12 e8 50 	call	#0x50e8	
    8d1e:	7e 40 4d 00 	mov.b	#77,	r14	;#0x004d
    8d22:	7f 40 0e 00 	mov.b	#14,	r15	;#0x000e
    8d26:	b0 12 7a 5b 	call	#0x5b7a	
    8d2a:	7e 40 07 00 	mov.b	#7,	r14	;#0x0007
    8d2e:	7f 40 09 00 	mov.b	#9,	r15	;#0x0009
    8d32:	b0 12 7a 5b 	call	#0x5b7a	
    8d36:	7e 40 20 00 	mov.b	#32,	r14	;#0x0020
    8d3a:	6f 42       	mov.b	#4,	r15	;r2 As==10
    8d3c:	b0 12 7a 5b 	call	#0x5b7a	
    8d40:	4e 43       	clr.b	r14		
    8d42:	7f 40 05 00 	mov.b	#5,	r15	;#0x0005
    8d46:	b0 12 7a 5b 	call	#0x5b7a	
    8d4a:	c2 43 51 21 	mov.b	#0,	&0x2151	;r3 As==00
    8d4e:	f2 40 0b 00 fb 20 	mov.b	#11,	&0x20fb	;#0x000b
    8d54:	7e 40 6b 00 	mov.b	#107,	r14	;#0x006b
    8d58:	7f 42       	mov.b	#8,	r15	;r2 As==11
    8d5a:	b0 12 7a 5b 	call	#0x5b7a	
    8d5e:	b0 12 32 51 	call	#0x5132	
    8d62:	d2 43 6a 22 	mov.b	#1,	&0x226a	;r3 As==01
    8d66:	b0 12 be 58 	call	#0x58be	
    8d6a:	30 41       	ret			
    8d6c:	b0 12 9c 8c 	call	#0x8c9c	
    8d70:	30 41       	ret			

00008d72 <Msp430TimerCapComP__12__Event__fired>:
    8d72:	1f 42 82 03 	mov	&0x0382,r15	
    8d76:	8f 10       	swpb	r15		
    8d78:	5f f3       	and.b	#1,	r15	;r3 As==01
    8d7a:	0b 24       	jz	$+24     	;abs 0x8d92
    8d7c:	92 42 92 03 dc 1f 	mov	&0x0392,&0x1fdc	
    8d82:	92 c3 82 03 	bic	#1,	&0x0382	;r3 As==01
    8d86:	a2 c3 82 03 	bic	#2,	&0x0382	;r3 As==10
    8d8a:	d2 43 6c 1c 	mov.b	#1,	&0x1c6c	;r3 As==01
    8d8e:	b0 12 9c 8c 	call	#0x8c9c	
    8d92:	30 41       	ret			

00008d94 <Msp430TimerCapComP__13__Event__fired>:
    8d94:	1f 42 84 03 	mov	&0x0384,r15	
    8d98:	8f 10       	swpb	r15		
    8d9a:	5f f3       	and.b	#1,	r15	;r3 As==01
    8d9c:	03 24       	jz	$+8      	;abs 0x8da4
    8d9e:	1f 42 94 03 	mov	&0x0394,r15	
    8da2:	30 41       	ret			
    8da4:	b2 f0 ef ff 84 03 	and	#-17,	&0x0384	;#0xffef
    8daa:	d2 93 d2 1f 	cmp.b	#1,	&0x1fd2	;r3 As==01
    8dae:	02 20       	jnz	$+6      	;abs 0x8db4
    8db0:	e2 43 d2 1f 	mov.b	#2,	&0x1fd2	;r3 As==10
    8db4:	b0 12 9c 8c 	call	#0x8c9c	
    8db8:	30 41       	ret			

00008dba <TaskletC__Tasklet__resume>:
    8dba:	0f 42       	mov	r2,	r15	
    8dbc:	3f f2       	and	#8,	r15	;r2 As==11
    8dbe:	32 c2       	dint			
    8dc0:	03 43       	nop			
    8dc2:	5e 42 2c 1d 	mov.b	&0x1d2c,r14	
    8dc6:	7e 53       	add.b	#-1,	r14	;r3 As==11
    8dc8:	c2 4e 2c 1d 	mov.b	r14,	&0x1d2c	
    8dcc:	7e 90 80 ff 	cmp.b	#-128,	r14	;#0xff80
    8dd0:	04 24       	jz	$+10     	;abs 0x8dda
    8dd2:	0f 93       	tst	r15		
    8dd4:	09 24       	jz	$+20     	;abs 0x8de8
    8dd6:	32 d2       	eint			
    8dd8:	30 41       	ret			
    8dda:	d2 43 2c 1d 	mov.b	#1,	&0x1d2c	;r3 As==01
    8dde:	0f 93       	tst	r15		
    8de0:	01 24       	jz	$+4      	;abs 0x8de4
    8de2:	32 d2       	eint			
    8de4:	b0 12 ce 84 	call	#0x84ce	
    8de8:	30 41       	ret			

00008dea <Msp430Adc12ImplP__SingleChannel__singleDataReady>:
    8dea:	0b 12       	push	r11		
    8dec:	5f 93       	cmp.b	#1,	r15	;r3 As==01
    8dee:	0a 24       	jz	$+22     	;abs 0x8e04
    8df0:	03 28       	jnc	$+8      	;abs 0x8df8
    8df2:	6f 93       	cmp.b	#2,	r15	;r3 As==10
    8df4:	55 20       	jnz	$+172    	;abs 0x8ea0
    8df6:	3f 3c       	jmp	$+128    	;abs 0x8e76
    8df8:	c2 93 07 1e 	tst.b	&0x1e07	
    8dfc:	53 20       	jnz	$+168    	;abs 0x8ea4
    8dfe:	c2 43 85 20 	mov.b	#0,	&0x2085	;r3 As==00
    8e02:	42 3c       	jmp	$+134    	;abs 0x8e88
    8e04:	5f 42 00 1c 	mov.b	&0x1c00,r15	
    8e08:	5f 93       	cmp.b	#1,	r15	;r3 As==01
    8e0a:	4a 24       	jz	$+150    	;abs 0x8ea0
    8e0c:	82 93 32 20 	tst	&0x2032	
    8e10:	07 20       	jnz	$+16     	;abs 0x8e20
    8e12:	b0 12 0c 4d 	call	#0x4d0c	
    8e16:	82 4e 40 22 	mov	r14,	&0x2240	
    8e1a:	82 4f 42 22 	mov	r15,	&0x2242	
    8e1e:	24 3c       	jmp	$+74     	;abs 0x8e68
    8e20:	1b 42 da 1c 	mov	&0x1cda,r11	
    8e24:	8b 4e 00 00 	mov	r14,	0(r11)	;0x0000(r11)
    8e28:	2b 53       	incd	r11		
    8e2a:	82 4b da 1c 	mov	r11,	&0x1cda	
    8e2e:	1d 42 3e 21 	mov	&0x213e,r13	
    8e32:	1c 42 32 20 	mov	&0x2032,r12	
    8e36:	0e 4c       	mov	r12,	r14	
    8e38:	5e 02       	rlam	#1,	r14	
    8e3a:	0e 5d       	add	r13,	r14	
    8e3c:	0b 9e       	cmp	r14,	r11	
    8e3e:	18 20       	jnz	$+50     	;abs 0x8e70
    8e40:	82 93 5a 1d 	tst	&0x1d5a	
    8e44:	09 24       	jz	$+20     	;abs 0x8e58
    8e46:	4f 4f       	mov.b	r15,	r15	
    8e48:	5f 02       	rlam	#1,	r15	
    8e4a:	8f 43 4c 21 	mov	#0,	8524(r15);r3 As==00, 0x214c(r15)
    8e4e:	7f 40 21 00 	mov.b	#33,	r15	;#0x0021
    8e52:	b0 12 62 4d 	call	#0x4d62	
    8e56:	24 3c       	jmp	$+74     	;abs 0x8ea0
    8e58:	82 4c 58 21 	mov	r12,	&0x2158	
    8e5c:	82 4d 5a 1d 	mov	r13,	&0x1d5a	
    8e60:	7f 40 22 00 	mov.b	#34,	r15	;#0x0022
    8e64:	b0 12 62 4d 	call	#0x4d62	
    8e68:	5f 43       	mov.b	#1,	r15	;r3 As==01
    8e6a:	b0 12 56 62 	call	#0x6256	
    8e6e:	18 3c       	jmp	$+50     	;abs 0x8ea0
    8e70:	b0 12 2c 62 	call	#0x622c	
    8e74:	15 3c       	jmp	$+44     	;abs 0x8ea0
    8e76:	5f 42 07 1e 	mov.b	&0x1e07,r15	
    8e7a:	4f 93       	tst.b	r15		
    8e7c:	03 24       	jz	$+8      	;abs 0x8e84
    8e7e:	5f 93       	cmp.b	#1,	r15	;r3 As==01
    8e80:	11 20       	jnz	$+36     	;abs 0x8ea4
    8e82:	07 3c       	jmp	$+16     	;abs 0x8e92
    8e84:	d2 43 85 20 	mov.b	#1,	&0x2085	;r3 As==01
    8e88:	82 4e 5c 21 	mov	r14,	&0x215c	
    8e8c:	7f 40 1d 00 	mov.b	#29,	r15	;#0x001d
    8e90:	04 3c       	jmp	$+10     	;abs 0x8e9a
    8e92:	82 4e 26 1c 	mov	r14,	&0x1c26	
    8e96:	7f 40 06 00 	mov.b	#6,	r15	;#0x0006
    8e9a:	b0 12 62 4d 	call	#0x4d62	
    8e9e:	02 3c       	jmp	$+6      	;abs 0x8ea4
    8ea0:	1f 43       	mov	#1,	r15	;r3 As==01
    8ea2:	01 3c       	jmp	$+4      	;abs 0x8ea6
    8ea4:	0f 43       	clr	r15		
    8ea6:	3b 41       	pop	r11		
    8ea8:	30 41       	ret			

00008eaa <AdcStreamP__nextMultiple.part.289.constprop.453>:
    8eaa:	5b 15       	pushm	#6,	r11	
    8eac:	31 50 f0 ff 	add	#-16,	r1	;#0xfff0
    8eb0:	1a 42 d4 1f 	mov	&0x1fd4,r10	
    8eb4:	18 42 32 20 	mov	&0x2032,r8	
    8eb8:	1b 42 da 1c 	mov	&0x1cda,r11	
    8ebc:	0b 93       	tst	r11		
    8ebe:	bb 24       	jz	$+376    	;abs 0x9036
    8ec0:	08 93       	tst	r8		
    8ec2:	b9 24       	jz	$+372    	;abs 0x9036
    8ec4:	1a 93       	cmp	#1,	r10	;r3 As==01
    8ec6:	b7 24       	jz	$+368    	;abs 0x9036
    8ec8:	2a 93       	cmp	#2,	r10	;r3 As==10
    8eca:	b5 24       	jz	$+364    	;abs 0x9036
    8ecc:	09 42       	mov	r2,	r9	
    8ece:	39 f2       	and	#8,	r9	;r2 As==11
    8ed0:	32 c2       	dint			
    8ed2:	03 43       	nop			
    8ed4:	f2 b0 20 00 5e 1e 	bit.b	#32,	&0x1e5e	;#0x0020
    8eda:	04 24       	jz	$+10     	;abs 0x8ee4
    8edc:	09 93       	tst	r9		
    8ede:	ab 24       	jz	$+344    	;abs 0x9036
    8ee0:	32 d2       	eint			
    8ee2:	a9 3c       	jmp	$+340    	;abs 0x9036
    8ee4:	d2 93 02 1c 	cmp.b	#1,	&0x1c02	;r3 As==01
    8ee8:	9c 20       	jnz	$+314    	;abs 0x9022
    8eea:	81 43 0a 00 	mov	#0,	10(r1)	;r3 As==00, 0x000a(r1)
    8eee:	38 90 11 00 	cmp	#17,	r8	;#0x0011
    8ef2:	03 28       	jnc	$+8      	;abs 0x8efa
    8ef4:	7e 40 03 00 	mov.b	#3,	r14	;#0x0003
    8ef8:	01 3c       	jmp	$+4      	;abs 0x8efc
    8efa:	5e 43       	mov.b	#1,	r14	;r3 As==01
    8efc:	3e f0 03 00 	and	#3,	r14	;#0x0003
    8f00:	5e 02       	rlam	#1,	r14	
    8f02:	5f 41 0a 00 	mov.b	10(r1),	r15	;0x000a(r1)
    8f06:	7f f0 e1 ff 	and.b	#-31,	r15	;#0xffe1
    8f0a:	4f de       	bis.b	r14,	r15	
    8f0c:	7f d2       	bis.b	#8,	r15	;r2 As==11
    8f0e:	c1 4f 0a 00 	mov.b	r15,	10(r1)	;0x000a(r1)
    8f12:	e1 d3 0b 00 	bis.b	#2,	11(r1)	;r3 As==10, 0x000b(r1)
    8f16:	57 43       	mov.b	#1,	r7	;r3 As==01
    8f18:	0a 93       	tst	r10		
    8f1a:	01 20       	jnz	$+4      	;abs 0x8f1e
    8f1c:	47 43       	clr.b	r7		
    8f1e:	0f 47       	mov	r7,	r15	
    8f20:	1f f3       	and	#1,	r15	;r3 As==01
    8f22:	5f 06       	rlam	#2,	r15	
    8f24:	5e 41 0b 00 	mov.b	11(r1),	r14	;0x000b(r1)
    8f28:	7e f0 f3 ff 	and.b	#-13,	r14	;#0xfff3
    8f2c:	4e df       	bis.b	r15,	r14	
    8f2e:	c1 4e 0b 00 	mov.b	r14,	11(r1)	;0x000b(r1)
    8f32:	76 40 05 00 	mov.b	#5,	r6	;#0x0005
    8f36:	b0 12 1e 4a 	call	#0x4a1e	
    8f3a:	c1 4f 0c 00 	mov.b	r15,	12(r1)	;0x000c(r1)
    8f3e:	8f 10       	swpb	r15		
    8f40:	c1 4f 0d 00 	mov.b	r15,	13(r1)	;0x000d(r1)
    8f44:	91 41 0c 00 08 00 	mov	12(r1),	8(r1)	;0x000c(r1), 0x0008(r1)
    8f4a:	5d 43       	mov.b	#1,	r13	;r3 As==01
    8f4c:	0a 93       	tst	r10		
    8f4e:	01 24       	jz	$+4      	;abs 0x8f52
    8f50:	4d 43       	clr.b	r13		
    8f52:	1d f3       	and	#1,	r13	;r3 As==01
    8f54:	5d 0e       	rlam	#4,	r13	
    8f56:	5d 0a       	rlam	#3,	r13	
    8f58:	1f 41 08 00 	mov	8(r1),	r15	;0x0008(r1)
    8f5c:	3f f0 7f ff 	and	#-129,	r15	;#0xff7f
    8f60:	0f dd       	bis	r13,	r15	
    8f62:	81 4f 08 00 	mov	r15,	8(r1)	;0x0008(r1)
    8f66:	b1 f0 ff f0 08 00 	and	#-3841,	8(r1)	;#0xf0ff, 0x0008(r1)
    8f6c:	b1 f0 ff 0f 08 00 	and	#4095,	8(r1)	;#0x0fff, 0x0008(r1)
    8f72:	e2 42 5e 1e 	mov.b	#4,	&0x1e5e	;r2 As==10
    8f76:	82 48 e6 1c 	mov	r8,	&0x1ce6	
    8f7a:	82 4b 04 1e 	mov	r11,	&0x1e04	
    8f7e:	82 43 84 1c 	mov	#0,	&0x1c84	;r3 As==00
    8f82:	91 41 08 00 04 00 	mov	8(r1),	4(r1)	;0x0008(r1), 0x0004(r1)
    8f88:	1f 41 08 00 	mov	8(r1),	r15	;0x0008(r1)
    8f8c:	b0 12 02 4a 	call	#0x4a02	
    8f90:	91 41 0a 00 06 00 	mov	10(r1),	6(r1)	;0x000a(r1), 0x0006(r1)
    8f96:	91 41 0a 00 02 00 	mov	10(r1),	2(r1)	;0x000a(r1), 0x0002(r1)
    8f9c:	91 41 0a 00 00 00 	mov	10(r1),	0(r1)	;0x000a(r1), 0x0000(r1)
    8fa2:	a1 41 0e 00 	mov	@r1,	14(r1)	;0x000e(r1)
    8fa6:	a2 41 02 07 	mov	@r1,	&0x0702	
    8faa:	0b 43       	clr	r11		
    8fac:	38 53       	add	#-1,	r8	;r3 As==11
    8fae:	04 3c       	jmp	$+10     	;abs 0x8fb8
    8fb0:	4f 4b       	mov.b	r11,	r15	
    8fb2:	b0 12 10 4a 	call	#0x4a10	
    8fb6:	1b 53       	inc	r11		
    8fb8:	4e 46       	mov.b	r6,	r14	
    8fba:	0b 98       	cmp	r8,	r11	
    8fbc:	03 2c       	jc	$+8      	;abs 0x8fc4
    8fbe:	3b 90 0f 00 	cmp	#15,	r11	;#0x000f
    8fc2:	f6 23       	jnz	$-18     	;abs 0x8fb0
    8fc4:	7e d0 80 ff 	bis.b	#-128,	r14	;#0xff80
    8fc8:	4f 4b       	mov.b	r11,	r15	
    8fca:	b0 12 10 4a 	call	#0x4a10	
    8fce:	7b f0 0f 00 	and.b	#15,	r11	;#0x000f
    8fd2:	1f 43       	mov	#1,	r15	;r3 As==01
    8fd4:	03 24       	jz	$+8      	;abs 0x8fdc
    8fd6:	7b 53       	add.b	#-1,	r11	;r3 As==11
    8fd8:	cb 18 0f 5f 	.rpt	r11
				addx	r15,	r15	
    8fdc:	82 4f 0c 07 	mov	r15,	&0x070c	
    8fe0:	47 93       	tst.b	r7		
    8fe2:	1d 24       	jz	$+60     	;abs 0x901e
    8fe4:	f2 d0 40 00 5e 1e 	bis.b	#64,	&0x1e5e	;#0x0040
    8fea:	b2 f0 cf ff c0 03 	and	#-49,	&0x03c0	;#0xffcf
    8ff0:	a2 d2 c0 03 	bis	#4,	&0x03c0	;r2 As==10
    8ff4:	a2 c3 c0 03 	bic	#2,	&0x03c0	;r3 As==10
    8ff8:	1f 42 c0 03 	mov	&0x03c0,r15	
    8ffc:	3f f0 ff fc 	and	#-769,	r15	;#0xfcff
    9000:	3f d0 00 02 	bis	#512,	r15	;#0x0200
    9004:	82 4f c0 03 	mov	r15,	&0x03c0	
    9008:	b2 f0 3f ff c0 03 	and	#-193,	&0x03c0	;#0xff3f
    900e:	82 43 c2 03 	mov	#0,	&0x03c2	;r3 As==00
    9012:	3a 53       	add	#-1,	r10	;r3 As==11
    9014:	82 4a d2 03 	mov	r10,	&0x03d2	
    9018:	5a 03       	rrum	#1,	r10	
    901a:	82 4a d4 03 	mov	r10,	&0x03d4	
    901e:	0f 43       	clr	r15		
    9020:	01 3c       	jmp	$+4      	;abs 0x9024
    9022:	3f 42       	mov	#8,	r15	;r2 As==11
    9024:	09 93       	tst	r9		
    9026:	01 24       	jz	$+4      	;abs 0x902a
    9028:	32 d2       	eint			
    902a:	0f 93       	tst	r15		
    902c:	04 20       	jnz	$+10     	;abs 0x9036
    902e:	5f 43       	mov.b	#1,	r15	;r3 As==01
    9030:	b0 12 ee 6d 	call	#0x6dee	
    9034:	20 3c       	jmp	$+66     	;abs 0x9076
    9036:	1c 42 32 20 	mov	&0x2032,r12	
    903a:	1e 42 da 1c 	mov	&0x1cda,r14	
    903e:	2c 92       	cmp	#4,	r12	;r2 As==10
    9040:	16 28       	jnc	$+46     	;abs 0x906e
    9042:	0f 42       	mov	r2,	r15	
    9044:	3f f2       	and	#8,	r15	;r2 As==11
    9046:	32 c2       	dint			
    9048:	03 43       	nop			
    904a:	1d 42 4c 21 	mov	&0x214c,r13	
    904e:	0d 93       	tst	r13		
    9050:	04 20       	jnz	$+10     	;abs 0x905a
    9052:	0f 93       	tst	r15		
    9054:	0c 24       	jz	$+26     	;abs 0x906e
    9056:	32 d2       	eint			
    9058:	0a 3c       	jmp	$+22     	;abs 0x906e
    905a:	8e 4c 00 00 	mov	r12,	0(r14)	;0x0000(r14)
    905e:	8e 43 02 00 	mov	#0,	2(r14)	;r3 As==00, 0x0002(r14)
    9062:	8d 4e 00 00 	mov	r14,	0(r13)	;0x0000(r13)
    9066:	2e 53       	incd	r14		
    9068:	82 4e 4c 21 	mov	r14,	&0x214c	
    906c:	f2 3f       	jmp	$-26     	;abs 0x9052
    906e:	7f 40 21 00 	mov.b	#33,	r15	;#0x0021
    9072:	b0 12 62 4d 	call	#0x4d62	
    9076:	31 50 10 00 	add	#16,	r1	;#0x0010
    907a:	56 17       	popm	#6,	r11	
    907c:	30 41       	ret			

0000907e <Msp430Adc12ImplP__SingleChannel__multipleDataReady.isra.291>:
    907e:	5f 93       	cmp.b	#1,	r15	;r3 As==01
    9080:	23 20       	jnz	$+72     	;abs 0x90c8
    9082:	82 93 5a 1d 	tst	&0x1d5a	
    9086:	0a 24       	jz	$+22     	;abs 0x909c
    9088:	5f 42 00 1c 	mov.b	&0x1c00,r15	
    908c:	5f 02       	rlam	#1,	r15	
    908e:	8f 43 4c 21 	mov	#0,	8524(r15);r3 As==00, 0x214c(r15)
    9092:	7f 40 21 00 	mov.b	#33,	r15	;#0x0021
    9096:	b0 12 62 4d 	call	#0x4d62	
    909a:	16 3c       	jmp	$+46     	;abs 0x90c8
    909c:	1f 42 3e 21 	mov	&0x213e,r15	
    90a0:	82 4f 5a 1d 	mov	r15,	&0x1d5a	
    90a4:	1e 42 da 1c 	mov	&0x1cda,r14	
    90a8:	0e 8f       	sub	r15,	r14	
    90aa:	0f 4e       	mov	r14,	r15	
    90ac:	5f 01       	rram	#1,	r15	
    90ae:	82 4f 58 21 	mov	r15,	&0x2158	
    90b2:	7f 40 22 00 	mov.b	#34,	r15	;#0x0022
    90b6:	b0 12 62 4d 	call	#0x4d62	
    90ba:	4f 43       	clr.b	r15		
    90bc:	b0 12 56 62 	call	#0x6256	
    90c0:	0f 93       	tst	r15		
    90c2:	02 20       	jnz	$+6      	;abs 0x90c8
    90c4:	b0 12 aa 8e 	call	#0x8eaa	
    90c8:	0f 43       	clr	r15		
    90ca:	30 41       	ret			

000090cc <Msp430RefVoltArbiterImplP__ClientResource__granted>:
    90cc:	0b 12       	push	r11		
    90ce:	5f 93       	cmp.b	#1,	r15	;r3 As==01
    90d0:	23 24       	jz	$+72     	;abs 0x9118
    90d2:	03 28       	jnc	$+8      	;abs 0x90da
    90d4:	6f 93       	cmp.b	#2,	r15	;r3 As==10
    90d6:	6e 20       	jnz	$+222    	;abs 0x91b4
    90d8:	5b 3c       	jmp	$+184    	;abs 0x9190
    90da:	5f 42 24 c2 	mov.b	&0xc224,r15	
    90de:	7f f0 1f 00 	and.b	#31,	r15	;#0x001f
    90e2:	7f 90 10 00 	cmp.b	#16,	r15	;#0x0010
    90e6:	0c 24       	jz	$+26     	;abs 0x9100
    90e8:	3e 40 24 c2 	mov	#-15836,r14	;#0xc224
    90ec:	4f 43       	clr.b	r15		
    90ee:	b0 12 44 52 	call	#0x5244	
    90f2:	0f 93       	tst	r15		
    90f4:	08 20       	jnz	$+18     	;abs 0x9106
    90f6:	c2 43 07 1e 	mov.b	#0,	&0x1e07	;r3 As==00
    90fa:	b0 12 ee 6d 	call	#0x6dee	
    90fe:	5a 3c       	jmp	$+182    	;abs 0x91b4
    9100:	3b 40 06 00 	mov	#6,	r11	;#0x0006
    9104:	01 3c       	jmp	$+4      	;abs 0x9108
    9106:	0b 4f       	mov	r15,	r11	
    9108:	4f 43       	clr.b	r15		
    910a:	b0 12 2e 5a 	call	#0x5a2e	
    910e:	0e 43       	clr	r14		
    9110:	0f 4b       	mov	r11,	r15	
    9112:	b0 12 c4 63 	call	#0x63c4	
    9116:	4e 3c       	jmp	$+158    	;abs 0x91b4
    9118:	1e 42 3a 1d 	mov	&0x1d3a,r14	
    911c:	1f 42 3c 1d 	mov	&0x1d3c,r15	
    9120:	0c 4e       	mov	r14,	r12	
    9122:	0d 4f       	mov	r15,	r13	
    9124:	0c f3       	and	#0,	r12	;r3 As==00
    9126:	3d f3       	and	#-1,	r13	;r3 As==11
    9128:	0c 93       	tst	r12		
    912a:	02 20       	jnz	$+6      	;abs 0x9130
    912c:	0d 93       	tst	r13		
    912e:	20 24       	jz	$+66     	;abs 0x9170
    9130:	3c 40 e8 03 	mov	#1000,	r12	;#0x03e8
    9134:	0d 43       	clr	r13		
    9136:	b0 12 e6 ae 	call	#0xaee6	
    913a:	82 4e d4 1f 	mov	r14,	&0x1fd4	
    913e:	82 4f d6 1f 	mov	r15,	&0x1fd6	
    9142:	d2 43 c4 1e 	mov.b	#1,	&0x1ec4	;r3 As==01
    9146:	c2 43 00 1c 	mov.b	#0,	&0x1c00	;r3 As==00
    914a:	b0 12 0c 4d 	call	#0x4d0c	
    914e:	82 4e 40 22 	mov	r14,	&0x2240	
    9152:	82 4f 42 22 	mov	r15,	&0x2242	
    9156:	3e 40 24 c2 	mov	#-15836,r14	;#0xc224
    915a:	5f 43       	mov.b	#1,	r15	;r3 As==01
    915c:	b0 12 44 52 	call	#0x5244	
    9160:	4f 43       	clr.b	r15		
    9162:	b0 12 56 62 	call	#0x6256	
    9166:	0f 93       	tst	r15		
    9168:	25 20       	jnz	$+76     	;abs 0x91b4
    916a:	b0 12 10 6f 	call	#0x6f10	
    916e:	22 3c       	jmp	$+70     	;abs 0x91b4
    9170:	82 4e d4 1f 	mov	r14,	&0x1fd4	
    9174:	82 4f d6 1f 	mov	r15,	&0x1fd6	
    9178:	c2 43 c4 1e 	mov.b	#0,	&0x1ec4	;r3 As==00
    917c:	c2 43 00 1c 	mov.b	#0,	&0x1c00	;r3 As==00
    9180:	4f 43       	clr.b	r15		
    9182:	b0 12 56 62 	call	#0x6256	
    9186:	0f 93       	tst	r15		
    9188:	15 20       	jnz	$+44     	;abs 0x91b4
    918a:	b0 12 aa 8e 	call	#0x8eaa	
    918e:	12 3c       	jmp	$+38     	;abs 0x91b4
    9190:	5e 42 24 c2 	mov.b	&0xc224,r14	
    9194:	7e f0 1f 00 	and.b	#31,	r14	;#0x001f
    9198:	7e 90 10 00 	cmp.b	#16,	r14	;#0x0010
    919c:	09 24       	jz	$+20     	;abs 0x91b0
    919e:	3e 40 24 c2 	mov	#-15836,r14	;#0xc224
    91a2:	b0 12 44 52 	call	#0x5244	
    91a6:	0f 93       	tst	r15		
    91a8:	03 20       	jnz	$+8      	;abs 0x91b0
    91aa:	d2 43 07 1e 	mov.b	#1,	&0x1e07	;r3 As==01
    91ae:	02 3c       	jmp	$+6      	;abs 0x91b4
    91b0:	e2 43 07 1e 	mov.b	#2,	&0x1e07	;r3 As==10
    91b4:	3b 41       	pop	r11		
    91b6:	30 41       	ret			

000091b8 <VirtualizeTimerC__0__fireTimers>:
    91b8:	6b 15       	pushm	#7,	r11	
    91ba:	21 82       	sub	#4,	r1	;r2 As==10
    91bc:	06 43       	clr	r6		
    91be:	07 46       	mov	r6,	r7	
    91c0:	57 02       	rlam	#1,	r7	
    91c2:	0d 46       	mov	r6,	r13	
    91c4:	5d 0a       	rlam	#3,	r13	
    91c6:	07 5d       	add	r13,	r7	
    91c8:	37 50 ca 1e 	add	#7882,	r7	;#0x1eca
    91cc:	55 47 08 00 	mov.b	8(r7),	r5	;0x0008(r7)
    91d0:	65 b3       	bit.b	#2,	r5	;r3 As==10
    91d2:	02 20       	jnz	$+6      	;abs 0x91d8
    91d4:	80 00 fc 94 	bra	#0x094fc	
    91d8:	28 47       	mov	@r7,	r8	
    91da:	19 47 02 00 	mov	2(r7),	r9	;0x0002(r7)
    91de:	1c 47 04 00 	mov	4(r7),	r12	;0x0004(r7)
    91e2:	1d 47 06 00 	mov	6(r7),	r13	;0x0006(r7)
    91e6:	0a 4e       	mov	r14,	r10	
    91e8:	0b 4f       	mov	r15,	r11	
    91ea:	0a 88       	sub	r8,	r10	
    91ec:	0b 79       	subc	r9,	r11	
    91ee:	0b 9d       	cmp	r13,	r11	
    91f0:	02 2c       	jc	$+6      	;abs 0x91f6
    91f2:	80 00 fc 94 	bra	#0x094fc	
    91f6:	04 20       	jnz	$+10     	;abs 0x9200
    91f8:	0a 9c       	cmp	r12,	r10	
    91fa:	02 2c       	jc	$+6      	;abs 0x9200
    91fc:	80 00 fc 94 	bra	#0x094fc	
    9200:	55 f3       	and.b	#1,	r5	;r3 As==01
    9202:	03 24       	jz	$+8      	;abs 0x920a
    9204:	e7 c3 08 00 	bic.b	#2,	8(r7)	;r3 As==10, 0x0008(r7)
    9208:	08 3c       	jmp	$+18     	;abs 0x921a
    920a:	0a 4c       	mov	r12,	r10	
    920c:	0b 4d       	mov	r13,	r11	
    920e:	0a 58       	add	r8,	r10	
    9210:	0b 69       	addc	r9,	r11	
    9212:	87 4a 00 00 	mov	r10,	0(r7)	;0x0000(r7)
    9216:	87 4b 02 00 	mov	r11,	2(r7)	;0x0002(r7)
    921a:	76 90 0a 00 	cmp.b	#10,	r6	;#0x000a
    921e:	02 28       	jnc	$+6      	;abs 0x9224
    9220:	80 00 08 95 	bra	#0x09508	
    9224:	46 46       	mov.b	r6,	r6	
    9226:	56 02       	rlam	#1,	r6	
    9228:	10 46 58 c1 	br	-16040(r6)	;0xc158(r6)
    922c:	5f 42 86 1c 	mov.b	&0x1c86,r15	
    9230:	7f 90 0d 00 	cmp.b	#13,	r15	;#0x000d
    9234:	04 20       	jnz	$+10     	;abs 0x923e
    9236:	f2 40 14 00 86 1c 	mov.b	#20,	&0x1c86	;#0x0014
    923c:	14 3c       	jmp	$+42     	;abs 0x9266
    923e:	7f 90 17 00 	cmp.b	#23,	r15	;#0x0017
    9242:	04 20       	jnz	$+10     	;abs 0x924c
    9244:	f2 40 0a 00 86 1c 	mov.b	#10,	&0x1c86	;#0x000a
    924a:	0d 3c       	jmp	$+28     	;abs 0x9266
    924c:	7f 90 22 00 	cmp.b	#34,	r15	;#0x0022
    9250:	04 20       	jnz	$+10     	;abs 0x925a
    9252:	f2 40 23 00 86 1c 	mov.b	#35,	&0x1c86	;#0x0023
    9258:	06 3c       	jmp	$+14     	;abs 0x9266
    925a:	7f 90 21 00 	cmp.b	#33,	r15	;#0x0021
    925e:	03 20       	jnz	$+8      	;abs 0x9266
    9260:	f2 40 24 00 86 1c 	mov.b	#36,	&0x1c86	;#0x0024
    9266:	b0 12 c4 4d 	call	#0x4dc4	
    926a:	80 00 08 95 	bra	#0x09508	
    926e:	5d 42 02 21 	mov.b	&0x2102,r13	
    9272:	3e 40 03 21 	mov	#8451,	r14	;#0x2103
    9276:	3f 40 82 1e 	mov	#7810,	r15	;#0x1e82
    927a:	b0 12 90 ba 	call	#0xba90	
    927e:	1c 42 92 20 	mov	&0x2092,r12	
    9282:	1d 42 94 20 	mov	&0x2094,r13	
    9286:	f2 b2 90 20 	bit.b	#8,	&0x2090	;r2 As==11
    928a:	0f 43       	clr	r15		
    928c:	0f 6f       	rlc	r15		
    928e:	4f 93       	tst.b	r15		
    9290:	05 24       	jz	$+12     	;abs 0x929c
    9292:	1e 42 9a 20 	mov	&0x209a,r14	
    9296:	1f 42 9c 20 	mov	&0x209c,r15	
    929a:	02 3c       	jmp	$+6      	;abs 0x92a0
    929c:	0e 43       	clr	r14		
    929e:	0f 43       	clr	r15		
    92a0:	0a 4c       	mov	r12,	r10	
    92a2:	0b 4d       	mov	r13,	r11	
    92a4:	0a 8e       	sub	r14,	r10	
    92a6:	0b 7f       	subc	r15,	r11	
    92a8:	0d 4a       	mov	r10,	r13	
    92aa:	0e 4b       	mov	r11,	r14	
    92ac:	7f 40 05 00 	mov.b	#5,	r15	;#0x0005
    92b0:	12 c3       	clrc			
    92b2:	0e 10       	rrc	r14		
    92b4:	0d 10       	rrc	r13		
    92b6:	7f 53       	add.b	#-1,	r15	;r3 As==11
    92b8:	fb 23       	jnz	$-8      	;abs 0x92b0
    92ba:	3f 40 9d 1e 	mov	#7837,	r15	;#0x1e9d
    92be:	b0 12 9c 49 	call	#0x499c	
    92c2:	5e 42 02 21 	mov.b	&0x2102,r14	
    92c6:	7e 90 33 00 	cmp.b	#51,	r14	;#0x0033
    92ca:	02 28       	jnc	$+6      	;abs 0x92d0
    92cc:	80 00 08 95 	bra	#0x09508	
    92d0:	c2 43 7c 1e 	mov.b	#0,	&0x1e7c	;r3 As==00
    92d4:	c2 43 7b 1e 	mov.b	#0,	&0x1e7b	;r3 As==00
    92d8:	f2 40 90 ff 81 1e 	mov.b	#-112,	&0x1e81	;#0xff90
    92de:	c2 4e 7f 1e 	mov.b	r14,	&0x1e7f	
    92e2:	3f 40 76 1e 	mov	#7798,	r15	;#0x1e76
    92e6:	b0 12 48 56 	call	#0x5648	
    92ea:	80 00 08 95 	bra	#0x09508	
    92ee:	c2 93 6a 1c 	tst.b	&0x1c6a	
    92f2:	04 20       	jnz	$+10     	;abs 0x92fc
    92f4:	e2 c3 e6 1e 	bic.b	#2,	&0x1ee6	;r3 As==10
    92f8:	80 00 08 95 	bra	#0x09508	
    92fc:	c2 93 69 1c 	tst.b	&0x1c69	
    9300:	02 24       	jz	$+6      	;abs 0x9306
    9302:	80 00 08 95 	bra	#0x09508	
    9306:	0f 42       	mov	r2,	r15	
    9308:	32 c2       	dint			
    930a:	03 43       	nop			
    930c:	f2 f0 7f 00 42 02 	and.b	#127,	&0x0242	;#0x007f
    9312:	3f f2       	and	#8,	r15	;r2 As==11
    9314:	01 24       	jz	$+4      	;abs 0x9318
    9316:	32 d2       	eint			
    9318:	3d 40 05 00 	mov	#5,	r13	;#0x0005
    931c:	0e 43       	clr	r14		
    931e:	6f 42       	mov.b	#4,	r15	;r2 As==10
    9320:	b0 12 30 5c 	call	#0x5c30	
    9324:	1f 42 66 1c 	mov	&0x1c66,r15	
    9328:	0b 4f       	mov	r15,	r11	
    932a:	1b 53       	inc	r11		
    932c:	82 4b 66 1c 	mov	r11,	&0x1c66	
    9330:	c2 4f b4 20 	mov.b	r15,	&0x20b4	
    9334:	8f 10       	swpb	r15		
    9336:	c2 4f b3 20 	mov.b	r15,	&0x20b3	
    933a:	1f 42 44 1c 	mov	&0x1c44,r15	
    933e:	c2 4f b6 20 	mov.b	r15,	&0x20b6	
    9342:	8f 10       	swpb	r15		
    9344:	c2 4f b5 20 	mov.b	r15,	&0x20b5	
    9348:	b0 12 0c 4d 	call	#0x4d0c	
    934c:	81 4e 00 00 	mov	r14,	0(r1)	;0x0000(r1)
    9350:	81 4f 02 00 	mov	r15,	2(r1)	;0x0002(r1)
    9354:	0d 4e       	mov	r14,	r13	
    9356:	0e 4f       	mov	r15,	r14	
    9358:	3f 40 b7 20 	mov	#8375,	r15	;#0x20b7
    935c:	b0 12 9c 49 	call	#0x499c	
    9360:	0f 41       	mov	r1,	r15	
    9362:	b0 12 6c 5c 	call	#0x5c6c	
    9366:	2d 41       	mov	@r1,	r13	
    9368:	1e 41 02 00 	mov	2(r1),	r14	;0x0002(r1)
    936c:	3f 40 bb 20 	mov	#8379,	r15	;#0x20bb
    9370:	b0 12 9c 49 	call	#0x499c	
    9374:	c2 43 e5 20 	mov.b	#0,	&0x20e5	;r3 As==00
    9378:	e2 43 e6 20 	mov.b	#2,	&0x20e6	;r3 As==10
    937c:	3f 40 b7 20 	mov	#8375,	r15	;#0x20b7
    9380:	b0 12 c8 49 	call	#0x49c8	
    9384:	0a 4e       	mov	r14,	r10	
    9386:	0b 4f       	mov	r15,	r11	
    9388:	b0 12 0c 4d 	call	#0x4d0c	
    938c:	08 4e       	mov	r14,	r8	
    938e:	09 4f       	mov	r15,	r9	
    9390:	b0 12 f6 5e 	call	#0x5ef6	
    9394:	0a 88       	sub	r8,	r10	
    9396:	0b 79       	subc	r9,	r11	
    9398:	0c 4a       	mov	r10,	r12	
    939a:	0d 4b       	mov	r11,	r13	
    939c:	4d ea       	xor.b	r10,	r13	
    939e:	0d ea       	xor	r10,	r13	
    93a0:	8d 10       	swpb	r13		
    93a2:	4c 4c       	mov.b	r12,	r12	
    93a4:	8c 10       	swpb	r12		
    93a6:	0c 5c       	rla	r12		
    93a8:	0d 6d       	rlc	r13		
    93aa:	0c 5c       	rla	r12		
    93ac:	0d 6d       	rlc	r13		
    93ae:	0c 5e       	add	r14,	r12	
    93b0:	0d 6f       	addc	r15,	r13	
    93b2:	1d 15       	pushm	#2,	r13	
    93b4:	7d 40 0c 00 	mov.b	#12,	r13	;#0x000c
    93b8:	3e 40 a7 20 	mov	#8359,	r14	;#0x20a7
    93bc:	7f 40 06 00 	mov.b	#6,	r15	;#0x0006
    93c0:	b0 12 8c 65 	call	#0x658c	
    93c4:	21 52       	add	#4,	r1	;r2 As==10
    93c6:	0f 93       	tst	r15		
    93c8:	9f 20       	jnz	$+320    	;abs 0x9508
    93ca:	d2 43 69 1c 	mov.b	#1,	&0x1c69	;r3 As==01
    93ce:	9c 3c       	jmp	$+314    	;abs 0x9508
    93d0:	b0 12 28 50 	call	#0x5028	
    93d4:	3d 40 05 00 	mov	#5,	r13	;#0x0005
    93d8:	0e 43       	clr	r14		
    93da:	6f 42       	mov.b	#4,	r15	;r2 As==10
    93dc:	b0 12 30 5c 	call	#0x5c30	
    93e0:	92 93 44 1c 	cmp	#1,	&0x1c44	;r3 As==01
    93e4:	05 20       	jnz	$+12     	;abs 0x93f0
    93e6:	c2 93 68 1c 	tst.b	&0x1c68	
    93ea:	02 20       	jnz	$+6      	;abs 0x93f0
    93ec:	b0 12 c0 5c 	call	#0x5cc0	
    93f0:	4f 43       	clr.b	r15		
    93f2:	b0 12 4c 63 	call	#0x634c	
    93f6:	88 3c       	jmp	$+274    	;abs 0x9508
    93f8:	b0 12 aa 4e 	call	#0x4eaa	
    93fc:	b0 12 bc 4e 	call	#0x4ebc	
    9400:	b0 12 ce 4e 	call	#0x4ece	
    9404:	81 3c       	jmp	$+260    	;abs 0x9508
    9406:	3d 40 20 4e 	mov	#20000,	r13	;#0x4e20
    940a:	0e 43       	clr	r14		
    940c:	6f 43       	mov.b	#2,	r15	;r3 As==10
    940e:	b0 12 f4 5a 	call	#0x5af4	
    9412:	7a 3c       	jmp	$+246    	;abs 0x9508
    9414:	b0 12 3a 50 	call	#0x503a	
    9418:	3d 40 05 00 	mov	#5,	r13	;#0x0005
    941c:	0e 43       	clr	r14		
    941e:	6f 42       	mov.b	#4,	r15	;r2 As==10
    9420:	6a 3c       	jmp	$+214    	;abs 0x94f6
    9422:	c2 93 75 1c 	tst.b	&0x1c75	
    9426:	2f 20       	jnz	$+96     	;abs 0x9486
    9428:	1f 42 dc 1c 	mov	&0x1cdc,r15	
    942c:	6e 4f       	mov.b	@r15,	r14	
    942e:	8e 10       	swpb	r14		
    9430:	5d 4f 01 00 	mov.b	1(r15),	r13	;0x0001(r15)
    9434:	0e dd       	bis	r13,	r14	
    9436:	3e 93       	cmp	#-1,	r14	;r3 As==11
    9438:	11 20       	jnz	$+36     	;abs 0x945c
    943a:	5e 42 06 1e 	mov.b	&0x1e06,r14	
    943e:	5e 53       	inc.b	r14		
    9440:	c2 4e 06 1e 	mov.b	r14,	&0x1e06	
    9444:	7e 90 05 00 	cmp.b	#5,	r14	;#0x0005
    9448:	09 28       	jnc	$+20     	;abs 0x945c
    944a:	cf 43 04 00 	mov.b	#0,	4(r15)	;r3 As==00, 0x0004(r15)
    944e:	1e 42 44 1c 	mov	&0x1c44,r14	
    9452:	cf 4e 01 00 	mov.b	r14,	1(r15)	;0x0001(r15)
    9456:	8e 10       	swpb	r14		
    9458:	cf 4e 00 00 	mov.b	r14,	0(r15)	;0x0000(r15)
    945c:	1e 42 dc 1c 	mov	&0x1cdc,r14	
    9460:	6f 4e       	mov.b	@r14,	r15	
    9462:	8f 10       	swpb	r15		
    9464:	5e 4e 01 00 	mov.b	1(r14),	r14	;0x0001(r14)
    9468:	0f de       	bis	r14,	r15	
    946a:	3f 93       	cmp	#-1,	r15	;r3 As==11
    946c:	4d 24       	jz	$+156    	;abs 0x9508
    946e:	5f 42 54 1d 	mov.b	&0x1d54,r15	
    9472:	6f b3       	bit.b	#2,	r15	;r3 As==10
    9474:	49 20       	jnz	$+148    	;abs 0x9508
    9476:	6f d3       	bis.b	#2,	r15	;r3 As==10
    9478:	c2 4f 54 1d 	mov.b	r15,	&0x1d54	
    947c:	7f 40 1a 00 	mov.b	#26,	r15	;#0x001a
    9480:	b0 12 62 4d 	call	#0x4d62	
    9484:	41 3c       	jmp	$+132    	;abs 0x9508
    9486:	e2 c3 18 1f 	bic.b	#2,	&0x1f18	;r3 As==10
    948a:	3e 3c       	jmp	$+126    	;abs 0x9508
    948c:	1f 42 2c 21 	mov	&0x212c,r15	
    9490:	3f 90 03 00 	cmp	#3,	r15	;#0x0003
    9494:	03 24       	jz	$+8      	;abs 0x949c
    9496:	2f 92       	cmp	#4,	r15	;r2 As==10
    9498:	37 20       	jnz	$+112    	;abs 0x9508
    949a:	03 3c       	jmp	$+8      	;abs 0x94a2
    949c:	92 43 2c 21 	mov	#1,	&0x212c	;r3 As==01
    94a0:	02 3c       	jmp	$+6      	;abs 0x94a6
    94a2:	a2 43 2c 21 	mov	#2,	&0x212c	;r3 As==10
    94a6:	5f 42 01 1c 	mov.b	&0x1c01,r15	
    94aa:	7f 93       	cmp.b	#-1,	r15	;r3 As==11
    94ac:	2d 24       	jz	$+92     	;abs 0x9508
    94ae:	b0 12 cc 90 	call	#0x90cc	
    94b2:	2a 3c       	jmp	$+86     	;abs 0x9508
    94b4:	1f 42 2c 21 	mov	&0x212c,r15	
    94b8:	3f 90 05 00 	cmp	#5,	r15	;#0x0005
    94bc:	04 24       	jz	$+10     	;abs 0x94c6
    94be:	3f 90 06 00 	cmp	#6,	r15	;#0x0006
    94c2:	22 20       	jnz	$+70     	;abs 0x9508
    94c4:	0d 3c       	jmp	$+28     	;abs 0x94e0
    94c6:	b0 12 0c 5e 	call	#0x5e0c	
    94ca:	0f 93       	tst	r15		
    94cc:	03 20       	jnz	$+8      	;abs 0x94d4
    94ce:	82 43 2c 21 	mov	#0,	&0x212c	;r3 As==00
    94d2:	1a 3c       	jmp	$+54     	;abs 0x9508
    94d4:	3d 40 14 00 	mov	#20,	r13	;#0x0014
    94d8:	0e 43       	clr	r14		
    94da:	7f 40 09 00 	mov.b	#9,	r15	;#0x0009
    94de:	0b 3c       	jmp	$+24     	;abs 0x94f6
    94e0:	b0 12 0c 5e 	call	#0x5e0c	
    94e4:	0f 93       	tst	r15		
    94e6:	f6 23       	jnz	$-18     	;abs 0x94d4
    94e8:	82 43 2c 21 	mov	#0,	&0x212c	;r3 As==00
    94ec:	3d 40 00 08 	mov	#2048,	r13	;#0x0800
    94f0:	0e 43       	clr	r14		
    94f2:	7f 40 0a 00 	mov.b	#10,	r15	;#0x000a
    94f6:	b0 12 30 5c 	call	#0x5c30	
    94fa:	06 3c       	jmp	$+14     	;abs 0x9508
    94fc:	16 53       	inc	r6		
    94fe:	36 90 0b 00 	cmp	#11,	r6	;#0x000b
    9502:	02 24       	jz	$+6      	;abs 0x9508
    9504:	80 00 be 91 	bra	#0x091be	
    9508:	7f 40 05 00 	mov.b	#5,	r15	;#0x0005
    950c:	b0 12 62 4d 	call	#0x4d62	
    9510:	21 52       	add	#4,	r1	;r2 As==10
    9512:	65 17       	popm	#7,	r11	
    9514:	30 41       	ret			

00009516 <Msp430RefVoltGeneratorP__signalStartDone.isra.340>:
    9516:	5f 42 01 1c 	mov.b	&0x1c01,r15	
    951a:	7f 93       	cmp.b	#-1,	r15	;r3 As==11
    951c:	02 24       	jz	$+6      	;abs 0x9522
    951e:	b0 12 cc 90 	call	#0x90cc	
    9522:	30 41       	ret			

00009524 <Msp430RefVoltGeneratorP__stop>:
    9524:	0b 12       	push	r11		
    9526:	1e 42 2c 21 	mov	&0x212c,r14	
    952a:	0e 93       	tst	r14		
    952c:	25 24       	jz	$+76     	;abs 0x9578
    952e:	0d 4e       	mov	r14,	r13	
    9530:	3d 53       	add	#-1,	r13	;r3 As==11
    9532:	2d 93       	cmp	#2,	r13	;r3 As==10
    9534:	0a 2c       	jc	$+22     	;abs 0x954a
    9536:	82 4f 2c 21 	mov	r15,	&0x212c	
    953a:	3d 40 14 00 	mov	#20,	r13	;#0x0014
    953e:	0e 43       	clr	r14		
    9540:	7f 40 09 00 	mov.b	#9,	r15	;#0x0009
    9544:	b0 12 30 5c 	call	#0x5c30	
    9548:	15 3c       	jmp	$+44     	;abs 0x9574
    954a:	0d 4e       	mov	r14,	r13	
    954c:	3d 50 fd ff 	add	#-3,	r13	;#0xfffd
    9550:	2d 93       	cmp	#2,	r13	;r3 As==10
    9552:	0e 2c       	jc	$+30     	;abs 0x9570
    9554:	b0 12 0c 5e 	call	#0x5e0c	
    9558:	0b 4f       	mov	r15,	r11	
    955a:	0f 93       	tst	r15		
    955c:	12 20       	jnz	$+38     	;abs 0x9582
    955e:	1f 42 2c 21 	mov	&0x212c,r15	
    9562:	e2 c3 22 1f 	bic.b	#2,	&0x1f22	;r3 As==10
    9566:	82 43 2c 21 	mov	#0,	&0x212c	;r3 As==00
    956a:	b0 12 16 95 	call	#0x9516	
    956e:	09 3c       	jmp	$+20     	;abs 0x9582
    9570:	0e 9f       	cmp	r15,	r14	
    9572:	05 20       	jnz	$+12     	;abs 0x957e
    9574:	0b 43       	clr	r11		
    9576:	05 3c       	jmp	$+12     	;abs 0x9582
    9578:	3b 40 09 00 	mov	#9,	r11	;#0x0009
    957c:	02 3c       	jmp	$+6      	;abs 0x9582
    957e:	3b 40 05 00 	mov	#5,	r11	;#0x0005
    9582:	0f 4b       	mov	r11,	r15	
    9584:	3b 41       	pop	r11		
    9586:	30 41       	ret			

00009588 <Msp430RefVoltGeneratorP__start>:
    9588:	1b 15       	pushm	#2,	r11	
    958a:	0b 4f       	mov	r15,	r11	
    958c:	1f 42 2c 21 	mov	&0x212c,r15	
    9590:	0e 4f       	mov	r15,	r14	
    9592:	3e 53       	add	#-1,	r14	;r3 As==11
    9594:	2e 93       	cmp	#2,	r14	;r3 As==10
    9596:	0c 2c       	jc	$+26     	;abs 0x95b0
    9598:	0b 9f       	cmp	r15,	r11	
    959a:	5b 24       	jz	$+184    	;abs 0x9652
    959c:	4f 4b       	mov.b	r11,	r15	
    959e:	b0 12 74 5e 	call	#0x5e74	
    95a2:	0a 4f       	mov	r15,	r10	
    95a4:	0f 93       	tst	r15		
    95a6:	5a 20       	jnz	$+182    	;abs 0x965c
    95a8:	92 93 2c 21 	cmp	#1,	&0x212c	;r3 As==01
    95ac:	43 20       	jnz	$+136    	;abs 0x9634
    95ae:	3c 3c       	jmp	$+122    	;abs 0x9628
    95b0:	0f 93       	tst	r15		
    95b2:	1e 20       	jnz	$+62     	;abs 0x95f0
    95b4:	4f 4b       	mov.b	r11,	r15	
    95b6:	b0 12 74 5e 	call	#0x5e74	
    95ba:	0a 4f       	mov	r15,	r10	
    95bc:	0f 93       	tst	r15		
    95be:	4e 20       	jnz	$+158    	;abs 0x965c
    95c0:	1b 93       	cmp	#1,	r11	;r3 As==01
    95c2:	0a 20       	jnz	$+22     	;abs 0x95d8
    95c4:	e2 b3 36 1f 	bit.b	#2,	&0x1f36	;r3 As==10
    95c8:	0f 43       	clr	r15		
    95ca:	0f 6f       	rlc	r15		
    95cc:	4f 93       	tst.b	r15		
    95ce:	04 24       	jz	$+10     	;abs 0x95d8
    95d0:	3d 40 46 00 	mov	#70,	r13	;#0x0046
    95d4:	0e 43       	clr	r14		
    95d6:	03 3c       	jmp	$+8      	;abs 0x95de
    95d8:	3d 40 11 00 	mov	#17,	r13	;#0x0011
    95dc:	0e 43       	clr	r14		
    95de:	7f 42       	mov.b	#8,	r15	;r2 As==11
    95e0:	b0 12 30 5c 	call	#0x5c30	
    95e4:	e2 c3 36 1f 	bic.b	#2,	&0x1f36	;r3 As==10
    95e8:	2b 53       	incd	r11		
    95ea:	82 4b 2c 21 	mov	r11,	&0x212c	
    95ee:	36 3c       	jmp	$+110    	;abs 0x965c
    95f0:	0e 4f       	mov	r15,	r14	
    95f2:	3e 50 fb ff 	add	#-5,	r14	;#0xfffb
    95f6:	2e 93       	cmp	#2,	r14	;r3 As==10
    95f8:	27 2c       	jc	$+80     	;abs 0x9648
    95fa:	4f 4b       	mov.b	r11,	r15	
    95fc:	b0 12 74 5e 	call	#0x5e74	
    9600:	0a 4f       	mov	r15,	r10	
    9602:	0f 93       	tst	r15		
    9604:	2b 20       	jnz	$+88     	;abs 0x965c
    9606:	e2 c3 2c 1f 	bic.b	#2,	&0x1f2c	;r3 As==10
    960a:	1f 42 2c 21 	mov	&0x212c,r15	
    960e:	0e 4f       	mov	r15,	r14	
    9610:	2e 82       	sub	#4,	r14	;r2 As==10
    9612:	0b 9e       	cmp	r14,	r11	
    9614:	06 20       	jnz	$+14     	;abs 0x9622
    9616:	82 4b 2c 21 	mov	r11,	&0x212c	
    961a:	0f 4b       	mov	r11,	r15	
    961c:	b0 12 16 95 	call	#0x9516	
    9620:	1d 3c       	jmp	$+60     	;abs 0x965c
    9622:	3f 90 05 00 	cmp	#5,	r15	;#0x0005
    9626:	06 20       	jnz	$+14     	;abs 0x9634
    9628:	a2 42 2c 21 	mov	#4,	&0x212c	;r2 As==10
    962c:	3d 40 11 00 	mov	#17,	r13	;#0x0011
    9630:	0e 43       	clr	r14		
    9632:	06 3c       	jmp	$+14     	;abs 0x9640
    9634:	b2 40 03 00 2c 21 	mov	#3,	&0x212c	;#0x0003
    963a:	3d 40 46 00 	mov	#70,	r13	;#0x0046
    963e:	0e 43       	clr	r14		
    9640:	7f 42       	mov.b	#8,	r15	;r2 As==11
    9642:	b0 12 30 5c 	call	#0x5c30	
    9646:	0a 3c       	jmp	$+22     	;abs 0x965c
    9648:	2b 53       	incd	r11		
    964a:	0f 9b       	cmp	r11,	r15	
    964c:	05 20       	jnz	$+12     	;abs 0x9658
    964e:	0a 43       	clr	r10		
    9650:	05 3c       	jmp	$+12     	;abs 0x965c
    9652:	3a 40 09 00 	mov	#9,	r10	;#0x0009
    9656:	02 3c       	jmp	$+6      	;abs 0x965c
    9658:	3a 40 05 00 	mov	#5,	r10	;#0x0005
    965c:	0f 4a       	mov	r10,	r15	
    965e:	1a 17       	popm	#2,	r11	
    9660:	30 41       	ret			

00009662 <Msp430RefVoltArbiterImplP__AdcResource__granted>:
    9662:	0b 12       	push	r11		
    9664:	4b 4f       	mov.b	r15,	r11	
    9666:	7f 90 03 00 	cmp.b	#3,	r15	;#0x0003
    966a:	03 28       	jnc	$+8      	;abs 0x9672
    966c:	3f 40 2c c2 	mov	#-15828,r15	;#0xc22c
    9670:	02 3c       	jmp	$+6      	;abs 0x9676
    9672:	3f 40 24 c2 	mov	#-15836,r15	;#0xc224
    9676:	6e 4f       	mov.b	@r15,	r14	
    9678:	7e f0 e0 ff 	and.b	#-32,	r14	;#0xffe0
    967c:	7e 90 20 00 	cmp.b	#32,	r14	;#0x0020
    9680:	03 24       	jz	$+8      	;abs 0x9688
    9682:	7e 90 a0 ff 	cmp.b	#-96,	r14	;#0xffa0
    9686:	1d 20       	jnz	$+60     	;abs 0x96c2
    9688:	f2 93 01 1c 	cmp.b	#-1,	&0x1c01	;r3 As==11
    968c:	01 24       	jz	$+4      	;abs 0x9690
    968e:	12 3c       	jmp	$+38     	;abs 0x96b4
    9690:	c2 4b 01 1c 	mov.b	r11,	&0x1c01	
    9694:	df b3 01 00 	bit.b	#1,	1(r15)	;r3 As==01, 0x0001(r15)
    9698:	04 20       	jnz	$+10     	;abs 0x96a2
    969a:	c2 43 fa 20 	mov.b	#0,	&0x20fa	;r3 As==00
    969e:	1f 43       	mov	#1,	r15	;r3 As==01
    96a0:	03 3c       	jmp	$+8      	;abs 0x96a8
    96a2:	d2 43 fa 20 	mov.b	#1,	&0x20fa	;r3 As==01
    96a6:	2f 43       	mov	#2,	r15	;r3 As==10
    96a8:	b0 12 88 95 	call	#0x9588	
    96ac:	0f 93       	tst	r15		
    96ae:	0c 24       	jz	$+26     	;abs 0x96c8
    96b0:	f2 43 01 1c 	mov.b	#-1,	&0x1c01	;r3 As==11
    96b4:	4f 4b       	mov.b	r11,	r15	
    96b6:	b0 12 16 5a 	call	#0x5a16	
    96ba:	4f 4b       	mov.b	r11,	r15	
    96bc:	b0 12 ac 63 	call	#0x63ac	
    96c0:	03 3c       	jmp	$+8      	;abs 0x96c8
    96c2:	4f 4b       	mov.b	r11,	r15	
    96c4:	b0 12 cc 90 	call	#0x90cc	
    96c8:	3b 41       	pop	r11		
    96ca:	30 41       	ret			

000096cc <SchedulerBasicP__TaskBasic__runTask>:
    96cc:	7b 15       	pushm	#8,	r11	
    96ce:	31 50 9a ff 	add	#-102,	r1	;#0xff9a
    96d2:	7f 90 23 00 	cmp.b	#35,	r15	;#0x0023
    96d6:	02 28       	jnc	$+6      	;abs 0x96dc
    96d8:	80 00 aa ae 	bra	#0x0aeaa	
    96dc:	4f 4f       	mov.b	r15,	r15	
    96de:	5f 02       	rlam	#1,	r15	
    96e0:	10 4f 6c c1 	br	-16020(r15)	;0xc16c(r15)
    96e4:	0f 42       	mov	r2,	r15	
    96e6:	32 c2       	dint			
    96e8:	03 43       	nop			
    96ea:	d2 42 37 1c 6b 1c 	mov.b	&0x1c37,&0x1c6b	
    96f0:	f2 43 37 1c 	mov.b	#-1,	&0x1c37	;r3 As==11
    96f4:	e2 42 44 1d 	mov.b	#4,	&0x1d44	;r2 As==10
    96f8:	3f f2       	and	#8,	r15	;r2 As==11
    96fa:	0f 93       	tst	r15		
    96fc:	02 20       	jnz	$+6      	;abs 0x9702
    96fe:	80 00 aa ae 	bra	#0x0aeaa	
    9702:	32 d2       	eint			
    9704:	80 00 aa ae 	bra	#0x0aeaa	
    9708:	0f 42       	mov	r2,	r15	
    970a:	32 c2       	dint			
    970c:	03 43       	nop			
    970e:	d2 42 33 1c 34 1c 	mov.b	&0x1c33,&0x1c34	
    9714:	f2 43 33 1c 	mov.b	#-1,	&0x1c33	;r3 As==11
    9718:	e2 42 68 1e 	mov.b	#4,	&0x1e68	;r2 As==10
    971c:	3f f2       	and	#8,	r15	;r2 As==11
    971e:	01 24       	jz	$+4      	;abs 0x9722
    9720:	32 d2       	eint			
    9722:	c2 93 34 1c 	tst.b	&0x1c34	
    9726:	36 20       	jnz	$+110    	;abs 0x9794
    9728:	92 d3 20 06 	bis	#1,	&0x0620	;r3 As==01
    972c:	1f 42 12 1c 	mov	&0x1c12,r15	
    9730:	1f d3       	bis	#1,	r15	;r3 As==01
    9732:	82 4f 20 06 	mov	r15,	&0x0620	
    9736:	92 42 14 1c 26 06 	mov	&0x1c14,&0x0626	
    973c:	d2 42 16 1c 28 06 	mov.b	&0x1c16,&0x0628	
    9742:	b0 12 5e 4f 	call	#0x4f5e	
    9746:	0f 42       	mov	r2,	r15	
    9748:	32 c2       	dint			
    974a:	03 43       	nop			
    974c:	e2 d3 2b 02 	bis.b	#2,	&0x022b	;r3 As==10
    9750:	3f f2       	and	#8,	r15	;r2 As==11
    9752:	01 24       	jz	$+4      	;abs 0x9756
    9754:	32 d2       	eint			
    9756:	0f 42       	mov	r2,	r15	
    9758:	32 c2       	dint			
    975a:	03 43       	nop			
    975c:	e2 c2 25 02 	bic.b	#4,	&0x0225	;r2 As==10
    9760:	3f f2       	and	#8,	r15	;r2 As==11
    9762:	01 24       	jz	$+4      	;abs 0x9766
    9764:	32 d2       	eint			
    9766:	0f 42       	mov	r2,	r15	
    9768:	32 c2       	dint			
    976a:	03 43       	nop			
    976c:	e2 d2 2b 02 	bis.b	#4,	&0x022b	;r2 As==10
    9770:	3f f2       	and	#8,	r15	;r2 As==11
    9772:	01 24       	jz	$+4      	;abs 0x9776
    9774:	32 d2       	eint			
    9776:	b0 12 70 4f 	call	#0x4f70	
    977a:	0f 42       	mov	r2,	r15	
    977c:	32 c2       	dint			
    977e:	03 43       	nop			
    9780:	f2 d2 2b 02 	bis.b	#8,	&0x022b	;r2 As==11
    9784:	3f f2       	and	#8,	r15	;r2 As==11
    9786:	01 24       	jz	$+4      	;abs 0x978a
    9788:	32 d2       	eint			
    978a:	92 c3 20 06 	bic	#1,	&0x0620	;r3 As==01
    978e:	f2 f0 fc ff 3c 06 	and.b	#-4,	&0x063c	;#0xfffc
    9794:	c2 93 34 1c 	tst.b	&0x1c34	
    9798:	02 24       	jz	$+6      	;abs 0x979e
    979a:	80 00 aa ae 	bra	#0x0aeaa	
    979e:	5f 42 61 1c 	mov.b	&0x1c61,r15	
    97a2:	7f 50 fb ff 	add.b	#-5,	r15	;#0xfffb
    97a6:	6f 93       	cmp.b	#2,	r15	;r3 As==10
    97a8:	08 2c       	jc	$+18     	;abs 0x97ba
    97aa:	b0 12 ac 4f 	call	#0x4fac	
    97ae:	7f 40 d7 ff 	mov.b	#-41,	r15	;#0xffd7
    97b2:	b0 12 84 4b 	call	#0x4b84	
    97b6:	80 00 94 a1 	bra	#0x0a194	
    97ba:	18 42 c2 1d 	mov	&0x1dc2,r8	
    97be:	82 93 d0 1f 	tst	&0x1fd0	
    97c2:	35 24       	jz	$+108    	;abs 0x982e
    97c4:	5b 42 6c 1d 	mov.b	&0x1d6c,r11	
    97c8:	2b 52       	add	#4,	r11	;r2 As==10
    97ca:	b0 12 ac 4f 	call	#0x4fac	
    97ce:	59 43       	mov.b	#1,	r9	;r3 As==01
    97d0:	3a 40 2e 21 	mov	#8494,	r10	;#0x212e
    97d4:	47 43       	clr.b	r7		
    97d6:	4f 43       	clr.b	r15		
    97d8:	79 90 03 00 	cmp.b	#3,	r9	;#0x0003
    97dc:	06 20       	jnz	$+14     	;abs 0x97ea
    97de:	4e 4f       	mov.b	r15,	r14	
    97e0:	0f 48       	mov	r8,	r15	
    97e2:	b0 12 ae 4a 	call	#0x4aae	
    97e6:	08 4f       	mov	r15,	r8	
    97e8:	13 3c       	jmp	$+40     	;abs 0x9810
    97ea:	59 93       	cmp.b	#1,	r9	;r3 As==01
    97ec:	0c 20       	jnz	$+26     	;abs 0x9806
    97ee:	67 4a       	mov.b	@r10,	r7	
    97f0:	3b 53       	add	#-1,	r11	;r3 As==11
    97f2:	02 24       	jz	$+6      	;abs 0x97f8
    97f4:	1a 53       	inc	r10		
    97f6:	15 3c       	jmp	$+44     	;abs 0x9822
    97f8:	59 42 61 1c 	mov.b	&0x1c61,r9	
    97fc:	1a 42 c2 1d 	mov	&0x1dc2,r10	
    9800:	1b 42 d0 1f 	mov	&0x1fd0,r11	
    9804:	0e 3c       	jmp	$+30     	;abs 0x9822
    9806:	69 93       	cmp.b	#2,	r9	;r3 As==10
    9808:	06 20       	jnz	$+14     	;abs 0x9816
    980a:	ca 4f 00 00 	mov.b	r15,	0(r10)	;0x0000(r10)
    980e:	1a 53       	inc	r10		
    9810:	3b 53       	add	#-1,	r11	;r3 As==11
    9812:	07 20       	jnz	$+16     	;abs 0x9822
    9814:	0a 3c       	jmp	$+22     	;abs 0x982a
    9816:	69 92       	cmp.b	#4,	r9	;r2 As==10
    9818:	08 20       	jnz	$+18     	;abs 0x982a
    981a:	0b 93       	tst	r11		
    981c:	06 24       	jz	$+14     	;abs 0x982a
    981e:	77 4a       	mov.b	@r10+,	r7	
    9820:	3b 53       	add	#-1,	r11	;r3 As==11
    9822:	4f 47       	mov.b	r7,	r15	
    9824:	b0 12 84 4b 	call	#0x4b84	
    9828:	d7 3f       	jmp	$-80     	;abs 0x97d8
    982a:	b0 12 be 4f 	call	#0x4fbe	
    982e:	b0 12 18 59 	call	#0x5918	
    9832:	5d 42 61 1c 	mov.b	&0x1c61,r13	
    9836:	c2 43 61 1c 	mov.b	#0,	&0x1c61	;r3 As==00
    983a:	6d 83       	decd.b	r13		
    983c:	7d 90 0a 00 	cmp.b	#10,	r13	;#0x000a
    9840:	02 28       	jnc	$+6      	;abs 0x9846
    9842:	80 00 aa ae 	bra	#0x0aeaa	
    9846:	4d 4d       	mov.b	r13,	r13	
    9848:	5d 02       	rlam	#1,	r13	
    984a:	10 4d b4 c1 	br	-15948(r13)	;0xc1b4(r13)
    984e:	4d 43       	clr.b	r13		
    9850:	0e 48       	mov	r8,	r14	
    9852:	49 3c       	jmp	$+148    	;abs 0x98e6
    9854:	d2 43 78 1c 	mov.b	#1,	&0x1c78	;r3 As==01
    9858:	5f 42 c7 1e 	mov.b	&0x1ec7,r15	
    985c:	5f 06       	rlam	#2,	r15	
    985e:	9f 42 4a 1d 1a 1d 	mov	&0x1d4a,7450(r15);0x1d1a(r15)
    9864:	5e 4f 1c 1d 	mov.b	7452(r15),r14	;0x1d1c(r15)
    9868:	7e f0 f8 ff 	and.b	#-8,	r14	;#0xfff8
    986c:	7e d0 03 00 	bis.b	#3,	r14	;#0x0003
    9870:	cf 4e 1c 1d 	mov.b	r14,	7452(r15);0x1d1c(r15)
    9874:	15 3c       	jmp	$+44     	;abs 0x98a0
    9876:	d2 43 78 1c 	mov.b	#1,	&0x1c78	;r3 As==01
    987a:	5f 42 c7 1e 	mov.b	&0x1ec7,r15	
    987e:	5f 06       	rlam	#2,	r15	
    9880:	3f 50 1c 1d 	add	#7452,	r15	;#0x1d1c
    9884:	6d 4f       	mov.b	@r15,	r13	
    9886:	7d d0 03 00 	bis.b	#3,	r13	;#0x0003
    988a:	0e 4d       	mov	r13,	r14	
    988c:	5e 0b       	rrum	#3,	r14	
    988e:	5e 53       	inc.b	r14		
    9890:	3e f0 03 00 	and	#3,	r14	;#0x0003
    9894:	5e 0a       	rlam	#3,	r14	
    9896:	7d f0 e3 ff 	and.b	#-29,	r13	;#0xffe3
    989a:	4d de       	bis.b	r14,	r13	
    989c:	cf 4d 00 00 	mov.b	r13,	0(r15)	;0x0000(r15)
    98a0:	b0 12 80 79 	call	#0x7980	
    98a4:	80 00 aa ae 	bra	#0x0aeaa	
    98a8:	d2 43 78 1c 	mov.b	#1,	&0x1c78	;r3 As==01
    98ac:	5f 42 c5 1e 	mov.b	&0x1ec5,r15	
    98b0:	5f 06       	rlam	#2,	r15	
    98b2:	df d3 1c 1d 	bis.b	#1,	7452(r15);r3 As==01, 0x1d1c(r15)
    98b6:	3f 40 0a 00 	mov	#10,	r15	;#0x000a
    98ba:	b0 12 e8 50 	call	#0x50e8	
    98be:	f2 40 06 00 61 1c 	mov.b	#6,	&0x1c61	;#0x0006
    98c4:	b0 12 9c 66 	call	#0x669c	
    98c8:	80 00 aa ae 	bra	#0x0aeaa	
    98cc:	d2 43 78 1c 	mov.b	#1,	&0x1c78	;r3 As==01
    98d0:	5f 42 c7 1e 	mov.b	&0x1ec7,r15	
    98d4:	5f 06       	rlam	#2,	r15	
    98d6:	9f 42 4a 1d 1a 1d 	mov	&0x1d4a,7450(r15);0x1d1a(r15)
    98dc:	ff d0 06 00 1c 1d 	bis.b	#6,	7452(r15);#0x0006, 0x1d1c(r15)
    98e2:	4d 43       	clr.b	r13		
    98e4:	0e 43       	clr	r14		
    98e6:	0f 43       	clr	r15		
    98e8:	b0 12 4a 74 	call	#0x744a	
    98ec:	80 00 aa ae 	bra	#0x0aeaa	
    98f0:	5f 42 c7 1e 	mov.b	&0x1ec7,r15	
    98f4:	5f 06       	rlam	#2,	r15	
    98f6:	ff f0 e5 ff 1c 1d 	and.b	#-27,	7452(r15);#0xffe5, 0x1d1c(r15)
    98fc:	f2 3f       	jmp	$-26     	;abs 0x98e2
    98fe:	0f 42       	mov	r2,	r15	
    9900:	32 c2       	dint			
    9902:	03 43       	nop			
    9904:	d2 42 2f 1c 30 1c 	mov.b	&0x1c2f,&0x1c30	
    990a:	f2 43 2f 1c 	mov.b	#-1,	&0x1c2f	;r3 As==11
    990e:	e2 42 cb 1d 	mov.b	#4,	&0x1dcb	;r2 As==10
    9912:	3f f2       	and	#8,	r15	;r2 As==11
    9914:	01 24       	jz	$+4      	;abs 0x9918
    9916:	32 d2       	eint			
    9918:	c2 93 30 1c 	tst.b	&0x1c30	
    991c:	02 20       	jnz	$+6      	;abs 0x9922
    991e:	b0 12 e6 57 	call	#0x57e6	
    9922:	c2 93 30 1c 	tst.b	&0x1c30	
    9926:	02 24       	jz	$+6      	;abs 0x992c
    9928:	80 00 aa ae 	bra	#0x0aeaa	
    992c:	80 00 76 a1 	bra	#0x0a176	
    9930:	0f 42       	mov	r2,	r15	
    9932:	32 c2       	dint			
    9934:	03 43       	nop			
    9936:	d2 42 2b 1c 2c 1c 	mov.b	&0x1c2b,&0x1c2c	
    993c:	f2 43 2b 1c 	mov.b	#-1,	&0x1c2b	;r3 As==11
    9940:	e2 42 36 1d 	mov.b	#4,	&0x1d36	;r2 As==10
    9944:	3f f2       	and	#8,	r15	;r2 As==11
    9946:	01 24       	jz	$+4      	;abs 0x994a
    9948:	32 d2       	eint			
    994a:	c2 93 2c 1c 	tst.b	&0x1c2c	
    994e:	02 24       	jz	$+6      	;abs 0x9954
    9950:	80 00 aa ae 	bra	#0x0aeaa	
    9954:	b0 12 d6 55 	call	#0x55d6	
    9958:	80 00 aa ae 	bra	#0x0aeaa	
    995c:	c2 93 2a 1d 	tst.b	&0x1d2a	
    9960:	28 20       	jnz	$+82     	;abs 0x99b2
    9962:	1e 42 38 21 	mov	&0x2138,r14	
    9966:	1f 42 3a 21 	mov	&0x213a,r15	
    996a:	0b 42       	mov	r2,	r11	
    996c:	32 c2       	dint			
    996e:	03 43       	nop			
    9970:	1c 42 b8 1d 	mov	&0x1db8,r12	
    9974:	1d 42 ba 1d 	mov	&0x1dba,r13	
    9978:	1c 52 c6 1d 	add	&0x1dc6,r12	
    997c:	1d 62 c8 1d 	addc	&0x1dc8,r13	
    9980:	3b f2       	and	#8,	r11	;r2 As==11
    9982:	01 24       	jz	$+4      	;abs 0x9986
    9984:	32 d2       	eint			
    9986:	82 4e 38 21 	mov	r14,	&0x2138	
    998a:	82 4f 3a 21 	mov	r15,	&0x213a	
    998e:	c2 43 2a 1d 	mov.b	#0,	&0x1d2a	;r3 As==00
    9992:	0b 42       	mov	r2,	r11	
    9994:	32 c2       	dint			
    9996:	03 43       	nop			
    9998:	82 4c c6 1d 	mov	r12,	&0x1dc6	
    999c:	82 4d c8 1d 	mov	r13,	&0x1dc8	
    99a0:	82 4e b8 1d 	mov	r14,	&0x1db8	
    99a4:	82 4f ba 1d 	mov	r15,	&0x1dba	
    99a8:	b0 12 4c 60 	call	#0x604c	
    99ac:	3b f2       	and	#8,	r11	;r2 As==11
    99ae:	01 24       	jz	$+4      	;abs 0x99b2
    99b0:	32 d2       	eint			
    99b2:	b0 12 0c 4d 	call	#0x4d0c	
    99b6:	38 3c       	jmp	$+114    	;abs 0x9a28
    99b8:	b0 12 0c 4d 	call	#0x4d0c	
    99bc:	b2 f0 ef ff 42 03 	and	#-17,	&0x0342	;#0xffef
    99c2:	47 43       	clr.b	r7		
    99c4:	3c 43       	mov	#-1,	r12	;r3 As==11
    99c6:	3d 40 ff 7f 	mov	#32767,	r13	;#0x7fff
    99ca:	08 43       	clr	r8		
    99cc:	09 48       	mov	r8,	r9	
    99ce:	59 02       	rlam	#1,	r9	
    99d0:	0b 48       	mov	r8,	r11	
    99d2:	5b 0a       	rlam	#3,	r11	
    99d4:	09 5b       	add	r11,	r9	
    99d6:	39 50 ca 1e 	add	#7882,	r9	;#0x1eca
    99da:	5b 49 08 00 	mov.b	8(r9),	r11	;0x0008(r9)
    99de:	6b f3       	and.b	#2,	r11	;r3 As==10
    99e0:	15 24       	jz	$+44     	;abs 0x9a0c
    99e2:	0a 4e       	mov	r14,	r10	
    99e4:	0b 4f       	mov	r15,	r11	
    99e6:	2a 89       	sub	@r9,	r10	
    99e8:	1b 79 02 00 	subc	2(r9),	r11	;0x0002(r9)
    99ec:	14 49 04 00 	mov	4(r9),	r4	;0x0004(r9)
    99f0:	15 49 06 00 	mov	6(r9),	r5	;0x0006(r9)
    99f4:	04 8a       	sub	r10,	r4	
    99f6:	05 7b       	subc	r11,	r5	
    99f8:	0a 44       	mov	r4,	r10	
    99fa:	0b 45       	mov	r5,	r11	
    99fc:	0b 9d       	cmp	r13,	r11	
    99fe:	03 38       	jl	$+8      	;abs 0x9a06
    9a00:	05 20       	jnz	$+12     	;abs 0x9a0c
    9a02:	04 9c       	cmp	r12,	r4	
    9a04:	03 2c       	jc	$+8      	;abs 0x9a0c
    9a06:	0c 4a       	mov	r10,	r12	
    9a08:	0d 4b       	mov	r11,	r13	
    9a0a:	57 43       	mov.b	#1,	r7	;r3 As==01
    9a0c:	18 53       	inc	r8		
    9a0e:	38 90 0b 00 	cmp	#11,	r8	;#0x000b
    9a12:	dc 23       	jnz	$-70     	;abs 0x99cc
    9a14:	47 93       	tst.b	r7		
    9a16:	02 20       	jnz	$+6      	;abs 0x9a1c
    9a18:	80 00 aa ae 	bra	#0x0aeaa	
    9a1c:	0d 93       	tst	r13		
    9a1e:	04 38       	jl	$+10     	;abs 0x9a28
    9a20:	1d 93       	cmp	#1,	r13	;r3 As==01
    9a22:	06 34       	jge	$+14     	;abs 0x9a30
    9a24:	1c 93       	cmp	#1,	r12	;r3 As==01
    9a26:	04 2c       	jc	$+10     	;abs 0x9a30
    9a28:	b0 12 b8 91 	call	#0x91b8	
    9a2c:	80 00 aa ae 	bra	#0x0aeaa	
    9a30:	82 4c 38 21 	mov	r12,	&0x2138	
    9a34:	82 4d 3a 21 	mov	r13,	&0x213a	
    9a38:	d2 43 2a 1d 	mov.b	#1,	&0x1d2a	;r3 As==01
    9a3c:	0b 42       	mov	r2,	r11	
    9a3e:	32 c2       	dint			
    9a40:	03 43       	nop			
    9a42:	82 4e c6 1d 	mov	r14,	&0x1dc6	
    9a46:	82 4f c8 1d 	mov	r15,	&0x1dc8	
    9a4a:	82 4c b8 1d 	mov	r12,	&0x1db8	
    9a4e:	82 4d ba 1d 	mov	r13,	&0x1dba	
    9a52:	b0 12 4c 60 	call	#0x604c	
    9a56:	3b f2       	and	#8,	r11	;r2 As==11
    9a58:	80 00 46 a5 	bra	#0x0a546	
    9a5c:	09 42       	mov	r2,	r9	
    9a5e:	32 c2       	dint			
    9a60:	03 43       	nop			
    9a62:	1e 42 26 1c 	mov	&0x1c26,r14	
    9a66:	0f 43       	clr	r15		
    9a68:	b0 12 ca b5 	call	#0xb5ca	
    9a6c:	0c 43       	clr	r12		
    9a6e:	3d 40 a0 40 	mov	#16544,	r13	;#0x40a0
    9a72:	b0 12 ca b0 	call	#0xb0ca	
    9a76:	0c 43       	clr	r12		
    9a78:	3d 40 80 39 	mov	#14720,	r13	;#0x3980
    9a7c:	b0 12 ca b0 	call	#0xb0ca	
    9a80:	0a 4e       	mov	r14,	r10	
    9a82:	0b 4f       	mov	r15,	r11	
    9a84:	39 f2       	and	#8,	r9	;r2 As==11
    9a86:	01 24       	jz	$+4      	;abs 0x9a8a
    9a88:	32 d2       	eint			
    9a8a:	3c 40 cd cc 	mov	#-13107,r12	;#0xcccd
    9a8e:	3d 40 2c 40 	mov	#16428,	r13	;#0x402c
    9a92:	0e 4a       	mov	r10,	r14	
    9a94:	0f 4b       	mov	r11,	r15	
    9a96:	b0 12 4c b4 	call	#0xb44c	
    9a9a:	0f 93       	tst	r15		
    9a9c:	04 24       	jz	$+10     	;abs 0x9aa6
    9a9e:	03 38       	jl	$+8      	;abs 0x9aa6
    9aa0:	a2 43 28 1c 	mov	#2,	&0x1c28	;r3 As==10
    9aa4:	78 3c       	jmp	$+242    	;abs 0x9b96
    9aa6:	0c 43       	clr	r12		
    9aa8:	3d 40 20 40 	mov	#16416,	r13	;#0x4020
    9aac:	0e 4a       	mov	r10,	r14	
    9aae:	0f 4b       	mov	r11,	r15	
    9ab0:	b0 12 4c b4 	call	#0xb44c	
    9ab4:	0f 93       	tst	r15		
    9ab6:	15 24       	jz	$+44     	;abs 0x9ae2
    9ab8:	14 38       	jl	$+42     	;abs 0x9ae2
    9aba:	1e 42 28 1c 	mov	&0x1c28,r14	
    9abe:	0f 43       	clr	r15		
    9ac0:	b0 12 ca b5 	call	#0xb5ca	
    9ac4:	0c 43       	clr	r12		
    9ac6:	3d 40 20 40 	mov	#16416,	r13	;#0x4020
    9aca:	b0 12 fe b3 	call	#0xb3fe	
    9ace:	0f 93       	tst	r15		
    9ad0:	02 20       	jnz	$+6      	;abs 0x9ad6
    9ad2:	80 00 aa ae 	bra	#0x0aeaa	
    9ad6:	a2 43 28 1c 	mov	#2,	&0x1c28	;r3 As==10
    9ada:	3d 40 88 13 	mov	#5000,	r13	;#0x1388
    9ade:	0e 43       	clr	r14		
    9ae0:	1d 3c       	jmp	$+60     	;abs 0x9b1c
    9ae2:	0c 43       	clr	r12		
    9ae4:	3d 40 00 40 	mov	#16384,	r13	;#0x4000
    9ae8:	0e 4a       	mov	r10,	r14	
    9aea:	0f 4b       	mov	r11,	r15	
    9aec:	b0 12 4c b4 	call	#0xb44c	
    9af0:	0f 93       	tst	r15		
    9af2:	1a 24       	jz	$+54     	;abs 0x9b28
    9af4:	19 38       	jl	$+52     	;abs 0x9b28
    9af6:	1e 42 28 1c 	mov	&0x1c28,r14	
    9afa:	0f 43       	clr	r15		
    9afc:	b0 12 ca b5 	call	#0xb5ca	
    9b00:	0c 43       	clr	r12		
    9b02:	3d 40 00 40 	mov	#16384,	r13	;#0x4000
    9b06:	b0 12 fe b3 	call	#0xb3fe	
    9b0a:	0f 93       	tst	r15		
    9b0c:	02 20       	jnz	$+6      	;abs 0x9b12
    9b0e:	80 00 aa ae 	bra	#0x0aeaa	
    9b12:	a2 43 28 1c 	mov	#2,	&0x1c28	;r3 As==10
    9b16:	3d 40 e8 03 	mov	#1000,	r13	;#0x03e8
    9b1a:	0e 43       	clr	r14		
    9b1c:	7f 40 06 00 	mov.b	#6,	r15	;#0x0006
    9b20:	b0 12 f4 5a 	call	#0x5af4	
    9b24:	80 00 aa ae 	bra	#0x0aeaa	
    9b28:	5f 42 86 1c 	mov.b	&0x1c86,r15	
    9b2c:	7f 90 17 00 	cmp.b	#23,	r15	;#0x0017
    9b30:	03 24       	jz	$+8      	;abs 0x9b38
    9b32:	7f 90 0d 00 	cmp.b	#13,	r15	;#0x000d
    9b36:	04 20       	jnz	$+10     	;abs 0x9b40
    9b38:	e2 c3 d2 1e 	bic.b	#2,	&0x1ed2	;r3 As==10
    9b3c:	b0 12 c4 4d 	call	#0x4dc4	
    9b40:	5f 42 86 1c 	mov.b	&0x1c86,r15	
    9b44:	4e 4f       	mov.b	r15,	r14	
    9b46:	7e 50 f4 ff 	add.b	#-12,	r14	;#0xfff4
    9b4a:	6e 93       	cmp.b	#2,	r14	;r3 As==10
    9b4c:	03 28       	jnc	$+8      	;abs 0x9b54
    9b4e:	7f 90 14 00 	cmp.b	#20,	r15	;#0x0014
    9b52:	03 20       	jnz	$+8      	;abs 0x9b5a
    9b54:	d2 43 86 1c 	mov.b	#1,	&0x1c86	;r3 As==01
    9b58:	12 3c       	jmp	$+38     	;abs 0x9b7e
    9b5a:	7f 90 15 00 	cmp.b	#21,	r15	;#0x0015
    9b5e:	03 20       	jnz	$+8      	;abs 0x9b66
    9b60:	e2 43 86 1c 	mov.b	#2,	&0x1c86	;r3 As==10
    9b64:	0c 3c       	jmp	$+26     	;abs 0x9b7e
    9b66:	7f 90 0a 00 	cmp.b	#10,	r15	;#0x000a
    9b6a:	06 24       	jz	$+14     	;abs 0x9b78
    9b6c:	7f 90 16 00 	cmp.b	#22,	r15	;#0x0016
    9b70:	03 24       	jz	$+8      	;abs 0x9b78
    9b72:	7f 90 17 00 	cmp.b	#23,	r15	;#0x0017
    9b76:	03 20       	jnz	$+8      	;abs 0x9b7e
    9b78:	f2 40 03 00 86 1c 	mov.b	#3,	&0x1c86	;#0x0003
    9b7e:	b0 12 98 53 	call	#0x5398	
    9b82:	e2 c3 dc 1e 	bic.b	#2,	&0x1edc	;r3 As==10
    9b86:	e2 c3 e6 1e 	bic.b	#2,	&0x1ee6	;r3 As==10
    9b8a:	e2 c3 f0 1e 	bic.b	#2,	&0x1ef0	;r3 As==10
    9b8e:	e2 c3 fa 1e 	bic.b	#2,	&0x1efa	;r3 As==10
    9b92:	e2 c3 04 1f 	bic.b	#2,	&0x1f04	;r3 As==10
    9b96:	e2 c3 0e 1f 	bic.b	#2,	&0x1f0e	;r3 As==10
    9b9a:	80 00 aa ae 	bra	#0x0aeaa	
    9b9e:	0f 42       	mov	r2,	r15	
    9ba0:	32 c2       	dint			
    9ba2:	03 43       	nop			
    9ba4:	d2 42 2d 1d 20 1c 	mov.b	&0x1d2d,&0x1c20	
    9baa:	e2 43 62 1c 	mov.b	#2,	&0x1c62	;r3 As==10
    9bae:	3f f2       	and	#8,	r15	;r2 As==11
    9bb0:	01 24       	jz	$+4      	;abs 0x9bb4
    9bb2:	32 d2       	eint			
    9bb4:	c2 93 20 1c 	tst.b	&0x1c20	
    9bb8:	02 24       	jz	$+6      	;abs 0x9bbe
    9bba:	80 00 aa ae 	bra	#0x0aeaa	
    9bbe:	1f 42 30 1d 	mov	&0x1d30,r15	
    9bc2:	ff 40 3f 00 0a 00 	mov.b	#63,	10(r15)	;#0x003f, 0x000a(r15)
    9bc8:	5e 42 74 1c 	mov.b	&0x1c74,r14	
    9bcc:	5e 53       	inc.b	r14		
    9bce:	c2 4e 74 1c 	mov.b	r14,	&0x1c74	
    9bd2:	cf 4e 03 00 	mov.b	r14,	3(r15)	;0x0003(r15)
    9bd6:	b0 12 d6 56 	call	#0x56d6	
    9bda:	0b 4f       	mov	r15,	r11	
    9bdc:	0f 93       	tst	r15		
    9bde:	02 20       	jnz	$+6      	;abs 0x9be4
    9be0:	80 00 aa ae 	bra	#0x0aeaa	
    9be4:	b0 12 84 57 	call	#0x5784	
    9be8:	0e 4b       	mov	r11,	r14	
    9bea:	1f 42 30 1d 	mov	&0x1d30,r15	
    9bee:	80 00 b6 9d 	bra	#0x09db6	
    9bf2:	5f 42 86 1c 	mov.b	&0x1c86,r15	
    9bf6:	7f 90 0a 00 	cmp.b	#10,	r15	;#0x000a
    9bfa:	03 24       	jz	$+8      	;abs 0x9c02
    9bfc:	7f 90 1e 00 	cmp.b	#30,	r15	;#0x001e
    9c00:	1e 20       	jnz	$+62     	;abs 0x9c3e
    9c02:	b0 12 c8 51 	call	#0x51c8	
    9c06:	c2 93 42 1d 	tst.b	&0x1d42	
    9c0a:	34 20       	jnz	$+106    	;abs 0x9c74
    9c0c:	c2 93 a4 20 	tst.b	&0x20a4	
    9c10:	31 20       	jnz	$+100    	;abs 0x9c74
    9c12:	5f 42 6a 22 	mov.b	&0x226a,r15	
    9c16:	5f 93       	cmp.b	#1,	r15	;r3 As==01
    9c18:	04 20       	jnz	$+10     	;abs 0x9c22
    9c1a:	c2 93 d2 1f 	tst.b	&0x1fd2	
    9c1e:	2a 20       	jnz	$+86     	;abs 0x9c74
    9c20:	05 3c       	jmp	$+12     	;abs 0x9c2c
    9c22:	7f 90 05 00 	cmp.b	#5,	r15	;#0x0005
    9c26:	02 20       	jnz	$+6      	;abs 0x9c2c
    9c28:	80 00 a2 ae 	bra	#0x0aea2	
    9c2c:	f2 40 03 00 a4 20 	mov.b	#3,	&0x20a4	;#0x0003
    9c32:	b0 12 9c 8c 	call	#0x8c9c	
    9c36:	f2 40 05 00 42 1d 	mov.b	#5,	&0x1d42	;#0x0005
    9c3c:	19 3c       	jmp	$+52     	;abs 0x9c70
    9c3e:	7f 90 14 00 	cmp.b	#20,	r15	;#0x0014
    9c42:	02 24       	jz	$+6      	;abs 0x9c48
    9c44:	5f 93       	cmp.b	#1,	r15	;r3 As==01
    9c46:	20 20       	jnz	$+66     	;abs 0x9c88
    9c48:	b0 12 c8 51 	call	#0x51c8	
    9c4c:	c2 93 42 1d 	tst.b	&0x1d42	
    9c50:	11 20       	jnz	$+36     	;abs 0x9c74
    9c52:	c2 93 a4 20 	tst.b	&0x20a4	
    9c56:	0e 20       	jnz	$+30     	;abs 0x9c74
    9c58:	d2 93 6a 22 	cmp.b	#1,	&0x226a	;r3 As==01
    9c5c:	02 20       	jnz	$+6      	;abs 0x9c62
    9c5e:	80 00 a2 ae 	bra	#0x0aea2	
    9c62:	d2 43 a4 20 	mov.b	#1,	&0x20a4	;r3 As==01
    9c66:	b0 12 9c 8c 	call	#0x8c9c	
    9c6a:	f2 40 06 00 42 1d 	mov.b	#6,	&0x1d42	;#0x0006
    9c70:	0b 43       	clr	r11		
    9c72:	02 3c       	jmp	$+6      	;abs 0x9c78
    9c74:	3b 40 05 00 	mov	#5,	r11	;#0x0005
    9c78:	b0 12 ba 8d 	call	#0x8dba	
    9c7c:	0b 93       	tst	r11		
    9c7e:	1f 20       	jnz	$+64     	;abs 0x9cbe
    9c80:	d2 53 86 1c 	inc.b	&0x1c86	
    9c84:	80 00 aa ae 	bra	#0x0aeaa	
    9c88:	6f 92       	cmp.b	#4,	r15	;r2 As==10
    9c8a:	1d 20       	jnz	$+60     	;abs 0x9cc6
    9c8c:	f2 40 0a 00 86 1c 	mov.b	#10,	&0x1c86	;#0x000a
    9c92:	b0 12 c4 4d 	call	#0x4dc4	
    9c96:	c2 43 2a 1c 	mov.b	#0,	&0x1c2a	;r3 As==00
    9c9a:	b2 40 00 02 1e 1c 	mov	#512,	&0x1c1e	;#0x0200
    9ca0:	5f 42 86 1c 	mov.b	&0x1c86,r15	
    9ca4:	7f 90 0d 00 	cmp.b	#13,	r15	;#0x000d
    9ca8:	05 24       	jz	$+12     	;abs 0x9cb4
    9caa:	7f 90 17 00 	cmp.b	#23,	r15	;#0x0017
    9cae:	02 24       	jz	$+6      	;abs 0x9cb4
    9cb0:	80 00 aa ae 	bra	#0x0aeaa	
    9cb4:	e2 c3 d2 1e 	bic.b	#2,	&0x1ed2	;r3 As==10
    9cb8:	7f 53       	add.b	#-1,	r15	;r3 As==11
    9cba:	c2 4f 86 1c 	mov.b	r15,	&0x1c86	
    9cbe:	b0 12 c4 4d 	call	#0x4dc4	
    9cc2:	80 00 aa ae 	bra	#0x0aeaa	
    9cc6:	7f 90 03 00 	cmp.b	#3,	r15	;#0x0003
    9cca:	04 20       	jnz	$+10     	;abs 0x9cd4
    9ccc:	c2 43 86 1c 	mov.b	#0,	&0x1c86	;r3 As==00
    9cd0:	80 00 aa ae 	bra	#0x0aeaa	
    9cd4:	7f 90 0c 00 	cmp.b	#12,	r15	;#0x000c
    9cd8:	0c 20       	jnz	$+26     	;abs 0x9cf2
    9cda:	f2 40 0d 00 86 1c 	mov.b	#13,	&0x1c86	;#0x000d
    9ce0:	82 93 1e 1c 	tst	&0x1c1e	
    9ce4:	02 20       	jnz	$+6      	;abs 0x9cea
    9ce6:	80 00 aa ae 	bra	#0x0aeaa	
    9cea:	3d 40 05 00 	mov	#5,	r13	;#0x0005
    9cee:	0e 43       	clr	r14		
    9cf0:	0b 3c       	jmp	$+24     	;abs 0x9d08
    9cf2:	7f 90 16 00 	cmp.b	#22,	r15	;#0x0016
    9cf6:	0f 20       	jnz	$+32     	;abs 0x9d16
    9cf8:	1d 42 1e 1c 	mov	&0x1c1e,r13	
    9cfc:	0d 93       	tst	r13		
    9cfe:	07 24       	jz	$+16     	;abs 0x9d0e
    9d00:	f2 40 17 00 86 1c 	mov.b	#23,	&0x1c86	;#0x0017
    9d06:	0e 43       	clr	r14		
    9d08:	4f 43       	clr.b	r15		
    9d0a:	80 00 08 a6 	bra	#0x0a608	
    9d0e:	f2 40 0a 00 86 1c 	mov.b	#10,	&0x1c86	;#0x000a
    9d14:	d4 3f       	jmp	$-86     	;abs 0x9cbe
    9d16:	7f 90 20 00 	cmp.b	#32,	r15	;#0x0020
    9d1a:	0d 20       	jnz	$+28     	;abs 0x9d36
    9d1c:	1f 42 46 22 	mov	&0x2246,r15	
    9d20:	1d 4f 3e 00 	mov	62(r15),r13	;0x003e(r15)
    9d24:	0d 93       	tst	r13		
    9d26:	bc 24       	jz	$+378    	;abs 0x9ea0
    9d28:	3d 50 0a 00 	add	#10,	r13	;#0x000a
    9d2c:	0e 43       	clr	r14		
    9d2e:	4f 43       	clr.b	r15		
    9d30:	b0 12 30 5c 	call	#0x5c30	
    9d34:	b5 3c       	jmp	$+364    	;abs 0x9ea0
    9d36:	7f 90 21 00 	cmp.b	#33,	r15	;#0x0021
    9d3a:	1e 20       	jnz	$+62     	;abs 0x9d78
    9d3c:	1b 42 46 22 	mov	&0x2246,r11	
    9d40:	b0 12 c8 51 	call	#0x51c8	
    9d44:	c2 93 42 1d 	tst.b	&0x1d42	
    9d48:	0a 20       	jnz	$+22     	;abs 0x9d5e
    9d4a:	82 4b e0 1f 	mov	r11,	&0x1fe0	
    9d4e:	d2 43 42 1d 	mov.b	#1,	&0x1d42	;r3 As==01
    9d52:	c2 43 db 1f 	mov.b	#0,	&0x1fdb	;r3 As==00
    9d56:	b0 12 ba 4d 	call	#0x4dba	
    9d5a:	0b 43       	clr	r11		
    9d5c:	02 3c       	jmp	$+6      	;abs 0x9d62
    9d5e:	3b 40 05 00 	mov	#5,	r11	;#0x0005
    9d62:	b0 12 ba 8d 	call	#0x8dba	
    9d66:	82 4b 76 1c 	mov	r11,	&0x1c76	
    9d6a:	0b 93       	tst	r11		
    9d6c:	94 20       	jnz	$+298    	;abs 0x9e96
    9d6e:	f2 40 22 00 86 1c 	mov.b	#34,	&0x1c86	;#0x0022
    9d74:	80 00 aa ae 	bra	#0x0aeaa	
    9d78:	7f 90 24 00 	cmp.b	#36,	r15	;#0x0024
    9d7c:	02 24       	jz	$+6      	;abs 0x9d82
    9d7e:	80 00 aa ae 	bra	#0x0aeaa	
    9d82:	f2 40 0d 00 86 1c 	mov.b	#13,	&0x1c86	;#0x000d
    9d88:	82 93 1e 1c 	tst	&0x1c1e	
    9d8c:	06 24       	jz	$+14     	;abs 0x9d9a
    9d8e:	1d 42 1a 1c 	mov	&0x1c1a,r13	
    9d92:	0e 43       	clr	r14		
    9d94:	4f 43       	clr.b	r15		
    9d96:	b0 12 30 5c 	call	#0x5c30	
    9d9a:	1a 42 76 1c 	mov	&0x1c76,r10	
    9d9e:	1b 42 46 22 	mov	&0x2246,r11	
    9da2:	fb 90 3f 00 0a 00 	cmp.b	#63,	10(r11)	;#0x003f, 0x000a(r11)
    9da8:	02 24       	jz	$+6      	;abs 0x9dae
    9daa:	80 00 aa ae 	bra	#0x0aeaa	
    9dae:	b0 12 84 57 	call	#0x5784	
    9db2:	0e 4a       	mov	r10,	r14	
    9db4:	0f 4b       	mov	r11,	r15	
    9db6:	b0 12 60 65 	call	#0x6560	
    9dba:	80 00 aa ae 	bra	#0x0aeaa	
    9dbe:	5f 42 42 1d 	mov.b	&0x1d42,r15	
    9dc2:	c2 43 42 1d 	mov.b	#0,	&0x1d42	;r3 As==00
    9dc6:	7f 90 05 00 	cmp.b	#5,	r15	;#0x0005
    9dca:	01 20       	jnz	$+4      	;abs 0x9dce
    9dcc:	03 3c       	jmp	$+8      	;abs 0x9dd4
    9dce:	7f 90 06 00 	cmp.b	#6,	r15	;#0x0006
    9dd2:	03 20       	jnz	$+8      	;abs 0x9dda
    9dd4:	d2 53 86 1c 	inc.b	&0x1c86	
    9dd8:	72 3f       	jmp	$-282    	;abs 0x9cbe
    9dda:	7f 90 07 00 	cmp.b	#7,	r15	;#0x0007
    9dde:	02 20       	jnz	$+6      	;abs 0x9de4
    9de0:	80 00 aa ae 	bra	#0x0aeaa	
    9de4:	c2 4f 42 1d 	mov.b	r15,	&0x1d42	
    9de8:	80 00 aa ae 	bra	#0x0aeaa	
    9dec:	b0 12 c8 51 	call	#0x51c8	
    9df0:	d2 93 42 1d 	cmp.b	#1,	&0x1d42	;r3 As==01
    9df4:	2a 20       	jnz	$+86     	;abs 0x9e4a
    9df6:	5f 42 db 1f 	mov.b	&0x1fdb,r15	
    9dfa:	5f 53       	inc.b	r15		
    9dfc:	c2 4f db 1f 	mov.b	r15,	&0x1fdb	
    9e00:	7f 90 06 00 	cmp.b	#6,	r15	;#0x0006
    9e04:	22 2c       	jc	$+70     	;abs 0x9e4a
    9e06:	1f 42 e0 1f 	mov	&0x1fe0,r15	
    9e0a:	c2 93 43 1d 	tst.b	&0x1d43	
    9e0e:	0f 20       	jnz	$+32     	;abs 0x9e2e
    9e10:	c2 93 d2 1f 	tst.b	&0x1fd2	
    9e14:	0c 20       	jnz	$+26     	;abs 0x9e2e
    9e16:	82 4f 3e 1d 	mov	r15,	&0x1d3e	
    9e1a:	d2 43 43 1d 	mov.b	#1,	&0x1d43	;r3 As==01
    9e1e:	3f 40 40 06 	mov	#1600,	r15	;#0x0640
    9e22:	b0 12 56 51 	call	#0x5156	
    9e26:	b0 12 36 60 	call	#0x6036	
    9e2a:	0f 43       	clr	r15		
    9e2c:	02 3c       	jmp	$+6      	;abs 0x9e32
    9e2e:	3f 40 05 00 	mov	#5,	r15	;#0x0005
    9e32:	82 4f 5e 21 	mov	r15,	&0x215e	
    9e36:	0f 93       	tst	r15		
    9e38:	04 20       	jnz	$+10     	;abs 0x9e42
    9e3a:	f2 40 03 00 42 1d 	mov.b	#3,	&0x1d42	;#0x0003
    9e40:	02 3c       	jmp	$+6      	;abs 0x9e46
    9e42:	e2 43 42 1d 	mov.b	#2,	&0x1d42	;r3 As==10
    9e46:	4b 43       	clr.b	r11		
    9e48:	03 3c       	jmp	$+8      	;abs 0x9e50
    9e4a:	c2 43 42 1d 	mov.b	#0,	&0x1d42	;r3 As==00
    9e4e:	5b 43       	mov.b	#1,	r11	;r3 As==01
    9e50:	b0 12 ba 8d 	call	#0x8dba	
    9e54:	4b 93       	tst.b	r11		
    9e56:	02 20       	jnz	$+6      	;abs 0x9e5c
    9e58:	80 00 aa ae 	bra	#0x0aeaa	
    9e5c:	1f 42 5e 21 	mov	&0x215e,r15	
    9e60:	1e 42 e0 1f 	mov	&0x1fe0,r14	
    9e64:	82 4f 76 1c 	mov	r15,	&0x1c76	
    9e68:	0f 93       	tst	r15		
    9e6a:	13 20       	jnz	$+40     	;abs 0x9e92
    9e6c:	8e 93 3e 00 	tst	62(r14)	;0x003e(r14)
    9e70:	10 24       	jz	$+34     	;abs 0x9e92
    9e72:	f2 90 23 00 86 1c 	cmp.b	#35,	&0x1c86	;#0x0023
    9e78:	0c 24       	jz	$+26     	;abs 0x9e92
    9e7a:	5f 4e 02 00 	mov.b	2(r14),	r15	;0x0002(r14)
    9e7e:	8f 10       	swpb	r15		
    9e80:	55 4e 01 00 	mov.b	1(r14),	r5	;0x0001(r14)
    9e84:	0f d5       	bis	r5,	r15	
    9e86:	3f f0 20 00 	and	#32,	r15	;#0x0020
    9e8a:	0a 24       	jz	$+22     	;abs 0x9ea0
    9e8c:	de b3 44 00 	bit.b	#1,	68(r14)	;r3 As==01, 0x0044(r14)
    9e90:	07 24       	jz	$+16     	;abs 0x9ea0
    9e92:	e2 c3 d2 1e 	bic.b	#2,	&0x1ed2	;r3 As==10
    9e96:	f2 40 24 00 86 1c 	mov.b	#36,	&0x1c86	;#0x0024
    9e9c:	80 00 be 9c 	bra	#0x09cbe	
    9ea0:	f2 40 21 00 86 1c 	mov.b	#33,	&0x1c86	;#0x0021
    9ea6:	80 00 be 9c 	bra	#0x09cbe	
    9eaa:	0f 42       	mov	r2,	r15	
    9eac:	3f f2       	and	#8,	r15	;r2 As==11
    9eae:	32 c2       	dint			
    9eb0:	03 43       	nop			
    9eb2:	c2 93 a5 20 	tst.b	&0x20a5	
    9eb6:	02 20       	jnz	$+6      	;abs 0x9ebc
    9eb8:	80 00 44 a7 	bra	#0x0a744	
    9ebc:	5e 42 4f 21 	mov.b	&0x214f,r14	
    9ec0:	5e 02       	rlam	#1,	r14	
    9ec2:	1b 4e 7c 1c 	mov	7292(r14),r11	;0x1c7c(r14)
    9ec6:	0f 93       	tst	r15		
    9ec8:	01 24       	jz	$+4      	;abs 0x9ecc
    9eca:	32 d2       	eint			
    9ecc:	f2 90 14 00 86 1c 	cmp.b	#20,	&0x1c86	;#0x0014
    9ed2:	03 20       	jnz	$+8      	;abs 0x9eda
    9ed4:	f2 40 0d 00 86 1c 	mov.b	#13,	&0x1c86	;#0x000d
    9eda:	f2 90 0d 00 86 1c 	cmp.b	#13,	&0x1c86	;#0x000d
    9ee0:	09 20       	jnz	$+20     	;abs 0x9ef4
    9ee2:	82 93 1e 1c 	tst	&0x1c1e	
    9ee6:	06 24       	jz	$+14     	;abs 0x9ef4
    9ee8:	1d 42 1a 1c 	mov	&0x1c1a,r13	
    9eec:	0e 43       	clr	r14		
    9eee:	4f 43       	clr.b	r15		
    9ef0:	b0 12 30 5c 	call	#0x5c30	
    9ef4:	5a 4b 07 00 	mov.b	7(r11),	r10	;0x0007(r11)
    9ef8:	5f 4b 06 00 	mov.b	6(r11),	r15	;0x0006(r11)
    9efc:	fb 90 3f 00 0a 00 	cmp.b	#63,	10(r11)	;#0x003f, 0x000a(r11)
    9f02:	02 24       	jz	$+6      	;abs 0x9f08
    9f04:	80 00 0e a1 	bra	#0x0a10e	
    9f08:	58 4b 0b 00 	mov.b	11(r11),r8	;0x000b(r11)
    9f0c:	69 4b       	mov.b	@r11,	r9	
    9f0e:	8a 10       	swpb	r10		
    9f10:	0a df       	bis	r15,	r10	
    9f12:	b0 12 44 51 	call	#0x5144	
    9f16:	0a 9f       	cmp	r15,	r10	
    9f18:	05 24       	jz	$+12     	;abs 0x9f24
    9f1a:	1f 43       	mov	#1,	r15	;r3 As==01
    9f1c:	3a 93       	cmp	#-1,	r10	;r3 As==11
    9f1e:	03 24       	jz	$+8      	;abs 0x9f26
    9f20:	0f 43       	clr	r15		
    9f22:	01 3c       	jmp	$+4      	;abs 0x9f26
    9f24:	1f 43       	mov	#1,	r15	;r3 As==01
    9f26:	4f 93       	tst.b	r15		
    9f28:	02 20       	jnz	$+6      	;abs 0x9f2e
    9f2a:	80 00 2a a1 	bra	#0x0a12a	
    9f2e:	78 90 3d 00 	cmp.b	#61,	r8	;#0x003d
    9f32:	02 24       	jz	$+6      	;abs 0x9f38
    9f34:	80 00 2a a1 	bra	#0x0a12a	
    9f38:	6f 4b       	mov.b	@r11,	r15	
    9f3a:	7f 50 ee ff 	add.b	#-18,	r15	;#0xffee
    9f3e:	4f 4f       	mov.b	r15,	r15	
    9f40:	0f 5b       	add	r11,	r15	
    9f42:	5f 4f 0c 00 	mov.b	12(r15),r15	;0x000c(r15)
    9f46:	7f 90 06 00 	cmp.b	#6,	r15	;#0x0006
    9f4a:	06 24       	jz	$+14     	;abs 0x9f58
    9f4c:	7f 90 3e 00 	cmp.b	#62,	r15	;#0x003e
    9f50:	02 24       	jz	$+6      	;abs 0x9f56
    9f52:	80 00 2a a1 	bra	#0x0a12a	
    9f56:	b5 3c       	jmp	$+364    	;abs 0xa0c2
    9f58:	79 90 1e 00 	cmp.b	#30,	r9	;#0x001e
    9f5c:	07 24       	jz	$+16     	;abs 0x9f6c
    9f5e:	0f 42       	mov	r2,	r15	
    9f60:	32 c2       	dint			
    9f62:	03 43       	nop			
    9f64:	e2 e2 43 02 	xor.b	#4,	&0x0243	;r2 As==10
    9f68:	80 00 24 a1 	bra	#0x0a124	
    9f6c:	c2 93 2a 1c 	tst.b	&0x1c2a	
    9f70:	02 24       	jz	$+6      	;abs 0x9f76
    9f72:	80 00 2a a1 	bra	#0x0a12a	
    9f76:	0f 4b       	mov	r11,	r15	
    9f78:	b0 12 a2 4b 	call	#0x4ba2	
    9f7c:	4f 93       	tst.b	r15		
    9f7e:	04 24       	jz	$+10     	;abs 0x9f88
    9f80:	0f 4b       	mov	r11,	r15	
    9f82:	b0 12 84 5f 	call	#0x5f84	
    9f86:	02 3c       	jmp	$+6      	;abs 0x9f8c
    9f88:	b0 12 0c 4d 	call	#0x4d0c	
    9f8c:	81 4e 20 00 	mov	r14,	32(r1)	;0x0020(r1)
    9f90:	81 4f 22 00 	mov	r15,	34(r1)	;0x0022(r1)
    9f94:	5f 4b 0e 00 	mov.b	14(r11),r15	;0x000e(r11)
    9f98:	8f 10       	swpb	r15		
    9f9a:	5e 4b 0f 00 	mov.b	15(r11),r14	;0x000f(r11)
    9f9e:	0f de       	bis	r14,	r15	
    9fa0:	1f 93       	cmp	#1,	r15	;r3 As==01
    9fa2:	13 20       	jnz	$+40     	;abs 0x9fca
    9fa4:	e2 c3 e6 1e 	bic.b	#2,	&0x1ee6	;r3 As==10
    9fa8:	b0 12 4c 50 	call	#0x504c	
    9fac:	3c 40 20 4e 	mov	#20000,	r12	;#0x4e20
    9fb0:	0d 43       	clr	r13		
    9fb2:	b0 12 14 af 	call	#0xaf14	
    9fb6:	0d 4e       	mov	r14,	r13	
    9fb8:	0e 4f       	mov	r15,	r14	
    9fba:	3d 50 40 9c 	add	#-25536,r13	;#0x9c40
    9fbe:	0e 63       	adc	r14		
    9fc0:	7f 40 05 00 	mov.b	#5,	r15	;#0x0005
    9fc4:	b0 12 30 5c 	call	#0x5c30	
    9fc8:	b0 3c       	jmp	$+354    	;abs 0xa12a
    9fca:	d2 43 2a 1c 	mov.b	#1,	&0x1c2a	;r3 As==01
    9fce:	5e 4b 0c 00 	mov.b	12(r11),r14	;0x000c(r11)
    9fd2:	8e 10       	swpb	r14		
    9fd4:	5d 4b 0d 00 	mov.b	13(r11),r13	;0x000d(r11)
    9fd8:	0e dd       	bis	r13,	r14	
    9fda:	c1 4e 01 00 	mov.b	r14,	1(r1)	;0x0001(r1)
    9fde:	8e 10       	swpb	r14		
    9fe0:	c1 4e 00 00 	mov.b	r14,	0(r1)	;0x0000(r1)
    9fe4:	1e 42 44 1c 	mov	&0x1c44,r14	
    9fe8:	c1 4e 03 00 	mov.b	r14,	3(r1)	;0x0003(r1)
    9fec:	8e 10       	swpb	r14		
    9fee:	c1 4e 02 00 	mov.b	r14,	2(r1)	;0x0002(r1)
    9ff2:	d1 4b 48 00 04 00 	mov.b	72(r11),4(r1)	;0x0048(r11), 0x0004(r1)
    9ff8:	c1 4f 06 00 	mov.b	r15,	6(r1)	;0x0006(r1)
    9ffc:	8f 10       	swpb	r15		
    9ffe:	c1 4f 05 00 	mov.b	r15,	5(r1)	;0x0005(r1)
    a002:	0f 4b       	mov	r11,	r15	
    a004:	3f 50 10 00 	add	#16,	r15	;#0x0010
    a008:	b0 12 c8 49 	call	#0x49c8	
    a00c:	0d 4e       	mov	r14,	r13	
    a00e:	0e 4f       	mov	r15,	r14	
    a010:	0f 41       	mov	r1,	r15	
    a012:	3f 50 07 00 	add	#7,	r15	;#0x0007
    a016:	b0 12 9c 49 	call	#0x499c	
    a01a:	0f 4b       	mov	r11,	r15	
    a01c:	3f 50 14 00 	add	#20,	r15	;#0x0014
    a020:	b0 12 c8 49 	call	#0x49c8	
    a024:	0d 4e       	mov	r14,	r13	
    a026:	0e 4f       	mov	r15,	r14	
    a028:	0f 41       	mov	r1,	r15	
    a02a:	3f 50 0b 00 	add	#11,	r15	;#0x000b
    a02e:	b0 12 9c 49 	call	#0x499c	
    a032:	1d 41 20 00 	mov	32(r1),	r13	;0x0020(r1)
    a036:	1e 41 22 00 	mov	34(r1),	r14	;0x0022(r1)
    a03a:	0f 41       	mov	r1,	r15	
    a03c:	3f 50 0f 00 	add	#15,	r15	;#0x000f
    a040:	b0 12 9c 49 	call	#0x499c	
    a044:	0f 41       	mov	r1,	r15	
    a046:	3f 50 20 00 	add	#32,	r15	;#0x0020
    a04a:	b0 12 6c 5c 	call	#0x5c6c	
    a04e:	c1 4f 17 00 	mov.b	r15,	23(r1)	;0x0017(r1)
    a052:	1d 41 20 00 	mov	32(r1),	r13	;0x0020(r1)
    a056:	1e 41 22 00 	mov	34(r1),	r14	;0x0022(r1)
    a05a:	0f 41       	mov	r1,	r15	
    a05c:	3f 50 13 00 	add	#19,	r15	;#0x0013
    a060:	b0 12 9c 49 	call	#0x499c	
    a064:	d1 42 48 21 18 00 	mov.b	&0x2148,24(r1)	;0x0018(r1)
    a06a:	0f 42       	mov	r2,	r15	
    a06c:	32 c2       	dint			
    a06e:	03 43       	nop			
    a070:	1e 42 26 1c 	mov	&0x1c26,r14	
    a074:	c1 4e 1a 00 	mov.b	r14,	26(r1)	;0x001a(r1)
    a078:	8e 10       	swpb	r14		
    a07a:	c1 4e 19 00 	mov.b	r14,	25(r1)	;0x0019(r1)
    a07e:	3f f2       	and	#8,	r15	;r2 As==11
    a080:	01 24       	jz	$+4      	;abs 0xa084
    a082:	32 d2       	eint			
    a084:	f2 40 1f 00 02 21 	mov.b	#31,	&0x2102	;#0x001f
    a08a:	3d 40 1f 00 	mov	#31,	r13	;#0x001f
    a08e:	0e 41       	mov	r1,	r14	
    a090:	3f 40 03 21 	mov	#8451,	r15	;#0x2103
    a094:	b0 12 90 ba 	call	#0xba90	
    a098:	e2 d3 90 20 	bis.b	#2,	&0x2090	;r3 As==10
    a09c:	c2 93 88 20 	tst.b	&0x2088	
    a0a0:	02 24       	jz	$+6      	;abs 0xa0a6
    a0a2:	80 00 92 ae 	bra	#0x0ae92	
    a0a6:	e2 43 88 20 	mov.b	#2,	&0x2088	;r3 As==10
    a0aa:	b2 40 20 00 8c 20 	mov	#32,	&0x208c	;#0x0020
    a0b0:	82 43 8e 20 	mov	#0,	&0x208e	;r3 As==00
    a0b4:	b2 40 02 21 8a 20 	mov	#8450,	&0x208a	;#0x2102
    a0ba:	4f 43       	clr.b	r15		
    a0bc:	b0 12 44 68 	call	#0x6844	
    a0c0:	34 3c       	jmp	$+106    	;abs 0xa12a
    a0c2:	5f 4b 0e 00 	mov.b	14(r11),r15	;0x000e(r11)
    a0c6:	8f 10       	swpb	r15		
    a0c8:	5e 4b 0f 00 	mov.b	15(r11),r14	;0x000f(r11)
    a0cc:	0f de       	bis	r14,	r15	
    a0ce:	5f 93       	cmp.b	#1,	r15	;r3 As==01
    a0d0:	2c 20       	jnz	$+90     	;abs 0xa12a
    a0d2:	d2 b3 54 1d 	bit.b	#1,	&0x1d54	;r3 As==01
    a0d6:	29 20       	jnz	$+84     	;abs 0xa12a
    a0d8:	0f 4b       	mov	r11,	r15	
    a0da:	b0 12 a2 4b 	call	#0x4ba2	
    a0de:	4f 93       	tst.b	r15		
    a0e0:	24 24       	jz	$+74     	;abs 0xa12a
    a0e2:	1a 42 e2 1f 	mov	&0x1fe2,r10	
    a0e6:	82 4b e2 1f 	mov	r11,	&0x1fe2	
    a0ea:	0f 4b       	mov	r11,	r15	
    a0ec:	b0 12 84 5f 	call	#0x5f84	
    a0f0:	0d 4e       	mov	r14,	r13	
    a0f2:	0e 4f       	mov	r15,	r14	
    a0f4:	0f 4b       	mov	r11,	r15	
    a0f6:	3f 50 15 00 	add	#21,	r15	;#0x0015
    a0fa:	b0 12 9c 49 	call	#0x499c	
    a0fe:	d2 d3 54 1d 	bis.b	#1,	&0x1d54	;r3 As==01
    a102:	7f 40 19 00 	mov.b	#25,	r15	;#0x0019
    a106:	b0 12 62 4d 	call	#0x4d62	
    a10a:	0b 4a       	mov	r10,	r11	
    a10c:	0e 3c       	jmp	$+30     	;abs 0xa12a
    a10e:	8a 10       	swpb	r10		
    a110:	0a df       	bis	r15,	r10	
    a112:	b0 12 44 51 	call	#0x5144	
    a116:	0a 9f       	cmp	r15,	r10	
    a118:	02 24       	jz	$+6      	;abs 0xa11e
    a11a:	3a 93       	cmp	#-1,	r10	;r3 As==11
    a11c:	06 20       	jnz	$+14     	;abs 0xa12a
    a11e:	0f 42       	mov	r2,	r15	
    a120:	32 c2       	dint			
    a122:	03 43       	nop			
    a124:	3f f2       	and	#8,	r15	;r2 As==11
    a126:	01 24       	jz	$+4      	;abs 0xa12a
    a128:	32 d2       	eint			
    a12a:	0f 42       	mov	r2,	r15	
    a12c:	3f f2       	and	#8,	r15	;r2 As==11
    a12e:	32 c2       	dint			
    a130:	03 43       	nop			
    a132:	5d 42 4f 21 	mov.b	&0x214f,r13	
    a136:	4e 4d       	mov.b	r13,	r14	
    a138:	5e 02       	rlam	#1,	r14	
    a13a:	8e 4b 7c 1c 	mov	r11,	7292(r14);0x1c7c(r14)
    a13e:	4e 4d       	mov.b	r13,	r14	
    a140:	5e 53       	inc.b	r14		
    a142:	7e 90 03 00 	cmp.b	#3,	r14	;#0x0003
    a146:	03 2c       	jc	$+8      	;abs 0xa14e
    a148:	c2 4e 4f 21 	mov.b	r14,	&0x214f	
    a14c:	02 3c       	jmp	$+6      	;abs 0xa152
    a14e:	c2 43 4f 21 	mov.b	#0,	&0x214f	;r3 As==00
    a152:	f2 53 a5 20 	add.b	#-1,	&0x20a5	;r3 As==11
    a156:	0f 93       	tst	r15		
    a158:	02 20       	jnz	$+6      	;abs 0xa15e
    a15a:	80 00 aa 9e 	bra	#0x09eaa	
    a15e:	32 d2       	eint			
    a160:	80 00 aa 9e 	bra	#0x09eaa	
    a164:	b0 12 4c 50 	call	#0x504c	
    a168:	0f 42       	mov	r2,	r15	
    a16a:	32 c2       	dint			
    a16c:	03 43       	nop			
    a16e:	82 4e e4 1f 	mov	r14,	&0x1fe4	
    a172:	80 00 f8 96 	bra	#0x096f8	
    a176:	b0 12 cc 8c 	call	#0x8ccc	
    a17a:	80 00 aa ae 	bra	#0x0aeaa	
    a17e:	b0 12 be 58 	call	#0x58be	
    a182:	80 00 aa ae 	bra	#0x0aeaa	
    a186:	4d 43       	clr.b	r13		
    a188:	35 3c       	jmp	$+108    	;abs 0xa1f4
    a18a:	4f 43       	clr.b	r15		
    a18c:	b0 12 84 4b 	call	#0x4b84	
    a190:	4f 93       	tst.b	r15		
    a192:	04 38       	jl	$+10     	;abs 0xa19c
    a194:	7f 40 11 00 	mov.b	#17,	r15	;#0x0011
    a198:	80 00 0a ae 	bra	#0x0ae0a	
    a19c:	f2 90 06 00 61 1c 	cmp.b	#6,	&0x1c61	;#0x0006
    a1a2:	2c 20       	jnz	$+90     	;abs 0xa1fc
    a1a4:	4f 43       	clr.b	r15		
    a1a6:	b0 12 84 4b 	call	#0x4b84	
    a1aa:	4b 4f       	mov.b	r15,	r11	
    a1ac:	b0 12 be 4f 	call	#0x4fbe	
    a1b0:	b0 12 18 59 	call	#0x5918	
    a1b4:	d2 c3 20 1d 	bic.b	#1,	&0x1d20	;r3 As==01
    a1b8:	d2 c3 1c 1d 	bic.b	#1,	&0x1d1c	;r3 As==01
    a1bc:	c2 43 78 1c 	mov.b	#0,	&0x1c78	;r3 As==00
    a1c0:	7b f0 40 00 	and.b	#64,	r11	;#0x0040
    a1c4:	5f 42 c5 1e 	mov.b	&0x1ec5,r15	
    a1c8:	5f 06       	rlam	#2,	r15	
    a1ca:	4b 93       	tst.b	r11		
    a1cc:	05 20       	jnz	$+12     	;abs 0xa1d8
    a1ce:	ff f0 e7 ff 1c 1d 	and.b	#-25,	7452(r15);#0xffe7, 0x1d1c(r15)
    a1d4:	80 00 a0 98 	bra	#0x098a0	
    a1d8:	3f 50 1c 1d 	add	#7452,	r15	;#0x1d1c
    a1dc:	6e 4f       	mov.b	@r15,	r14	
    a1de:	5e 0b       	rrum	#3,	r14	
    a1e0:	3e f0 03 00 	and	#3,	r14	;#0x0003
    a1e4:	2e 93       	cmp	#2,	r14	;r3 As==10
    a1e6:	04 34       	jge	$+10     	;abs 0xa1f0
    a1e8:	ef c3 00 00 	bic.b	#2,	0(r15)	;r3 As==10, 0x0000(r15)
    a1ec:	80 00 a0 98 	bra	#0x098a0	
    a1f0:	7d 40 0a 00 	mov.b	#10,	r13	;#0x000a
    a1f4:	0e 43       	clr	r14		
    a1f6:	1f 43       	mov	#1,	r15	;r3 As==01
    a1f8:	80 00 e8 98 	bra	#0x098e8	
    a1fc:	b0 12 be 4f 	call	#0x4fbe	
    a200:	b0 12 18 59 	call	#0x5918	
    a204:	d2 c3 20 1d 	bic.b	#1,	&0x1d20	;r3 As==01
    a208:	d2 c3 1c 1d 	bic.b	#1,	&0x1d1c	;r3 As==01
    a20c:	c2 43 78 1c 	mov.b	#0,	&0x1c78	;r3 As==00
    a210:	80 00 a0 98 	bra	#0x098a0	
    a214:	0f 42       	mov	r2,	r15	
    a216:	32 c2       	dint			
    a218:	03 43       	nop			
    a21a:	d2 42 0d 1c 0e 1c 	mov.b	&0x1c0d,&0x1c0e	
    a220:	f2 43 0d 1c 	mov.b	#-1,	&0x1c0d	;r3 As==11
    a224:	e2 42 8a 1c 	mov.b	#4,	&0x1c8a	;r2 As==10
    a228:	3f f2       	and	#8,	r15	;r2 As==11
    a22a:	01 24       	jz	$+4      	;abs 0xa22e
    a22c:	32 d2       	eint			
    a22e:	5f 42 0e 1c 	mov.b	&0x1c0e,r15	
    a232:	4f 93       	tst.b	r15		
    a234:	05 24       	jz	$+12     	;abs 0xa240
    a236:	5f 93       	cmp.b	#1,	r15	;r3 As==01
    a238:	02 24       	jz	$+6      	;abs 0xa23e
    a23a:	80 00 aa ae 	bra	#0x0aeaa	
    a23e:	0a 3c       	jmp	$+22     	;abs 0xa254
    a240:	c2 43 18 1c 	mov.b	#0,	&0x1c18	;r3 As==00
    a244:	82 43 c0 1e 	mov	#0,	&0x1ec0	;r3 As==00
    a248:	82 43 c2 1e 	mov	#0,	&0x1ec2	;r3 As==00
    a24c:	b0 12 4a 81 	call	#0x814a	
    a250:	80 00 aa ae 	bra	#0x0aeaa	
    a254:	c2 43 0b 1c 	mov.b	#0,	&0x1c0b	;r3 As==00
    a258:	d2 93 52 1e 	cmp.b	#1,	&0x1e52	;r3 As==01
    a25c:	1a 20       	jnz	$+54     	;abs 0xa292
    a25e:	f2 b2 f6 20 	bit.b	#8,	&0x20f6	;r2 As==11
    a262:	0f 43       	clr	r15		
    a264:	0f 6f       	rlc	r15		
    a266:	4f 93       	tst.b	r15		
    a268:	14 20       	jnz	$+42     	;abs 0xa292
    a26a:	b0 12 4a 66 	call	#0x664a	
    a26e:	5f 42 f6 20 	mov.b	&0x20f6,r15	
    a272:	7f f0 07 00 	and.b	#7,	r15	;#0x0007
    a276:	7f 90 03 00 	cmp.b	#3,	r15	;#0x0003
    a27a:	0b 20       	jnz	$+24     	;abs 0xa292
    a27c:	c2 43 0c 1c 	mov.b	#0,	&0x1c0c	;r3 As==00
    a280:	a2 42 4c 1d 	mov	#4,	&0x1d4c	;r2 As==10
    a284:	0f 43       	clr	r15		
    a286:	b0 12 c4 73 	call	#0x73c4	
    a28a:	f2 43 0b 1c 	mov.b	#-1,	&0x1c0b	;r3 As==11
    a28e:	80 00 aa ae 	bra	#0x0aeaa	
    a292:	b0 12 46 84 	call	#0x8446	
    a296:	80 00 aa ae 	bra	#0x0aeaa	
    a29a:	0d 42       	mov	r2,	r13	
    a29c:	3d f2       	and	#8,	r13	;r2 As==11
    a29e:	32 c2       	dint			
    a2a0:	03 43       	nop			
    a2a2:	c2 43 48 22 	mov.b	#0,	&0x2248	;r3 As==00
    a2a6:	5f 42 de 1f 	mov.b	&0x1fde,r15	
    a2aa:	5a 43       	mov.b	#1,	r10	;r3 As==01
    a2ac:	7f 92       	cmp.b	#8,	r15	;r2 As==11
    a2ae:	01 24       	jz	$+4      	;abs 0xa2b2
    a2b0:	4a 43       	clr.b	r10		
    a2b2:	5e 43       	mov.b	#1,	r14	;r3 As==01
    a2b4:	7f 90 09 00 	cmp.b	#9,	r15	;#0x0009
    a2b8:	01 24       	jz	$+4      	;abs 0xa2bc
    a2ba:	4e 43       	clr.b	r14		
    a2bc:	4a 93       	tst.b	r10		
    a2be:	02 20       	jnz	$+6      	;abs 0xa2c4
    a2c0:	4e 93       	tst.b	r14		
    a2c2:	07 24       	jz	$+16     	;abs 0xa2d2
    a2c4:	c2 43 de 1f 	mov.b	#0,	&0x1fde	;r3 As==00
    a2c8:	5c 42 c6 1e 	mov.b	&0x1ec6,r12	
    a2cc:	5c 02       	rlam	#1,	r12	
    a2ce:	cc 43 00 1e 	mov.b	#0,	7680(r12);r3 As==00, 0x1e00(r12)
    a2d2:	0d 93       	tst	r13		
    a2d4:	01 24       	jz	$+4      	;abs 0xa2d8
    a2d6:	32 d2       	eint			
    a2d8:	4a 93       	tst.b	r10		
    a2da:	02 20       	jnz	$+6      	;abs 0xa2e0
    a2dc:	4e 93       	tst.b	r14		
    a2de:	22 24       	jz	$+70     	;abs 0xa324
    a2e0:	0f 42       	mov	r2,	r15	
    a2e2:	3f f2       	and	#8,	r15	;r2 As==11
    a2e4:	32 c2       	dint			
    a2e6:	03 43       	nop			
    a2e8:	d2 53 4e 21 	inc.b	&0x214e	
    a2ec:	f2 90 43 00 c4 1d 	cmp.b	#67,	&0x1dc4	;#0x0043
    a2f2:	11 20       	jnz	$+36     	;abs 0xa316
    a2f4:	5e 42 61 1e 	mov.b	&0x1e61,r14	
    a2f8:	5e 92 60 1e 	cmp.b	&0x1e60,r14	
    a2fc:	01 20       	jnz	$+4      	;abs 0xa300
    a2fe:	08 3c       	jmp	$+18     	;abs 0xa310
    a300:	5e 53       	inc.b	r14		
    a302:	c2 4e 61 1e 	mov.b	r14,	&0x1e61	
    a306:	7e 90 06 00 	cmp.b	#6,	r14	;#0x0006
    a30a:	02 28       	jnc	$+6      	;abs 0xa310
    a30c:	c2 43 61 1e 	mov.b	#0,	&0x1e61	;r3 As==00
    a310:	49 43       	clr.b	r9		
    a312:	0a 43       	clr	r10		
    a314:	03 3c       	jmp	$+8      	;abs 0xa31c
    a316:	5a e3       	xor.b	#1,	r10	;r3 As==01
    a318:	4a 4a       	mov.b	r10,	r10	
    a31a:	59 43       	mov.b	#1,	r9	;r3 As==01
    a31c:	0f 93       	tst	r15		
    a31e:	06 24       	jz	$+14     	;abs 0xa32c
    a320:	32 d2       	eint			
    a322:	04 3c       	jmp	$+10     	;abs 0xa32c
    a324:	4f 93       	tst.b	r15		
    a326:	5f 20       	jnz	$+192    	;abs 0xa3e6
    a328:	0a 43       	clr	r10		
    a32a:	49 43       	clr.b	r9		
    a32c:	0f 42       	mov	r2,	r15	
    a32e:	32 c2       	dint			
    a330:	03 43       	nop			
    a332:	5e 42 60 1c 	mov.b	&0x1c60,r14	
    a336:	3f f2       	and	#8,	r15	;r2 As==11
    a338:	01 24       	jz	$+4      	;abs 0xa33c
    a33a:	32 d2       	eint			
    a33c:	0f 42       	mov	r2,	r15	
    a33e:	32 c2       	dint			
    a340:	03 43       	nop			
    a342:	4e 93       	tst.b	r14		
    a344:	09 24       	jz	$+20     	;abs 0xa358
    a346:	f2 40 0a 00 de 1f 	mov.b	#10,	&0x1fde	;#0x000a
    a34c:	3f f2       	and	#8,	r15	;r2 As==11
    a34e:	01 20       	jnz	$+4      	;abs 0xa352
    a350:	01 3c       	jmp	$+4      	;abs 0xa354
    a352:	32 d2       	eint			
    a354:	4b 43       	clr.b	r11		
    a356:	38 3c       	jmp	$+114    	;abs 0xa3c8
    a358:	58 42 00 1e 	mov.b	&0x1e00,r8	
    a35c:	5b 42 02 1e 	mov.b	&0x1e02,r11	
    a360:	3f f2       	and	#8,	r15	;r2 As==11
    a362:	01 24       	jz	$+4      	;abs 0xa366
    a364:	32 d2       	eint			
    a366:	b0 12 da 51 	call	#0x51da	
    a36a:	4f 93       	tst.b	r15		
    a36c:	1f 20       	jnz	$+64     	;abs 0xa3ac
    a36e:	48 93       	tst.b	r8		
    a370:	1d 20       	jnz	$+60     	;abs 0xa3ac
    a372:	0b 42       	mov	r2,	r11	
    a374:	3b f2       	and	#8,	r11	;r2 As==11
    a376:	32 c2       	dint			
    a378:	03 43       	nop			
    a37a:	e2 43 00 1e 	mov.b	#2,	&0x1e00	;r3 As==10
    a37e:	b0 12 da 51 	call	#0x51da	
    a382:	4f 93       	tst.b	r15		
    a384:	05 20       	jnz	$+12     	;abs 0xa390
    a386:	5f 42 61 1e 	mov.b	&0x1e61,r15	
    a38a:	5f 4f 62 1e 	mov.b	7778(r15),r15	;0x1e62(r15)
    a38e:	01 3c       	jmp	$+4      	;abs 0xa392
    a390:	4f 43       	clr.b	r15		
    a392:	c2 4f 01 1e 	mov.b	r15,	&0x1e01	
    a396:	f2 40 43 00 c4 1d 	mov.b	#67,	&0x1dc4	;#0x0043
    a39c:	c2 43 c6 1e 	mov.b	#0,	&0x1ec6	;r3 As==00
    a3a0:	0b 93       	tst	r11		
    a3a2:	01 20       	jnz	$+4      	;abs 0xa3a6
    a3a4:	01 3c       	jmp	$+4      	;abs 0xa3a8
    a3a6:	32 d2       	eint			
    a3a8:	5b 43       	mov.b	#1,	r11	;r3 As==01
    a3aa:	0e 3c       	jmp	$+30     	;abs 0xa3c8
    a3ac:	7b 53       	add.b	#-1,	r11	;r3 As==11
    a3ae:	6b 93       	cmp.b	#2,	r11	;r3 As==10
    a3b0:	d1 2f       	jc	$-92     	;abs 0xa354
    a3b2:	0f 42       	mov	r2,	r15	
    a3b4:	32 c2       	dint			
    a3b6:	03 43       	nop			
    a3b8:	f2 40 45 00 c4 1d 	mov.b	#69,	&0x1dc4	;#0x0045
    a3be:	d2 43 c6 1e 	mov.b	#1,	&0x1ec6	;r3 As==01
    a3c2:	3f f2       	and	#8,	r15	;r2 As==11
    a3c4:	f1 27       	jz	$-28     	;abs 0xa3a8
    a3c6:	ef 3f       	jmp	$-32     	;abs 0xa3a6
    a3c8:	49 93       	tst.b	r9		
    a3ca:	0e 24       	jz	$+30     	;abs 0xa3e8
    a3cc:	0f 42       	mov	r2,	r15	
    a3ce:	32 c2       	dint			
    a3d0:	03 43       	nop			
    a3d2:	82 4a 54 1c 	mov	r10,	&0x1c54	
    a3d6:	3f f2       	and	#8,	r15	;r2 As==11
    a3d8:	01 24       	jz	$+4      	;abs 0xa3dc
    a3da:	32 d2       	eint			
    a3dc:	7f 40 17 00 	mov.b	#23,	r15	;#0x0017
    a3e0:	b0 12 62 4d 	call	#0x4d62	
    a3e4:	01 3c       	jmp	$+4      	;abs 0xa3e8
    a3e6:	4b 43       	clr.b	r11		
    a3e8:	0a 42       	mov	r2,	r10	
    a3ea:	3a f2       	and	#8,	r10	;r2 As==11
    a3ec:	32 c2       	dint			
    a3ee:	03 43       	nop			
    a3f0:	f2 90 0a 00 de 1f 	cmp.b	#10,	&0x1fde	;#0x000a
    a3f6:	08 20       	jnz	$+18     	;abs 0xa408
    a3f8:	b0 12 4c 53 	call	#0x534c	
    a3fc:	0a 93       	tst	r10		
    a3fe:	02 20       	jnz	$+6      	;abs 0xa404
    a400:	80 00 aa ae 	bra	#0x0aeaa	
    a404:	80 00 02 97 	bra	#0x09702	
    a408:	0a 93       	tst	r10		
    a40a:	01 24       	jz	$+4      	;abs 0xa40e
    a40c:	32 d2       	eint			
    a40e:	4b 93       	tst.b	r11		
    a410:	02 20       	jnz	$+6      	;abs 0xa416
    a412:	80 00 aa ae 	bra	#0x0aeaa	
    a416:	0f 42       	mov	r2,	r15	
    a418:	32 c2       	dint			
    a41a:	03 43       	nop			
    a41c:	82 43 68 22 	mov	#0,	&0x2268	;r3 As==00
    a420:	c2 43 b7 1d 	mov.b	#0,	&0x1db7	;r3 As==00
    a424:	d2 43 de 1f 	mov.b	#1,	&0x1fde	;r3 As==01
    a428:	3f f2       	and	#8,	r15	;r2 As==11
    a42a:	01 24       	jz	$+4      	;abs 0xa42e
    a42c:	32 d2       	eint			
    a42e:	b0 12 36 5b 	call	#0x5b36	
    a432:	0f 93       	tst	r15		
    a434:	02 20       	jnz	$+6      	;abs 0xa43a
    a436:	80 00 aa ae 	bra	#0x0aeaa	
    a43a:	0f 42       	mov	r2,	r15	
    a43c:	32 c2       	dint			
    a43e:	03 43       	nop			
    a440:	f2 40 09 00 de 1f 	mov.b	#9,	&0x1fde	;#0x0009
    a446:	3f f2       	and	#8,	r15	;r2 As==11
    a448:	01 24       	jz	$+4      	;abs 0xa44c
    a44a:	32 d2       	eint			
    a44c:	b0 12 be 50 	call	#0x50be	
    a450:	80 00 aa ae 	bra	#0x0aeaa	
    a454:	0f 42       	mov	r2,	r15	
    a456:	3f f2       	and	#8,	r15	;r2 As==11
    a458:	32 c2       	dint			
    a45a:	03 43       	nop			
    a45c:	c2 93 36 1d 	tst.b	&0x1d36	
    a460:	04 24       	jz	$+10     	;abs 0xa46a
    a462:	0f 93       	tst	r15		
    a464:	39 24       	jz	$+116    	;abs 0xa4d8
    a466:	32 d2       	eint			
    a468:	37 3c       	jmp	$+112    	;abs 0xa4d8
    a46a:	f2 40 03 00 36 1d 	mov.b	#3,	&0x1d36	;#0x0003
    a470:	c2 43 2b 1c 	mov.b	#0,	&0x1c2b	;r3 As==00
    a474:	0f 93       	tst	r15		
    a476:	01 24       	jz	$+4      	;abs 0xa47a
    a478:	32 d2       	eint			
    a47a:	0b 42       	mov	r2,	r11	
    a47c:	3b f2       	and	#8,	r11	;r2 As==11
    a47e:	32 c2       	dint			
    a480:	03 43       	nop			
    a482:	d2 93 2c 1c 	cmp.b	#1,	&0x1c2c	;r3 As==01
    a486:	0c 20       	jnz	$+26     	;abs 0xa4a0
    a488:	5f 42 36 1d 	mov.b	&0x1d36,r15	
    a48c:	4e 4f       	mov.b	r15,	r14	
    a48e:	7e 53       	add.b	#-1,	r14	;r3 As==11
    a490:	6e 93       	cmp.b	#2,	r14	;r3 As==10
    a492:	0a 2c       	jc	$+22     	;abs 0xa4a8
    a494:	e2 43 36 1d 	mov.b	#2,	&0x1d36	;r3 As==10
    a498:	7f 40 03 00 	mov.b	#3,	r15	;#0x0003
    a49c:	b0 12 62 4d 	call	#0x4d62	
    a4a0:	0b 93       	tst	r11		
    a4a2:	0d 24       	jz	$+28     	;abs 0xa4be
    a4a4:	32 d2       	eint			
    a4a6:	0b 3c       	jmp	$+24     	;abs 0xa4be
    a4a8:	7f 90 03 00 	cmp.b	#3,	r15	;#0x0003
    a4ac:	f9 23       	jnz	$-12     	;abs 0xa4a0
    a4ae:	d2 42 2b 1c 2c 1c 	mov.b	&0x1c2b,&0x1c2c	
    a4b4:	f2 43 2b 1c 	mov.b	#-1,	&0x1c2b	;r3 As==11
    a4b8:	e2 42 36 1d 	mov.b	#4,	&0x1d36	;r2 As==10
    a4bc:	f1 3f       	jmp	$-28     	;abs 0xa4a0
    a4be:	c2 93 2c 1c 	tst.b	&0x1c2c	
    a4c2:	03 20       	jnz	$+8      	;abs 0xa4ca
    a4c4:	b0 12 d6 55 	call	#0x55d6	
    a4c8:	07 3c       	jmp	$+16     	;abs 0xa4d8
    a4ca:	0f 42       	mov	r2,	r15	
    a4cc:	32 c2       	dint			
    a4ce:	03 43       	nop			
    a4d0:	c2 43 36 1d 	mov.b	#0,	&0x1d36	;r3 As==00
    a4d4:	3f f2       	and	#8,	r15	;r2 As==11
    a4d6:	c5 3f       	jmp	$-116    	;abs 0xa462
    a4d8:	0f 42       	mov	r2,	r15	
    a4da:	32 c2       	dint			
    a4dc:	03 43       	nop			
    a4de:	c2 43 de 1f 	mov.b	#0,	&0x1fde	;r3 As==00
    a4e2:	c2 43 45 1d 	mov.b	#0,	&0x1d45	;r3 As==00
    a4e6:	80 00 f8 96 	bra	#0x096f8	
    a4ea:	7f 40 16 00 	mov.b	#22,	r15	;#0x0016
    a4ee:	80 00 0a ae 	bra	#0x0ae0a	
    a4f2:	0b 42       	mov	r2,	r11	
    a4f4:	3b f2       	and	#8,	r11	;r2 As==11
    a4f6:	32 c2       	dint			
    a4f8:	03 43       	nop			
    a4fa:	e2 92 36 1d 	cmp.b	#4,	&0x1d36	;r2 As==10
    a4fe:	23 20       	jnz	$+72     	;abs 0xa546
    a500:	c2 93 2c 1c 	tst.b	&0x1c2c	
    a504:	20 20       	jnz	$+66     	;abs 0xa546
    a506:	5f 42 2e 1c 	mov.b	&0x1c2e,r15	
    a50a:	7f 93       	cmp.b	#-1,	r15	;r3 As==11
    a50c:	05 20       	jnz	$+12     	;abs 0xa518
    a50e:	d2 43 2c 1c 	mov.b	#1,	&0x1c2c	;r3 As==01
    a512:	c2 43 36 1d 	mov.b	#0,	&0x1d36	;r3 As==00
    a516:	15 3c       	jmp	$+44     	;abs 0xa542
    a518:	4e 4f       	mov.b	r15,	r14	
    a51a:	5d 4e 40 1d 	mov.b	7488(r14),r13	;0x1d40(r14)
    a51e:	c2 4d 2e 1c 	mov.b	r13,	&0x1c2e	
    a522:	7d 93       	cmp.b	#-1,	r13	;r3 As==11
    a524:	02 20       	jnz	$+6      	;abs 0xa52a
    a526:	f2 43 2d 1c 	mov.b	#-1,	&0x1c2d	;r3 As==11
    a52a:	fe 43 40 1d 	mov.b	#-1,	7488(r14);r3 As==11, 0x1d40(r14)
    a52e:	c2 4f 2b 1c 	mov.b	r15,	&0x1c2b	
    a532:	f2 43 2c 1c 	mov.b	#-1,	&0x1c2c	;r3 As==11
    a536:	e2 43 36 1d 	mov.b	#2,	&0x1d36	;r3 As==10
    a53a:	7f 40 03 00 	mov.b	#3,	r15	;#0x0003
    a53e:	b0 12 62 4d 	call	#0x4d62	
    a542:	b0 12 a0 51 	call	#0x51a0	
    a546:	0b 93       	tst	r11		
    a548:	02 20       	jnz	$+6      	;abs 0xa54e
    a54a:	80 00 aa ae 	bra	#0x0aeaa	
    a54e:	80 00 02 97 	bra	#0x09702	
    a552:	82 43 58 1c 	mov	#0,	&0x1c58	;r3 As==00
    a556:	0f 42       	mov	r2,	r15	
    a558:	32 c2       	dint			
    a55a:	03 43       	nop			
    a55c:	1b 42 54 1c 	mov	&0x1c54,r11	
    a560:	3f f2       	and	#8,	r15	;r2 As==11
    a562:	01 24       	jz	$+4      	;abs 0xa566
    a564:	32 d2       	eint			
    a566:	c2 93 53 1c 	tst.b	&0x1c53	
    a56a:	02 24       	jz	$+6      	;abs 0xa570
    a56c:	3b 40 03 00 	mov	#3,	r11	;#0x0003
    a570:	1a 42 5a 1c 	mov	&0x1c5a,r10	
    a574:	c2 93 52 1c 	tst.b	&0x1c52	
    a578:	02 24       	jz	$+6      	;abs 0xa57e
    a57a:	80 00 aa ae 	bra	#0x0aeaa	
    a57e:	5f 4a 0b 00 	mov.b	11(r10),r15	;0x000b(r10)
    a582:	7f 90 07 00 	cmp.b	#7,	r15	;#0x0007
    a586:	06 24       	jz	$+14     	;abs 0xa594
    a588:	7f 90 90 ff 	cmp.b	#-112,	r15	;#0xff90
    a58c:	02 24       	jz	$+6      	;abs 0xa592
    a58e:	80 00 aa ae 	bra	#0x0aeaa	
    a592:	04 3c       	jmp	$+10     	;abs 0xa59c
    a594:	c2 43 68 1c 	mov.b	#0,	&0x1c68	;r3 As==00
    a598:	80 00 aa ae 	bra	#0x0aeaa	
    a59c:	b0 12 bc 4e 	call	#0x4ebc	
    a5a0:	0b 93       	tst	r11		
    a5a2:	2e 20       	jnz	$+94     	;abs 0xa600
    a5a4:	3a 90 76 1e 	cmp	#7798,	r10	;#0x1e76
    a5a8:	2b 20       	jnz	$+88     	;abs 0xa600
    a5aa:	5f 42 78 1e 	mov.b	&0x1e78,r15	
    a5ae:	8f 10       	swpb	r15		
    a5b0:	56 42 77 1e 	mov.b	&0x1e77,r6	
    a5b4:	0f d6       	bis	r6,	r15	
    a5b6:	3f f0 30 00 	and	#48,	r15	;#0x0030
    a5ba:	7f d0 41 00 	bis.b	#65,	r15	;#0x0041
    a5be:	c2 4f 77 1e 	mov.b	r15,	&0x1e77	
    a5c2:	f2 40 88 ff 78 1e 	mov.b	#-120,	&0x1e78	;#0xff88
    a5c8:	c2 43 b4 1e 	mov.b	#0,	&0x1eb4	;r3 As==00
    a5cc:	c2 43 b5 1e 	mov.b	#0,	&0x1eb5	;r3 As==00
    a5d0:	c2 43 ba 1e 	mov.b	#0,	&0x1eba	;r3 As==00
    a5d4:	e2 d3 90 20 	bis.b	#2,	&0x2090	;r3 As==10
    a5d8:	c2 93 88 20 	tst.b	&0x2088	
    a5dc:	02 24       	jz	$+6      	;abs 0xa5e2
    a5de:	80 00 aa ae 	bra	#0x0aeaa	
    a5e2:	e2 42 88 20 	mov.b	#4,	&0x2088	;r2 As==10
    a5e6:	b2 40 20 00 8c 20 	mov	#32,	&0x208c	;#0x0020
    a5ec:	82 43 8e 20 	mov	#0,	&0x208e	;r3 As==00
    a5f0:	b2 40 02 21 8a 20 	mov	#8450,	&0x208a	;#0x2102
    a5f6:	4f 43       	clr.b	r15		
    a5f8:	b0 12 44 68 	call	#0x6844	
    a5fc:	80 00 aa ae 	bra	#0x0aeaa	
    a600:	3d 40 19 00 	mov	#25,	r13	;#0x0019
    a604:	0e 43       	clr	r14		
    a606:	5f 43       	mov.b	#1,	r15	;r3 As==01
    a608:	b0 12 30 5c 	call	#0x5c30	
    a60c:	80 00 aa ae 	bra	#0x0aeaa	
    a610:	0f 42       	mov	r2,	r15	
    a612:	32 c2       	dint			
    a614:	03 43       	nop			
    a616:	5d 42 50 1c 	mov.b	&0x1c50,r13	
    a61a:	1b 42 4e 1c 	mov	&0x1c4e,r11	
    a61e:	5e 42 4c 1c 	mov.b	&0x1c4c,r14	
    a622:	5a 42 e4 1c 	mov.b	&0x1ce4,r10	
    a626:	3f f2       	and	#8,	r15	;r2 As==11
    a628:	01 24       	jz	$+4      	;abs 0xa62c
    a62a:	32 d2       	eint			
    a62c:	4d 93       	tst.b	r13		
    a62e:	77 20       	jnz	$+240    	;abs 0xa71e
    a630:	4f 4e       	mov.b	r14,	r15	
    a632:	7f 50 f4 ff 	add.b	#-12,	r15	;#0xfff4
    a636:	fb 90 89 ff 0b 00 	cmp.b	#-119,	11(r11)	;#0xff89, 0x000b(r11)
    a63c:	70 20       	jnz	$+226    	;abs 0xa71e
    a63e:	6f 93       	cmp.b	#2,	r15	;r3 As==10
    a640:	6e 20       	jnz	$+222    	;abs 0xa71e
    a642:	5f 4b 0c 00 	mov.b	12(r11),r15	;0x000c(r11)
    a646:	8f 10       	swpb	r15		
    a648:	5e 4b 0d 00 	mov.b	13(r11),r14	;0x000d(r11)
    a64c:	0f de       	bis	r14,	r15	
    a64e:	3f 90 05 00 	cmp	#5,	r15	;#0x0005
    a652:	65 2c       	jc	$+204    	;abs 0xa71e
    a654:	5f 02       	rlam	#1,	r15	
    a656:	10 4f c8 c1 	br	-15928(r15)	;0xc1c8(r15)
    a65a:	e2 d3 90 20 	bis.b	#2,	&0x2090	;r3 As==10
    a65e:	c2 93 88 20 	tst.b	&0x2088	
    a662:	02 24       	jz	$+6      	;abs 0xa668
    a664:	80 00 9a ae 	bra	#0x0ae9a	
    a668:	e2 42 88 20 	mov.b	#4,	&0x2088	;r2 As==10
    a66c:	b2 40 20 00 8c 20 	mov	#32,	&0x208c	;#0x0020
    a672:	82 43 8e 20 	mov	#0,	&0x208e	;r3 As==00
    a676:	b2 40 02 21 8a 20 	mov	#8450,	&0x208a	;#0x2102
    a67c:	4f 43       	clr.b	r15		
    a67e:	b0 12 44 68 	call	#0x6844	
    a682:	d2 43 2a 1c 	mov.b	#1,	&0x1c2a	;r3 As==01
    a686:	4b 3c       	jmp	$+152    	;abs 0xa71e
    a688:	e2 d3 90 20 	bis.b	#2,	&0x2090	;r3 As==10
    a68c:	c2 93 88 20 	tst.b	&0x2088	
    a690:	46 20       	jnz	$+142    	;abs 0xa71e
    a692:	d2 43 88 20 	mov.b	#1,	&0x2088	;r3 As==01
    a696:	82 43 8a 20 	mov	#0,	&0x208a	;r3 As==00
    a69a:	82 43 8c 20 	mov	#0,	&0x208c	;r3 As==00
    a69e:	82 43 8e 20 	mov	#0,	&0x208e	;r3 As==00
    a6a2:	4f 43       	clr.b	r15		
    a6a4:	b0 12 44 68 	call	#0x6844	
    a6a8:	d2 43 2a 1c 	mov.b	#1,	&0x1c2a	;r3 As==01
    a6ac:	d2 43 64 1c 	mov.b	#1,	&0x1c64	;r3 As==01
    a6b0:	36 3c       	jmp	$+110    	;abs 0xa71e
    a6b2:	d2 43 6a 1c 	mov.b	#1,	&0x1c6a	;r3 As==01
    a6b6:	92 93 44 1c 	cmp	#1,	&0x1c44	;r3 As==01
    a6ba:	0a 20       	jnz	$+22     	;abs 0xa6d0
    a6bc:	b0 12 4c 50 	call	#0x504c	
    a6c0:	3c 40 20 4e 	mov	#20000,	r12	;#0x4e20
    a6c4:	0d 43       	clr	r13		
    a6c6:	b0 12 14 af 	call	#0xaf14	
    a6ca:	0d 4e       	mov	r14,	r13	
    a6cc:	0e 4f       	mov	r15,	r14	
    a6ce:	0c 3c       	jmp	$+26     	;abs 0xa6e8
    a6d0:	b0 12 4c 50 	call	#0x504c	
    a6d4:	3c 40 20 4e 	mov	#20000,	r12	;#0x4e20
    a6d8:	0d 43       	clr	r13		
    a6da:	b0 12 14 af 	call	#0xaf14	
    a6de:	0d 4e       	mov	r14,	r13	
    a6e0:	0e 4f       	mov	r15,	r14	
    a6e2:	3d 50 40 9c 	add	#-25536,r13	;#0x9c40
    a6e6:	0e 63       	adc	r14		
    a6e8:	7f 40 05 00 	mov.b	#5,	r15	;#0x0005
    a6ec:	b0 12 30 5c 	call	#0x5c30	
    a6f0:	5f 42 6a 1c 	mov.b	&0x1c6a,r15	
    a6f4:	b0 12 de 6b 	call	#0x6bde	
    a6f8:	92 93 44 1c 	cmp	#1,	&0x1c44	;r3 As==01
    a6fc:	10 24       	jz	$+34     	;abs 0xa71e
    a6fe:	b0 12 98 53 	call	#0x5398	
    a702:	0d 3c       	jmp	$+28     	;abs 0xa71e
    a704:	c2 43 6a 1c 	mov.b	#0,	&0x1c6a	;r3 As==00
    a708:	e2 c3 e6 1e 	bic.b	#2,	&0x1ee6	;r3 As==10
    a70c:	4f 43       	clr.b	r15		
    a70e:	b0 12 de 6b 	call	#0x6bde	
    a712:	05 3c       	jmp	$+12     	;abs 0xa71e
    a714:	c2 93 68 1c 	tst.b	&0x1c68	
    a718:	02 20       	jnz	$+6      	;abs 0xa71e
    a71a:	b0 12 c0 5c 	call	#0x5cc0	
    a71e:	0f 42       	mov	r2,	r15	
    a720:	3f f2       	and	#8,	r15	;r2 As==11
    a722:	32 c2       	dint			
    a724:	03 43       	nop			
    a726:	4e 4a       	mov.b	r10,	r14	
    a728:	5e 02       	rlam	#1,	r14	
    a72a:	8e 4b 06 1c 	mov	r11,	7174(r14);0x1c06(r14)
    a72e:	5e 42 5e 1c 	mov.b	&0x1c5e,r14	
    a732:	4a 93       	tst.b	r10		
    a734:	02 24       	jz	$+6      	;abs 0xa73a
    a736:	6e c2       	bic.b	#4,	r14	;r2 As==10
    a738:	01 3c       	jmp	$+4      	;abs 0xa73c
    a73a:	6e c3       	bic.b	#2,	r14	;r3 As==10
    a73c:	c2 4e 5e 1c 	mov.b	r14,	&0x1c5e	
    a740:	c2 43 51 1c 	mov.b	#0,	&0x1c51	;r3 As==00
    a744:	80 00 fa 96 	bra	#0x096fa	
    a748:	17 42 e2 1f 	mov	&0x1fe2,r7	
    a74c:	5e 47 0c 00 	mov.b	12(r7),	r14	;0x000c(r7)
    a750:	8e 10       	swpb	r14		
    a752:	5f 47 0d 00 	mov.b	13(r7),	r15	;0x000d(r7)
    a756:	0e df       	bis	r15,	r14	
    a758:	1f 42 dc 1c 	mov	&0x1cdc,r15	
    a75c:	6d 4f       	mov.b	@r15,	r13	
    a75e:	8d 10       	swpb	r13		
    a760:	5c 4f 01 00 	mov.b	1(r15),	r12	;0x0001(r15)
    a764:	0d dc       	bis	r12,	r13	
    a766:	0e 9d       	cmp	r13,	r14	
    a768:	0e 2c       	jc	$+30     	;abs 0xa786
    a76a:	c2 93 06 1e 	tst.b	&0x1e06	
    a76e:	03 20       	jnz	$+8      	;abs 0xa776
    a770:	1d 92 44 1c 	cmp	&0x1c44,r13	
    a774:	08 24       	jz	$+18     	;abs 0xa786
    a776:	cf 4e 01 00 	mov.b	r14,	1(r15)	;0x0001(r15)
    a77a:	8e 10       	swpb	r14		
    a77c:	cf 4e 00 00 	mov.b	r14,	0(r15)	;0x0000(r15)
    a780:	1f 42 dc 1c 	mov	&0x1cdc,r15	
    a784:	04 3c       	jmp	$+10     	;abs 0xa78e
    a786:	0d 9e       	cmp	r14,	r13	
    a788:	02 24       	jz	$+6      	;abs 0xa78e
    a78a:	80 00 18 ac 	bra	#0x0ac18	
    a78e:	df 47 10 00 04 00 	mov.b	16(r7),	4(r15)	;0x0010(r7), 0x0004(r15)
    a794:	1e 42 dc 1c 	mov	&0x1cdc,r14	
    a798:	6f 4e       	mov.b	@r14,	r15	
    a79a:	8f 10       	swpb	r15		
    a79c:	5e 4e 01 00 	mov.b	1(r14),	r14	;0x0001(r14)
    a7a0:	0f de       	bis	r14,	r15	
    a7a2:	1f 92 44 1c 	cmp	&0x1c44,r15	
    a7a6:	02 2c       	jc	$+6      	;abs 0xa7ac
    a7a8:	c2 43 06 1e 	mov.b	#0,	&0x1e06	;r3 As==00
    a7ac:	04 47       	mov	r7,	r4	
    a7ae:	34 50 15 00 	add	#21,	r4	;#0x0015
    a7b2:	0f 44       	mov	r4,	r15	
    a7b4:	b0 12 c8 49 	call	#0x49c8	
    a7b8:	81 4e 20 00 	mov	r14,	32(r1)	;0x0020(r1)
    a7bc:	81 4f 22 00 	mov	r15,	34(r1)	;0x0022(r1)
    a7c0:	0f 41       	mov	r1,	r15	
    a7c2:	3f 50 20 00 	add	#32,	r15	;#0x0020
    a7c6:	b0 12 6c 5c 	call	#0x5c6c	
    a7ca:	37 50 11 00 	add	#17,	r7	;#0x0011
    a7ce:	0f 47       	mov	r7,	r15	
    a7d0:	b0 12 c8 49 	call	#0x49c8	
    a7d4:	1a 41 20 00 	mov	32(r1),	r10	;0x0020(r1)
    a7d8:	1b 41 22 00 	mov	34(r1),	r11	;0x0022(r1)
    a7dc:	0a 8e       	sub	r14,	r10	
    a7de:	0b 7f       	subc	r15,	r11	
    a7e0:	81 4a 20 00 	mov	r10,	32(r1)	;0x0020(r1)
    a7e4:	81 4b 22 00 	mov	r11,	34(r1)	;0x0022(r1)
    a7e8:	e2 93 bc 1d 	cmp.b	#2,	&0x1dbc	;r3 As==10
    a7ec:	04 2c       	jc	$+10     	;abs 0xa7f6
    a7ee:	b0 12 2a 52 	call	#0x522a	
    a7f2:	0f 93       	tst	r15		
    a7f4:	15 20       	jnz	$+44     	;abs 0xa820
    a7f6:	0e 4a       	mov	r10,	r14	
    a7f8:	0f 4b       	mov	r11,	r15	
    a7fa:	3e 50 f4 01 	add	#500,	r14	;#0x01f4
    a7fe:	0f 63       	adc	r15		
    a800:	0f 93       	tst	r15		
    a802:	03 20       	jnz	$+8      	;abs 0xa80a
    a804:	3e 90 e9 03 	cmp	#1001,	r14	;#0x03e9
    a808:	0b 28       	jnc	$+24     	;abs 0xa820
    a80a:	5f 42 48 1c 	mov.b	&0x1c48,r15	
    a80e:	5f 53       	inc.b	r15		
    a810:	c2 4f 48 1c 	mov.b	r15,	&0x1c48	
    a814:	7f 90 03 00 	cmp.b	#3,	r15	;#0x0003
    a818:	59 28       	jnc	$+180    	;abs 0xa8cc
    a81a:	b0 12 38 4f 	call	#0x4f38	
    a81e:	56 3c       	jmp	$+174    	;abs 0xa8cc
    a820:	c2 43 a6 20 	mov.b	#0,	&0x20a6	;r3 As==00
    a824:	c2 43 48 1c 	mov.b	#0,	&0x1c48	;r3 As==00
    a828:	35 40 cc 1d 	mov	#7628,	r5	;#0x1dcc
    a82c:	4b 43       	clr.b	r11		
    a82e:	7a 43       	mov.b	#-1,	r10	;r3 As==11
    a830:	08 43       	clr	r8		
    a832:	09 43       	clr	r9		
    a834:	46 43       	clr.b	r6		
    a836:	0f 44       	mov	r4,	r15	
    a838:	b0 12 c8 49 	call	#0x49c8	
    a83c:	1e 85 02 00 	sub	2(r5),	r14	;0x0002(r5)
    a840:	1f 75 04 00 	subc	4(r5),	r15	;0x0004(r5)
    a844:	3f 90 ff 7f 	cmp	#32767,	r15	;#0x7fff
    a848:	05 28       	jnc	$+12     	;abs 0xa854
    a84a:	02 20       	jnz	$+6      	;abs 0xa850
    a84c:	3e 93       	cmp	#-1,	r14	;r3 As==11
    a84e:	02 28       	jnc	$+6      	;abs 0xa854
    a850:	c5 43 00 00 	mov.b	#0,	0(r5)	;r3 As==00, 0x0000(r5)
    a854:	c5 93 00 00 	tst.b	0(r5)		;0x0000(r5)
    a858:	03 24       	jz	$+8      	;abs 0xa860
    a85a:	d2 53 a6 20 	inc.b	&0x20a6	
    a85e:	01 3c       	jmp	$+4      	;abs 0xa862
    a860:	4a 46       	mov.b	r6,	r10	
    a862:	0f 99       	cmp	r9,	r15	
    a864:	07 28       	jnc	$+16     	;abs 0xa874
    a866:	09 9f       	cmp	r15,	r9	
    a868:	02 28       	jnc	$+6      	;abs 0xa86e
    a86a:	0e 98       	cmp	r8,	r14	
    a86c:	03 28       	jnc	$+8      	;abs 0xa874
    a86e:	08 4e       	mov	r14,	r8	
    a870:	09 4f       	mov	r15,	r9	
    a872:	4b 46       	mov.b	r6,	r11	
    a874:	56 53       	inc.b	r6		
    a876:	35 50 0a 00 	add	#10,	r5	;#0x000a
    a87a:	76 90 05 00 	cmp.b	#5,	r6	;#0x0005
    a87e:	db 23       	jnz	$-72     	;abs 0xa836
    a880:	7a 93       	cmp.b	#-1,	r10	;r3 As==11
    a882:	03 24       	jz	$+8      	;abs 0xa88a
    a884:	d2 53 a6 20 	inc.b	&0x20a6	
    a888:	4b 4a       	mov.b	r10,	r11	
    a88a:	4d 4b       	mov.b	r11,	r13	
    a88c:	8d 11       	sxt	r13		
    a88e:	05 4d       	mov	r13,	r5	
    a890:	55 02       	rlam	#1,	r5	
    a892:	5d 0a       	rlam	#3,	r13	
    a894:	05 5d       	add	r13,	r5	
    a896:	35 50 cc 1d 	add	#7628,	r5	;#0x1dcc
    a89a:	d5 43 00 00 	mov.b	#1,	0(r5)	;r3 As==01, 0x0000(r5)
    a89e:	0f 44       	mov	r4,	r15	
    a8a0:	b0 12 c8 49 	call	#0x49c8	
    a8a4:	85 4e 02 00 	mov	r14,	2(r5)	;0x0002(r5)
    a8a8:	85 4f 04 00 	mov	r15,	4(r5)	;0x0004(r5)
    a8ac:	0f 47       	mov	r7,	r15	
    a8ae:	b0 12 c8 49 	call	#0x49c8	
    a8b2:	06 4e       	mov	r14,	r6	
    a8b4:	07 4f       	mov	r15,	r7	
    a8b6:	0f 44       	mov	r4,	r15	
    a8b8:	b0 12 c8 49 	call	#0x49c8	
    a8bc:	0c 46       	mov	r6,	r12	
    a8be:	0d 47       	mov	r7,	r13	
    a8c0:	0c 8e       	sub	r14,	r12	
    a8c2:	0d 7f       	subc	r15,	r13	
    a8c4:	85 4c 06 00 	mov	r12,	6(r5)	;0x0006(r5)
    a8c8:	85 4d 08 00 	mov	r13,	8(r5)	;0x0008(r5)
    a8cc:	91 42 ec 1c 5e 00 	mov	&0x1cec,94(r1)	;0x005e(r1)
    a8d2:	91 42 ee 1c 60 00 	mov	&0x1cee,96(r1)	;0x0060(r1)
    a8d8:	b1 40 cc 1d 28 00 	mov	#7628,	40(r1)	;#0x1dcc, 0x0028(r1)
    a8de:	1e 41 28 00 	mov	40(r1),	r14	;0x0028(r1)
    a8e2:	0f 43       	clr	r15		
    a8e4:	08 3c       	jmp	$+18     	;abs 0xa8f6
    a8e6:	1f 53       	inc	r15		
    a8e8:	3e 50 0a 00 	add	#10,	r14	;#0x000a
    a8ec:	3f 90 05 00 	cmp	#5,	r15	;#0x0005
    a8f0:	02 20       	jnz	$+6      	;abs 0xa8f6
    a8f2:	80 00 18 ac 	bra	#0x0ac18	
    a8f6:	c1 4f 54 00 	mov.b	r15,	84(r1)	;0x0054(r1)
    a8fa:	de 93 00 00 	cmp.b	#1,	0(r14)	;r3 As==01, 0x0000(r14)
    a8fe:	f3 23       	jnz	$-24     	;abs 0xa8e6
    a900:	0e 4f       	mov	r15,	r14	
    a902:	5e 02       	rlam	#1,	r14	
    a904:	0d 4f       	mov	r15,	r13	
    a906:	5d 0a       	rlam	#3,	r13	
    a908:	0e 5d       	add	r13,	r14	
    a90a:	3e 50 cc 1d 	add	#7628,	r14	;#0x1dcc
    a90e:	91 4e 02 00 2a 00 	mov	2(r14),	42(r1)	;0x0002(r14), 0x002a(r1)
    a914:	91 4e 04 00 2c 00 	mov	4(r14),	44(r1)	;0x0004(r14), 0x002c(r1)
    a91a:	91 4e 06 00 62 00 	mov	6(r14),	98(r1)	;0x0006(r14), 0x0062(r1)
    a920:	91 4e 08 00 64 00 	mov	8(r14),	100(r1)	;0x0008(r14), 0x0064(r1)
    a926:	54 42 a6 20 	mov.b	&0x20a6,r4	
    a92a:	81 44 2e 00 	mov	r4,	46(r1)	;0x002e(r1)
    a92e:	4f 4f       	mov.b	r15,	r15	
    a930:	8f 11       	sxt	r15		
    a932:	1f 53       	inc	r15		
    a934:	05 4f       	mov	r15,	r5	
    a936:	55 02       	rlam	#1,	r5	
    a938:	5f 0a       	rlam	#3,	r15	
    a93a:	05 5f       	add	r15,	r5	
    a93c:	35 50 cc 1d 	add	#7628,	r5	;#0x1dcc
    a940:	81 45 24 00 	mov	r5,	36(r1)	;0x0024(r1)
    a944:	04 43       	clr	r4		
    a946:	05 43       	clr	r5		
    a948:	06 43       	clr	r6		
    a94a:	07 43       	clr	r7		
    a94c:	08 43       	clr	r8		
    a94e:	09 43       	clr	r9		
    a950:	0a 43       	clr	r10		
    a952:	0b 43       	clr	r11		
    a954:	81 43 5a 00 	mov	#0,	90(r1)	;r3 As==00, 0x005a(r1)
    a958:	81 43 5c 00 	mov	#0,	92(r1)	;r3 As==00, 0x005c(r1)
    a95c:	81 43 56 00 	mov	#0,	86(r1)	;r3 As==00, 0x0056(r1)
    a960:	81 43 58 00 	mov	#0,	88(r1)	;r3 As==00, 0x0058(r1)
    a964:	7a 3c       	jmp	$+246    	;abs 0xaa5a
    a966:	1c 41 24 00 	mov	36(r1),	r12	;0x0024(r1)
    a96a:	dc 93 00 00 	cmp.b	#1,	0(r12)	;r3 As==01, 0x0000(r12)
    a96e:	72 20       	jnz	$+230    	;abs 0xaa54
    a970:	1d 4c 02 00 	mov	2(r12),	r13	;0x0002(r12)
    a974:	1e 4c 04 00 	mov	4(r12),	r14	;0x0004(r12)
    a978:	1d 81 2a 00 	sub	42(r1),	r13	;0x002a(r1)
    a97c:	1e 71 2c 00 	subc	44(r1),	r14	;0x002c(r1)
    a980:	81 4d 30 00 	mov	r13,	48(r1)	;0x0030(r1)
    a984:	81 4e 32 00 	mov	r14,	50(r1)	;0x0032(r1)
    a988:	1c 41 2e 00 	mov	46(r1),	r12	;0x002e(r1)
    a98c:	0d 43       	clr	r13		
    a98e:	1e 41 30 00 	mov	48(r1),	r14	;0x0030(r1)
    a992:	1f 41 32 00 	mov	50(r1),	r15	;0x0032(r1)
    a996:	b0 12 1e af 	call	#0xaf1e	
    a99a:	81 4e 34 00 	mov	r14,	52(r1)	;0x0034(r1)
    a99e:	81 4f 36 00 	mov	r15,	54(r1)	;0x0036(r1)
    a9a2:	1f 41 36 00 	mov	54(r1),	r15	;0x0036(r1)
    a9a6:	8f 10       	swpb	r15		
    a9a8:	8f 11       	sxt	r15		
    a9aa:	8f 10       	swpb	r15		
    a9ac:	8f 11       	sxt	r15		
    a9ae:	81 4f 38 00 	mov	r15,	56(r1)	;0x0038(r1)
    a9b2:	81 4f 3a 00 	mov	r15,	58(r1)	;0x003a(r1)
    a9b6:	18 51 34 00 	add	52(r1),	r8	;0x0034(r1)
    a9ba:	19 61 36 00 	addc	54(r1),	r9	;0x0036(r1)
    a9be:	1a 61 38 00 	addc	56(r1),	r10	;0x0038(r1)
    a9c2:	1b 61 3a 00 	addc	58(r1),	r11	;0x003a(r1)
    a9c6:	1c 41 2e 00 	mov	46(r1),	r12	;0x002e(r1)
    a9ca:	0d 43       	clr	r13		
    a9cc:	1e 41 30 00 	mov	48(r1),	r14	;0x0030(r1)
    a9d0:	1f 41 32 00 	mov	50(r1),	r15	;0x0032(r1)
    a9d4:	b0 12 14 af 	call	#0xaf14	
    a9d8:	81 5e 56 00 	add	r14,	86(r1)	;0x0056(r1)
    a9dc:	81 6f 58 00 	addc	r15,	88(r1)	;0x0058(r1)
    a9e0:	1e 41 24 00 	mov	36(r1),	r14	;0x0024(r1)
    a9e4:	1c 4e 06 00 	mov	6(r14),	r12	;0x0006(r14)
    a9e8:	1d 4e 08 00 	mov	8(r14),	r13	;0x0008(r14)
    a9ec:	1c 81 62 00 	sub	98(r1),	r12	;0x0062(r1)
    a9f0:	1d 71 64 00 	subc	100(r1),r13	;0x0064(r1)
    a9f4:	81 4c 30 00 	mov	r12,	48(r1)	;0x0030(r1)
    a9f8:	81 4d 32 00 	mov	r13,	50(r1)	;0x0032(r1)
    a9fc:	1c 41 2e 00 	mov	46(r1),	r12	;0x002e(r1)
    aa00:	0d 43       	clr	r13		
    aa02:	1e 41 30 00 	mov	48(r1),	r14	;0x0030(r1)
    aa06:	1f 41 32 00 	mov	50(r1),	r15	;0x0032(r1)
    aa0a:	b0 12 1e af 	call	#0xaf1e	
    aa0e:	81 4e 3c 00 	mov	r14,	60(r1)	;0x003c(r1)
    aa12:	81 4f 3e 00 	mov	r15,	62(r1)	;0x003e(r1)
    aa16:	1f 41 3e 00 	mov	62(r1),	r15	;0x003e(r1)
    aa1a:	8f 10       	swpb	r15		
    aa1c:	8f 11       	sxt	r15		
    aa1e:	8f 10       	swpb	r15		
    aa20:	8f 11       	sxt	r15		
    aa22:	81 4f 40 00 	mov	r15,	64(r1)	;0x0040(r1)
    aa26:	81 4f 42 00 	mov	r15,	66(r1)	;0x0042(r1)
    aa2a:	14 51 3c 00 	add	60(r1),	r4	;0x003c(r1)
    aa2e:	15 61 3e 00 	addc	62(r1),	r5	;0x003e(r1)
    aa32:	16 61 40 00 	addc	64(r1),	r6	;0x0040(r1)
    aa36:	17 61 42 00 	addc	66(r1),	r7	;0x0042(r1)
    aa3a:	1c 41 2e 00 	mov	46(r1),	r12	;0x002e(r1)
    aa3e:	0d 43       	clr	r13		
    aa40:	1e 41 30 00 	mov	48(r1),	r14	;0x0030(r1)
    aa44:	1f 41 32 00 	mov	50(r1),	r15	;0x0032(r1)
    aa48:	b0 12 60 af 	call	#0xaf60	
    aa4c:	81 5e 5a 00 	add	r14,	90(r1)	;0x005a(r1)
    aa50:	81 6f 5c 00 	addc	r15,	92(r1)	;0x005c(r1)
    aa54:	b1 50 0a 00 24 00 	add	#10,	36(r1)	;#0x000a, 0x0024(r1)
    aa5a:	d1 53 54 00 	inc.b	84(r1)		;0x0054(r1)
    aa5e:	f1 90 05 00 54 00 	cmp.b	#5,	84(r1)	;#0x0005, 0x0054(r1)
    aa64:	80 23       	jnz	$-254    	;abs 0xa966
    aa66:	1c 41 2a 00 	mov	42(r1),	r12	;0x002a(r1)
    aa6a:	1d 41 2c 00 	mov	44(r1),	r13	;0x002c(r1)
    aa6e:	0c 58       	add	r8,	r12	
    aa70:	0d 69       	addc	r9,	r13	
    aa72:	81 4c 2a 00 	mov	r12,	42(r1)	;0x002a(r1)
    aa76:	81 4d 2c 00 	mov	r13,	44(r1)	;0x002c(r1)
    aa7a:	1c 41 2e 00 	mov	46(r1),	r12	;0x002e(r1)
    aa7e:	0d 43       	clr	r13		
    aa80:	1e 41 56 00 	mov	86(r1),	r14	;0x0056(r1)
    aa84:	1f 41 58 00 	mov	88(r1),	r15	;0x0058(r1)
    aa88:	b0 12 1e af 	call	#0xaf1e	
    aa8c:	81 5e 2a 00 	add	r14,	42(r1)	;0x002a(r1)
    aa90:	81 6f 2c 00 	addc	r15,	44(r1)	;0x002c(r1)
    aa94:	1d 41 62 00 	mov	98(r1),	r13	;0x0062(r1)
    aa98:	1e 41 64 00 	mov	100(r1),r14	;0x0064(r1)
    aa9c:	0d 54       	add	r4,	r13	
    aa9e:	0e 65       	addc	r5,	r14	
    aaa0:	81 4d 30 00 	mov	r13,	48(r1)	;0x0030(r1)
    aaa4:	81 4e 32 00 	mov	r14,	50(r1)	;0x0032(r1)
    aaa8:	1c 41 2e 00 	mov	46(r1),	r12	;0x002e(r1)
    aaac:	0d 43       	clr	r13		
    aaae:	1e 41 5a 00 	mov	90(r1),	r14	;0x005a(r1)
    aab2:	1f 41 5c 00 	mov	92(r1),	r15	;0x005c(r1)
    aab6:	b0 12 1e af 	call	#0xaf1e	
    aaba:	81 5e 30 00 	add	r14,	48(r1)	;0x0030(r1)
    aabe:	81 6f 32 00 	addc	r15,	50(r1)	;0x0032(r1)
    aac2:	0c 43       	clr	r12		
    aac4:	0d 43       	clr	r13		
    aac6:	0e 43       	clr	r14		
    aac8:	0f 43       	clr	r15		
    aaca:	08 43       	clr	r8		
    aacc:	09 43       	clr	r9		
    aace:	0a 43       	clr	r10		
    aad0:	0b 43       	clr	r11		
    aad2:	14 41 28 00 	mov	40(r1),	r4	;0x0028(r1)
    aad6:	d4 93 00 00 	cmp.b	#1,	0(r4)	;r3 As==01, 0x0000(r4)
    aada:	60 20       	jnz	$+194    	;abs 0xab9c
    aadc:	07 44       	mov	r4,	r7	
    aade:	15 44 02 00 	mov	2(r4),	r5	;0x0002(r4)
    aae2:	16 44 04 00 	mov	4(r4),	r6	;0x0004(r4)
    aae6:	15 81 2a 00 	sub	42(r1),	r5	;0x002a(r1)
    aaea:	16 71 2c 00 	subc	44(r1),	r6	;0x002c(r1)
    aaee:	81 45 34 00 	mov	r5,	52(r1)	;0x0034(r1)
    aaf2:	81 46 36 00 	mov	r6,	54(r1)	;0x0036(r1)
    aaf6:	06 44       	mov	r4,	r6	
    aaf8:	15 44 08 00 	mov	8(r4),	r5	;0x0008(r4)
    aafc:	14 44 06 00 	mov	6(r4),	r4	;0x0006(r4)
    ab00:	14 81 30 00 	sub	48(r1),	r4	;0x0030(r1)
    ab04:	15 71 32 00 	subc	50(r1),	r5	;0x0032(r1)
    ab08:	81 44 24 00 	mov	r4,	36(r1)	;0x0024(r1)
    ab0c:	81 45 26 00 	mov	r5,	38(r1)	;0x0026(r1)
    ab10:	02 12       	push	r2		
    ab12:	32 c2       	dint			
    ab14:	03 43       	nop			
    ab16:	92 41 36 00 d4 04 	mov	54(r1),	&0x04d4	;0x0036(r1)
    ab1c:	92 41 38 00 d6 04 	mov	56(r1),	&0x04d6	;0x0038(r1)
    ab22:	92 41 36 00 e0 04 	mov	54(r1),	&0x04e0	;0x0036(r1)
    ab28:	92 41 38 00 e2 04 	mov	56(r1),	&0x04e2	;0x0038(r1)
    ab2e:	91 42 e4 04 46 00 	mov	&0x04e4,70(r1)	;0x0046(r1)
    ab34:	91 42 e6 04 48 00 	mov	&0x04e6,72(r1)	;0x0048(r1)
    ab3a:	91 42 e8 04 4a 00 	mov	&0x04e8,74(r1)	;0x004a(r1)
    ab40:	91 42 ea 04 4c 00 	mov	&0x04ea,76(r1)	;0x004c(r1)
    ab46:	32 41       	pop	r2		
    ab48:	18 51 44 00 	add	68(r1),	r8	;0x0044(r1)
    ab4c:	19 61 46 00 	addc	70(r1),	r9	;0x0046(r1)
    ab50:	1a 61 48 00 	addc	72(r1),	r10	;0x0048(r1)
    ab54:	1b 61 4a 00 	addc	74(r1),	r11	;0x004a(r1)
    ab58:	02 12       	push	r2		
    ab5a:	32 c2       	dint			
    ab5c:	03 43       	nop			
    ab5e:	92 41 36 00 d4 04 	mov	54(r1),	&0x04d4	;0x0036(r1)
    ab64:	92 41 38 00 d6 04 	mov	56(r1),	&0x04d6	;0x0038(r1)
    ab6a:	82 44 e0 04 	mov	r4,	&0x04e0	
    ab6e:	82 45 e2 04 	mov	r5,	&0x04e2	
    ab72:	91 42 e4 04 4e 00 	mov	&0x04e4,78(r1)	;0x004e(r1)
    ab78:	91 42 e6 04 50 00 	mov	&0x04e6,80(r1)	;0x0050(r1)
    ab7e:	91 42 e8 04 52 00 	mov	&0x04e8,82(r1)	;0x0052(r1)
    ab84:	91 42 ea 04 54 00 	mov	&0x04ea,84(r1)	;0x0054(r1)
    ab8a:	32 41       	pop	r2		
    ab8c:	1c 51 4c 00 	add	76(r1),	r12	;0x004c(r1)
    ab90:	1d 61 4e 00 	addc	78(r1),	r13	;0x004e(r1)
    ab94:	1e 61 50 00 	addc	80(r1),	r14	;0x0050(r1)
    ab98:	1f 61 52 00 	addc	82(r1),	r15	;0x0052(r1)
    ab9c:	b1 50 0a 00 28 00 	add	#10,	40(r1)	;#0x000a, 0x0028(r1)
    aba2:	b1 90 fe 1d 28 00 	cmp	#7678,	40(r1)	;#0x1dfe, 0x0028(r1)
    aba8:	94 23       	jnz	$-214    	;abs 0xaad2
    abaa:	08 93       	tst	r8		
    abac:	06 20       	jnz	$+14     	;abs 0xabba
    abae:	09 93       	tst	r9		
    abb0:	04 20       	jnz	$+10     	;abs 0xabba
    abb2:	0a 93       	tst	r10		
    abb4:	02 20       	jnz	$+6      	;abs 0xabba
    abb6:	0b 93       	tst	r11		
    abb8:	14 24       	jz	$+42     	;abs 0xabe2
    abba:	b0 12 6a af 	call	#0xaf6a	
    abbe:	06 4e       	mov	r14,	r6	
    abc0:	07 4f       	mov	r15,	r7	
    abc2:	0c 48       	mov	r8,	r12	
    abc4:	0d 49       	mov	r9,	r13	
    abc6:	0e 4a       	mov	r10,	r14	
    abc8:	0f 4b       	mov	r11,	r15	
    abca:	b0 12 6a af 	call	#0xaf6a	
    abce:	0c 4e       	mov	r14,	r12	
    abd0:	0d 4f       	mov	r15,	r13	
    abd2:	0e 46       	mov	r6,	r14	
    abd4:	0f 47       	mov	r7,	r15	
    abd6:	b0 12 bc b2 	call	#0xb2bc	
    abda:	81 4e 5e 00 	mov	r14,	94(r1)	;0x005e(r1)
    abde:	81 4f 60 00 	mov	r15,	96(r1)	;0x0060(r1)
    abe2:	0f 42       	mov	r2,	r15	
    abe4:	32 c2       	dint			
    abe6:	03 43       	nop			
    abe8:	92 41 5e 00 ec 1c 	mov	94(r1),	&0x1cec	;0x005e(r1)
    abee:	92 41 60 00 ee 1c 	mov	96(r1),	&0x1cee	;0x0060(r1)
    abf4:	92 41 30 00 22 1d 	mov	48(r1),	&0x1d22	;0x0030(r1)
    abfa:	92 41 32 00 24 1d 	mov	50(r1),	&0x1d24	;0x0032(r1)
    ac00:	92 41 2a 00 8c 1c 	mov	42(r1),	&0x1c8c	;0x002a(r1)
    ac06:	92 41 2c 00 8e 1c 	mov	44(r1),	&0x1c8e	;0x002c(r1)
    ac0c:	d2 42 a6 20 bc 1d 	mov.b	&0x20a6,&0x1dbc	
    ac12:	3f f2       	and	#8,	r15	;r2 As==11
    ac14:	01 24       	jz	$+4      	;abs 0xac18
    ac16:	32 d2       	eint			
    ac18:	d2 c3 54 1d 	bic.b	#1,	&0x1d54	;r3 As==01
    ac1c:	80 00 aa ae 	bra	#0x0aeaa	
    ac20:	b0 12 0c 4d 	call	#0x4d0c	
    ac24:	0a 4e       	mov	r14,	r10	
    ac26:	0b 4f       	mov	r15,	r11	
    ac28:	81 4e 20 00 	mov	r14,	32(r1)	;0x0020(r1)
    ac2c:	81 4f 22 00 	mov	r15,	34(r1)	;0x0022(r1)
    ac30:	0f 41       	mov	r1,	r15	
    ac32:	3f 50 20 00 	add	#32,	r15	;#0x0020
    ac36:	b0 12 6c 5c 	call	#0x5c6c	
    ac3a:	1e 42 dc 1c 	mov	&0x1cdc,r14	
    ac3e:	1d 42 44 1c 	mov	&0x1c44,r13	
    ac42:	6f 4e       	mov.b	@r14,	r15	
    ac44:	8f 10       	swpb	r15		
    ac46:	5c 4e 01 00 	mov.b	1(r14),	r12	;0x0001(r14)
    ac4a:	0f dc       	bis	r12,	r15	
    ac4c:	0f 9d       	cmp	r13,	r15	
    ac4e:	1e 20       	jnz	$+62     	;abs 0xac8c
    ac50:	0e 4a       	mov	r10,	r14	
    ac52:	0f 4b       	mov	r11,	r15	
    ac54:	1e 82 8c 1c 	sub	&0x1c8c,r14	
    ac58:	1f 72 8e 1c 	subc	&0x1c8e,r15	
    ac5c:	3f 90 00 20 	cmp	#8192,	r15	;#0x2000
    ac60:	24 38       	jl	$+74     	;abs 0xacaa
    ac62:	0f 42       	mov	r2,	r15	
    ac64:	32 c2       	dint			
    ac66:	03 43       	nop			
    ac68:	82 4a 8c 1c 	mov	r10,	&0x1c8c	
    ac6c:	82 4b 8e 1c 	mov	r11,	&0x1c8e	
    ac70:	1c 41 20 00 	mov	32(r1),	r12	;0x0020(r1)
    ac74:	1d 41 22 00 	mov	34(r1),	r13	;0x0022(r1)
    ac78:	0c 8a       	sub	r10,	r12	
    ac7a:	0d 7b       	subc	r11,	r13	
    ac7c:	82 4c 22 1d 	mov	r12,	&0x1d22	
    ac80:	82 4d 24 1d 	mov	r13,	&0x1d24	
    ac84:	3f f2       	and	#8,	r15	;r2 As==11
    ac86:	11 24       	jz	$+36     	;abs 0xacaa
    ac88:	32 d2       	eint			
    ac8a:	0f 3c       	jmp	$+32     	;abs 0xacaa
    ac8c:	f2 90 05 00 06 1e 	cmp.b	#5,	&0x1e06	;#0x0005
    ac92:	0b 28       	jnc	$+24     	;abs 0xacaa
    ac94:	c2 43 06 1e 	mov.b	#0,	&0x1e06	;r3 As==00
    ac98:	ce 4d 01 00 	mov.b	r13,	1(r14)	;0x0001(r14)
    ac9c:	8d 10       	swpb	r13		
    ac9e:	ce 4d 00 00 	mov.b	r13,	0(r14)	;0x0000(r14)
    aca2:	1f 42 dc 1c 	mov	&0x1cdc,r15	
    aca6:	df 53 04 00 	inc.b	4(r15)		;0x0004(r15)
    acaa:	1d 41 20 00 	mov	32(r1),	r13	;0x0020(r1)
    acae:	1e 41 22 00 	mov	34(r1),	r14	;0x0022(r1)
    acb2:	1f 42 dc 1c 	mov	&0x1cdc,r15	
    acb6:	3f 50 05 00 	add	#5,	r15	;#0x0005
    acba:	b0 12 9c 49 	call	#0x499c	
    acbe:	c2 43 ce 1c 	mov.b	#0,	&0x1cce	;r3 As==00
    acc2:	e2 43 cf 1c 	mov.b	#2,	&0x1ccf	;r3 As==10
    acc6:	f2 90 03 00 bc 1d 	cmp.b	#3,	&0x1dbc	;#0x0003
    accc:	0d 2c       	jc	$+28     	;abs 0xace8
    acce:	1e 42 dc 1c 	mov	&0x1cdc,r14	
    acd2:	6f 4e       	mov.b	@r14,	r15	
    acd4:	8f 10       	swpb	r15		
    acd6:	5e 4e 01 00 	mov.b	1(r14),	r14	;0x0001(r14)
    acda:	0f de       	bis	r14,	r15	
    acdc:	1f 92 44 1c 	cmp	&0x1c44,r15	
    ace0:	03 24       	jz	$+8      	;abs 0xace8
    ace2:	d2 53 06 1e 	inc.b	&0x1e06	
    ace6:	21 3c       	jmp	$+68     	;abs 0xad2a
    ace8:	b0 12 0c 4d 	call	#0x4d0c	
    acec:	08 4e       	mov	r14,	r8	
    acee:	09 4f       	mov	r15,	r9	
    acf0:	b0 12 f6 5e 	call	#0x5ef6	
    acf4:	0a 88       	sub	r8,	r10	
    acf6:	0b 79       	subc	r9,	r11	
    acf8:	0c 4a       	mov	r10,	r12	
    acfa:	0d 4b       	mov	r11,	r13	
    acfc:	4d ea       	xor.b	r10,	r13	
    acfe:	0d ea       	xor	r10,	r13	
    ad00:	8d 10       	swpb	r13		
    ad02:	4c 4c       	mov.b	r12,	r12	
    ad04:	8c 10       	swpb	r12		
    ad06:	0c 5c       	rla	r12		
    ad08:	0d 6d       	rlc	r13		
    ad0a:	0c 5c       	rla	r12		
    ad0c:	0d 6d       	rlc	r13		
    ad0e:	0c 5e       	add	r14,	r12	
    ad10:	0d 6f       	addc	r15,	r13	
    ad12:	1d 15       	pushm	#2,	r13	
    ad14:	7d 40 09 00 	mov.b	#9,	r13	;#0x0009
    ad18:	3e 40 90 1c 	mov	#7312,	r14	;#0x1c90
    ad1c:	7f 40 3e 00 	mov.b	#62,	r15	;#0x003e
    ad20:	b0 12 8c 65 	call	#0x658c	
    ad24:	21 52       	add	#4,	r1	;r2 As==10
    ad26:	0f 93       	tst	r15		
    ad28:	c0 24       	jz	$+386    	;abs 0xaeaa
    ad2a:	e2 c3 54 1d 	bic.b	#2,	&0x1d54	;r3 As==10
    ad2e:	bd 3c       	jmp	$+380    	;abs 0xaeaa
    ad30:	c2 93 5a 21 	tst.b	&0x215a	
    ad34:	ba 24       	jz	$+374    	;abs 0xaeaa
    ad36:	3a 40 6c 1e 	mov	#7788,	r10	;#0x1e6c
    ad3a:	4b 43       	clr.b	r11		
    ad3c:	59 43       	mov.b	#1,	r9	;r3 As==01
    ad3e:	5e 42 5a 21 	mov.b	&0x215a,r14	
    ad42:	49 be       	bit.b	r14,	r9	
    ad44:	0c 24       	jz	$+26     	;abs 0xad5e
    ad46:	2f 4a       	mov	@r10,	r15	
    ad48:	8a 43 00 00 	mov	#0,	0(r10)	;r3 As==00, 0x0000(r10)
    ad4c:	4e c9       	bic.b	r9,	r14	
    ad4e:	c2 4e 5a 21 	mov.b	r14,	&0x215a	
    ad52:	4b 93       	tst.b	r11		
    ad54:	04 20       	jnz	$+10     	;abs 0xad5e
    ad56:	3e 40 03 00 	mov	#3,	r14	;#0x0003
    ad5a:	b0 12 a6 5a 	call	#0x5aa6	
    ad5e:	49 59       	rla.b	r9		
    ad60:	5b 53       	inc.b	r11		
    ad62:	2a 53       	incd	r10		
    ad64:	7b 92       	cmp.b	#8,	r11	;r2 As==11
    ad66:	eb 23       	jnz	$-40     	;abs 0xad3e
    ad68:	a0 3c       	jmp	$+322    	;abs 0xaeaa
    ad6a:	5b 42 03 1c 	mov.b	&0x1c03,r11	
    ad6e:	4e 4b       	mov.b	r11,	r14	
    ad70:	5e 02       	rlam	#1,	r14	
    ad72:	3e 50 6c 1e 	add	#7788,	r14	;#0x1e6c
    ad76:	2a 4e       	mov	@r14,	r10	
    ad78:	8e 43 00 00 	mov	#0,	0(r14)	;r3 As==00, 0x0000(r14)
    ad7c:	b0 12 18 65 	call	#0x6518	
    ad80:	4b 93       	tst.b	r11		
    ad82:	93 20       	jnz	$+296    	;abs 0xaeaa
    ad84:	1e 43       	mov	#1,	r14	;r3 As==01
    ad86:	0f 4a       	mov	r10,	r15	
    ad88:	b0 12 a6 5a 	call	#0x5aa6	
    ad8c:	8e 3c       	jmp	$+286    	;abs 0xaeaa
    ad8e:	c2 93 85 20 	tst.b	&0x2085	
    ad92:	03 20       	jnz	$+8      	;abs 0xad9a
    ad94:	4f 43       	clr.b	r15		
    ad96:	b0 12 2e 5a 	call	#0x5a2e	
    ad9a:	1e 42 5c 21 	mov	&0x215c,r14	
    ad9e:	c2 93 85 20 	tst.b	&0x2085	
    ada2:	83 20       	jnz	$+264    	;abs 0xaeaa
    ada4:	0f 43       	clr	r15		
    ada6:	b0 12 c4 63 	call	#0x63c4	
    adaa:	7f 3c       	jmp	$+256    	;abs 0xaeaa
    adac:	0f 42       	mov	r2,	r15	
    adae:	32 c2       	dint			
    adb0:	03 43       	nop			
    adb2:	d2 42 ca 1d 02 1c 	mov.b	&0x1dca,&0x1c02	
    adb8:	e2 43 46 1c 	mov.b	#2,	&0x1c46	;r3 As==10
    adbc:	3f f2       	and	#8,	r15	;r2 As==11
    adbe:	01 24       	jz	$+4      	;abs 0xadc2
    adc0:	32 d2       	eint			
    adc2:	5f 42 02 1c 	mov.b	&0x1c02,r15	
    adc6:	5f 93       	cmp.b	#1,	r15	;r3 As==01
    adc8:	06 24       	jz	$+14     	;abs 0xadd6
    adca:	03 28       	jnc	$+8      	;abs 0xadd2
    adcc:	6f 93       	cmp.b	#2,	r15	;r3 As==10
    adce:	6d 20       	jnz	$+220    	;abs 0xaeaa
    add0:	04 3c       	jmp	$+10     	;abs 0xadda
    add2:	4f 43       	clr.b	r15		
    add4:	03 3c       	jmp	$+8      	;abs 0xaddc
    add6:	5f 43       	mov.b	#1,	r15	;r3 As==01
    add8:	01 3c       	jmp	$+4      	;abs 0xaddc
    adda:	6f 43       	mov.b	#2,	r15	;r3 As==10
    addc:	b0 12 62 96 	call	#0x9662	
    ade0:	64 3c       	jmp	$+202    	;abs 0xaeaa
    ade2:	f2 93 01 1c 	cmp.b	#-1,	&0x1c01	;r3 As==11
    ade6:	61 24       	jz	$+196    	;abs 0xaeaa
    ade8:	c2 93 fa 20 	tst.b	&0x20fa	
    adec:	03 24       	jz	$+8      	;abs 0xadf4
    adee:	3f 40 06 00 	mov	#6,	r15	;#0x0006
    adf2:	02 3c       	jmp	$+6      	;abs 0xadf8
    adf4:	3f 40 05 00 	mov	#5,	r15	;#0x0005
    adf8:	b0 12 24 95 	call	#0x9524	
    adfc:	0f 93       	tst	r15		
    adfe:	03 20       	jnz	$+8      	;abs 0xae06
    ae00:	f2 43 01 1c 	mov.b	#-1,	&0x1c01	;r3 As==11
    ae04:	52 3c       	jmp	$+166    	;abs 0xaeaa
    ae06:	7f 40 1f 00 	mov.b	#31,	r15	;#0x001f
    ae0a:	b0 12 62 4d 	call	#0x4d62	
    ae0e:	4d 3c       	jmp	$+156    	;abs 0xaeaa
    ae10:	5d 42 00 1c 	mov.b	&0x1c00,r13	
    ae14:	0e 42       	mov	r2,	r14	
    ae16:	32 c2       	dint			
    ae18:	03 43       	nop			
    ae1a:	4f 4d       	mov.b	r13,	r15	
    ae1c:	5f 02       	rlam	#1,	r15	
    ae1e:	0c 4f       	mov	r15,	r12	
    ae20:	3c 50 e2 1c 	add	#7394,	r12	;#0x1ce2
    ae24:	8c 43 00 00 	mov	#0,	0(r12)	;r3 As==00, 0x0000(r12)
    ae28:	8f 4c 4c 21 	mov	r12,	8524(r15);0x214c(r15)
    ae2c:	3e f2       	and	#8,	r14	;r2 As==11
    ae2e:	22 24       	jz	$+70     	;abs 0xae74
    ae30:	20 3c       	jmp	$+66     	;abs 0xae72
    ae32:	5d 42 00 1c 	mov.b	&0x1c00,r13	
    ae36:	0e 42       	mov	r2,	r14	
    ae38:	32 c2       	dint			
    ae3a:	03 43       	nop			
    ae3c:	4c 4d       	mov.b	r13,	r12	
    ae3e:	0f 4c       	mov	r12,	r15	
    ae40:	5f 02       	rlam	#1,	r15	
    ae42:	1f 4f e2 1c 	mov	7394(r15),r15	;0x1ce2(r15)
    ae46:	3e f2       	and	#8,	r14	;r2 As==11
    ae48:	04 24       	jz	$+10     	;abs 0xae52
    ae4a:	32 d2       	eint			
    ae4c:	02 3c       	jmp	$+6      	;abs 0xae52
    ae4e:	1f 4f 02 00 	mov	2(r15),	r15	;0x0002(r15)
    ae52:	0f 93       	tst	r15		
    ae54:	fc 23       	jnz	$-6      	;abs 0xae4e
    ae56:	0f 42       	mov	r2,	r15	
    ae58:	32 c2       	dint			
    ae5a:	03 43       	nop			
    ae5c:	0e 4c       	mov	r12,	r14	
    ae5e:	5e 02       	rlam	#1,	r14	
    ae60:	0c 4e       	mov	r14,	r12	
    ae62:	3c 50 e2 1c 	add	#7394,	r12	;#0x1ce2
    ae66:	8c 43 00 00 	mov	#0,	0(r12)	;r3 As==00, 0x0000(r12)
    ae6a:	8e 4c 4c 21 	mov	r12,	8524(r14);0x214c(r14)
    ae6e:	3f f2       	and	#8,	r15	;r2 As==11
    ae70:	01 24       	jz	$+4      	;abs 0xae74
    ae72:	32 d2       	eint			
    ae74:	d2 43 00 1c 	mov.b	#1,	&0x1c00	;r3 As==01
    ae78:	4d 93       	tst.b	r13		
    ae7a:	17 20       	jnz	$+48     	;abs 0xaeaa
    ae7c:	5f 43       	mov.b	#1,	r15	;r3 As==01
    ae7e:	b0 12 2e 5a 	call	#0x5a2e	
    ae82:	13 3c       	jmp	$+40     	;abs 0xaeaa
    ae84:	0f 42       	mov	r2,	r15	
    ae86:	32 c2       	dint			
    ae88:	03 43       	nop			
    ae8a:	82 43 5a 1d 	mov	#0,	&0x1d5a	;r3 As==00
    ae8e:	80 00 f8 96 	bra	#0x096f8	
    ae92:	c2 43 2a 1c 	mov.b	#0,	&0x1c2a	;r3 As==00
    ae96:	80 00 2a a1 	bra	#0x0a12a	
    ae9a:	c2 43 2a 1c 	mov.b	#0,	&0x1c2a	;r3 As==00
    ae9e:	80 00 1e a7 	bra	#0x0a71e	
    aea2:	3b 40 09 00 	mov	#9,	r11	;#0x0009
    aea6:	80 00 78 9c 	bra	#0x09c78	
    aeaa:	31 50 66 00 	add	#102,	r1	;#0x0066
    aeae:	74 17       	popm	#8,	r11	
    aeb0:	30 41       	ret			

0000aeb2 <__nesc_atomic_start>:
    aeb2:	0f 42       	mov	r2,	r15	
    aeb4:	32 c2       	dint			
    aeb6:	03 43       	nop			
    aeb8:	3f f2       	and	#8,	r15	;r2 As==11
    aeba:	30 41       	ret			

0000aebc <__nesc_atomic_end>:
    aebc:	0f 93       	tst	r15		
    aebe:	01 24       	jz	$+4      	;abs 0xaec2
    aec0:	32 d2       	eint			
    aec2:	30 41       	ret			

0000aec4 <__udivhi3>:
    aec4:	7c 40 10 00 	mov.b	#16,	r12	;#0x0010
    aec8:	0d 4e       	mov	r14,	r13	
    aeca:	0e 43       	clr	r14		
    aecc:	0f 5f       	rla	r15		
    aece:	0e 6e       	rlc	r14		
    aed0:	0e 9d       	cmp	r13,	r14	
    aed2:	02 28       	jnc	$+6      	;abs 0xaed8
    aed4:	0e 8d       	sub	r13,	r14	
    aed6:	1f d3       	bis	#1,	r15	;r3 As==01
    aed8:	1c 83       	dec	r12		
    aeda:	f8 23       	jnz	$-14     	;abs 0xaecc
    aedc:	30 41       	ret			

0000aede <__umodhi3>:
    aede:	b0 12 c4 ae 	call	#0xaec4	
    aee2:	0f 4e       	mov	r14,	r15	
    aee4:	30 41       	ret			

0000aee6 <__udivsi3>:
    aee6:	2b 15       	pushm	#3,	r11	
    aee8:	79 40 20 00 	mov.b	#32,	r9	;#0x0020
    aeec:	0a 4c       	mov	r12,	r10	
    aeee:	0b 4d       	mov	r13,	r11	
    aef0:	0c 43       	clr	r12		
    aef2:	0d 43       	clr	r13		
    aef4:	0e 5e       	rla	r14		
    aef6:	0f 6f       	rlc	r15		
    aef8:	0c 6c       	rlc	r12		
    aefa:	0d 6d       	rlc	r13		
    aefc:	0d 9b       	cmp	r11,	r13	
    aefe:	06 28       	jnc	$+14     	;abs 0xaf0c
    af00:	02 20       	jnz	$+6      	;abs 0xaf06
    af02:	0c 9a       	cmp	r10,	r12	
    af04:	03 28       	jnc	$+8      	;abs 0xaf0c
    af06:	0c 8a       	sub	r10,	r12	
    af08:	0d 7b       	subc	r11,	r13	
    af0a:	1e d3       	bis	#1,	r14	;r3 As==01
    af0c:	19 83       	dec	r9		
    af0e:	f2 23       	jnz	$-26     	;abs 0xaef4
    af10:	29 17       	popm	#3,	r11	
    af12:	30 41       	ret			

0000af14 <__umodsi3>:
    af14:	b0 12 e6 ae 	call	#0xaee6	
    af18:	0e 4c       	mov	r12,	r14	
    af1a:	0f 4d       	mov	r13,	r15	
    af1c:	30 41       	ret			

0000af1e <__divsi3>:
    af1e:	0b 12       	push	r11		
    af20:	0b 43       	clr	r11		
    af22:	0f 93       	tst	r15		
    af24:	06 34       	jge	$+14     	;abs 0xaf32
    af26:	3b 40 03 00 	mov	#3,	r11	;#0x0003
    af2a:	3e e3       	inv	r14		
    af2c:	3f e3       	inv	r15		
    af2e:	1e 53       	inc	r14		
    af30:	0f 63       	adc	r15		
    af32:	0d 93       	tst	r13		
    af34:	05 34       	jge	$+12     	;abs 0xaf40
    af36:	5b e3       	xor.b	#1,	r11	;r3 As==01
    af38:	3c e3       	inv	r12		
    af3a:	3d e3       	inv	r13		
    af3c:	1c 53       	inc	r12		
    af3e:	0d 63       	adc	r13		
    af40:	b0 12 e6 ae 	call	#0xaee6	
    af44:	6b b3       	bit.b	#2,	r11	;r3 As==10
    af46:	04 24       	jz	$+10     	;abs 0xaf50
    af48:	3c e3       	inv	r12		
    af4a:	3d e3       	inv	r13		
    af4c:	1c 53       	inc	r12		
    af4e:	0d 63       	adc	r13		
    af50:	5b b3       	bit.b	#1,	r11	;r3 As==01
    af52:	04 24       	jz	$+10     	;abs 0xaf5c
    af54:	3e e3       	inv	r14		
    af56:	3f e3       	inv	r15		
    af58:	1e 53       	inc	r14		
    af5a:	0f 63       	adc	r15		
    af5c:	3b 41       	pop	r11		
    af5e:	30 41       	ret			

0000af60 <__modsi3>:
    af60:	b0 12 1e af 	call	#0xaf1e	
    af64:	0e 4c       	mov	r12,	r14	
    af66:	0f 4d       	mov	r13,	r15	
    af68:	30 41       	ret			

0000af6a <__floatdisf>:
    af6a:	7b 15       	pushm	#8,	r11	
    af6c:	21 82       	sub	#4,	r1	;r2 As==10
    af6e:	0a 4c       	mov	r12,	r10	
    af70:	09 4d       	mov	r13,	r9	
    af72:	08 4c       	mov	r12,	r8	
    af74:	0b 4d       	mov	r13,	r11	
    af76:	8b 10       	swpb	r11		
    af78:	8b 11       	sxt	r11		
    af7a:	8b 10       	swpb	r11		
    af7c:	8b 11       	sxt	r11		
    af7e:	0c 9c       	cmp	r12,	r12	
    af80:	99 24       	jz	$+308    	;abs 0xb0b4
    af82:	0a 4e       	mov	r14,	r10	
    af84:	0b 4f       	mov	r15,	r11	
    af86:	0f 93       	tst	r15		
    af88:	69 38       	jl	$+212    	;abs 0xb05c
    af8a:	1b 93       	cmp	#1,	r11	;r3 As==01
    af8c:	5a 28       	jnc	$+182    	;abs 0xb042
    af8e:	3b 90 00 01 	cmp	#256,	r11	;#0x0100
    af92:	69 2c       	jc	$+212    	;abs 0xb066
    af94:	39 40 10 00 	mov	#16,	r9	;#0x0010
    af98:	36 40 10 00 	mov	#16,	r6	;#0x0010
    af9c:	07 43       	clr	r7		
    af9e:	49 49       	mov.b	r9,	r9	
    afa0:	49 93       	tst.b	r9		
    afa2:	05 24       	jz	$+12     	;abs 0xafae
    afa4:	12 c3       	clrc			
    afa6:	0b 10       	rrc	r11		
    afa8:	0a 10       	rrc	r10		
    afaa:	79 53       	add.b	#-1,	r9	;r3 As==11
    afac:	fb 23       	jnz	$-8      	;abs 0xafa4
    afae:	3a 50 48 c2 	add	#-15800,r10	;#0xc248
    afb2:	68 4a       	mov.b	@r10,	r8	
    afb4:	09 43       	clr	r9		
    afb6:	08 56       	add	r6,	r8	
    afb8:	09 67       	addc	r7,	r9	
    afba:	38 90 20 00 	cmp	#32,	r8	;#0x0020
    afbe:	66 24       	jz	$+206    	;abs 0xb08c
    afc0:	06 48       	mov	r8,	r6	
    afc2:	07 49       	mov	r9,	r7	
    afc4:	16 53       	inc	r6		
    afc6:	07 63       	adc	r7		
    afc8:	05 46       	mov	r6,	r5	
    afca:	44 46       	mov.b	r6,	r4	
    afcc:	74 f0 3f 00 	and.b	#63,	r4	;#0x003f
    afd0:	08 4c       	mov	r12,	r8	
    afd2:	09 4d       	mov	r13,	r9	
    afd4:	0a 4e       	mov	r14,	r10	
    afd6:	0b 4f       	mov	r15,	r11	
    afd8:	06 24       	jz	$+14     	;abs 0xafe6
    afda:	0b 11       	rra	r11		
    afdc:	0a 10       	rrc	r10		
    afde:	09 10       	rrc	r9		
    afe0:	08 10       	rrc	r8		
    afe2:	74 53       	add.b	#-1,	r4	;r3 As==11
    afe4:	fa 23       	jnz	$-10     	;abs 0xafda
    afe6:	34 40 20 00 	mov	#32,	r4	;#0x0020
    afea:	44 86       	sub.b	r6,	r4	
    afec:	74 f0 1f 00 	and.b	#31,	r4	;#0x001f
    aff0:	81 4c 00 00 	mov	r12,	0(r1)	;0x0000(r1)
    aff4:	81 4d 02 00 	mov	r13,	2(r1)	;0x0002(r1)
    aff8:	0e 4c       	mov	r12,	r14	
    affa:	0f 4d       	mov	r13,	r15	
    affc:	3a 20       	jnz	$+118    	;abs 0xb072
    affe:	0e 93       	tst	r14		
    b000:	3d 24       	jz	$+124    	;abs 0xb07c
    b002:	18 d3       	bis	#1,	r8	;r3 As==01
    b004:	09 d3       	bis	#0,	r9	;r3 As==00
    b006:	0a d3       	bis	#0,	r10	;r3 As==00
    b008:	0b d3       	bis	#0,	r11	;r3 As==00
    b00a:	0e 48       	mov	r8,	r14	
    b00c:	0f 49       	mov	r9,	r15	
    b00e:	b0 12 9a b4 	call	#0xb49a	
    b012:	0a 4e       	mov	r14,	r10	
    b014:	0b 4f       	mov	r15,	r11	
    b016:	36 90 20 00 	cmp	#32,	r6	;#0x0020
    b01a:	40 24       	jz	$+130    	;abs 0xb09c
    b01c:	36 90 1f 00 	cmp	#31,	r6	;#0x001f
    b020:	43 24       	jz	$+136    	;abs 0xb0a8
    b022:	75 f0 1f 00 	and.b	#31,	r5	;#0x001f
    b026:	1e 43       	mov	#1,	r14	;r3 As==01
    b028:	0f 43       	clr	r15		
    b02a:	2b 20       	jnz	$+88     	;abs 0xb082
    b02c:	b0 12 9a b4 	call	#0xb49a	
    b030:	0c 4e       	mov	r14,	r12	
    b032:	0d 4f       	mov	r15,	r13	
    b034:	0e 4a       	mov	r10,	r14	
    b036:	0f 4b       	mov	r11,	r15	
    b038:	b0 12 ca b0 	call	#0xb0ca	
    b03c:	21 52       	add	#4,	r1	;r2 As==10
    b03e:	74 17       	popm	#8,	r11	
    b040:	30 41       	ret			
    b042:	1b 93       	cmp	#1,	r11	;r3 As==01
    b044:	07 2c       	jc	$+16     	;abs 0xb054
    b046:	3a 90 00 01 	cmp	#256,	r10	;#0x0100
    b04a:	04 2c       	jc	$+10     	;abs 0xb054
    b04c:	09 43       	clr	r9		
    b04e:	06 43       	clr	r6		
    b050:	07 43       	clr	r7		
    b052:	a5 3f       	jmp	$-180    	;abs 0xaf9e
    b054:	39 42       	mov	#8,	r9	;r2 As==11
    b056:	36 42       	mov	#8,	r6	;r2 As==11
    b058:	07 43       	clr	r7		
    b05a:	a1 3f       	jmp	$-188    	;abs 0xaf9e
    b05c:	3a e3       	inv	r10		
    b05e:	3b e3       	inv	r11		
    b060:	1a 53       	inc	r10		
    b062:	0b 63       	adc	r11		
    b064:	92 3f       	jmp	$-218    	;abs 0xaf8a
    b066:	39 40 18 00 	mov	#24,	r9	;#0x0018
    b06a:	36 40 18 00 	mov	#24,	r6	;#0x0018
    b06e:	07 43       	clr	r7		
    b070:	96 3f       	jmp	$-210    	;abs 0xaf9e
    b072:	0e 5e       	rla	r14		
    b074:	0f 6f       	rlc	r15		
    b076:	74 53       	add.b	#-1,	r4	;r3 As==11
    b078:	fc 23       	jnz	$-6      	;abs 0xb072
    b07a:	c1 3f       	jmp	$-124    	;abs 0xaffe
    b07c:	0f 93       	tst	r15		
    b07e:	c1 23       	jnz	$-124    	;abs 0xb002
    b080:	c4 3f       	jmp	$-118    	;abs 0xb00a
    b082:	0e 5e       	rla	r14		
    b084:	0f 6f       	rlc	r15		
    b086:	75 53       	add.b	#-1,	r5	;r3 As==11
    b088:	fc 23       	jnz	$-6      	;abs 0xb082
    b08a:	d0 3f       	jmp	$-94     	;abs 0xb02c
    b08c:	09 93       	tst	r9		
    b08e:	98 23       	jnz	$-206    	;abs 0xafc0
    b090:	0e 43       	clr	r14		
    b092:	3f 40 00 df 	mov	#-8448,	r15	;#0xdf00
    b096:	21 52       	add	#4,	r1	;r2 As==10
    b098:	74 17       	popm	#8,	r11	
    b09a:	30 41       	ret			
    b09c:	07 93       	tst	r7		
    b09e:	be 23       	jnz	$-130    	;abs 0xb01c
    b0a0:	0c 43       	clr	r12		
    b0a2:	3d 40 80 4f 	mov	#20352,	r13	;#0x4f80
    b0a6:	c6 3f       	jmp	$-114    	;abs 0xb034
    b0a8:	07 93       	tst	r7		
    b0aa:	bb 23       	jnz	$-136    	;abs 0xb022
    b0ac:	0c 43       	clr	r12		
    b0ae:	3d 40 00 4f 	mov	#20224,	r13	;#0x4f00
    b0b2:	c0 3f       	jmp	$-126    	;abs 0xb034
    b0b4:	0b 9e       	cmp	r14,	r11	
    b0b6:	65 23       	jnz	$-308    	;abs 0xaf82
    b0b8:	0b 9f       	cmp	r15,	r11	
    b0ba:	63 23       	jnz	$-312    	;abs 0xaf82
    b0bc:	0e 4c       	mov	r12,	r14	
    b0be:	0f 4d       	mov	r13,	r15	
    b0c0:	b0 12 9a b4 	call	#0xb49a	
    b0c4:	21 52       	add	#4,	r1	;r2 As==10
    b0c6:	74 17       	popm	#8,	r11	
    b0c8:	30 41       	ret			

0000b0ca <__mulsf3>:
    b0ca:	7b 15       	pushm	#8,	r11	
    b0cc:	31 50 de ff 	add	#-34,	r1	;#0xffde
    b0d0:	81 4e 1c 00 	mov	r14,	28(r1)	;0x001c(r1)
    b0d4:	81 4f 1e 00 	mov	r15,	30(r1)	;0x001e(r1)
    b0d8:	81 4c 18 00 	mov	r12,	24(r1)	;0x0018(r1)
    b0dc:	81 4d 1a 00 	mov	r13,	26(r1)	;0x001a(r1)
    b0e0:	0e 41       	mov	r1,	r14	
    b0e2:	3e 50 10 00 	add	#16,	r14	;#0x0010
    b0e6:	0f 41       	mov	r1,	r15	
    b0e8:	3f 50 1c 00 	add	#28,	r15	;#0x001c
    b0ec:	b0 12 e0 b8 	call	#0xb8e0	
    b0f0:	0e 41       	mov	r1,	r14	
    b0f2:	3e 52       	add	#8,	r14	;r2 As==11
    b0f4:	0f 41       	mov	r1,	r15	
    b0f6:	3f 50 18 00 	add	#24,	r15	;#0x0018
    b0fa:	b0 12 e0 b8 	call	#0xb8e0	
    b0fe:	5f 41 10 00 	mov.b	16(r1),	r15	;0x0010(r1)
    b102:	6f 93       	cmp.b	#2,	r15	;r3 As==10
    b104:	10 2c       	jc	$+34     	;abs 0xb126
    b106:	5f 43       	mov.b	#1,	r15	;r3 As==01
    b108:	d1 91 09 00 11 00 	cmp.b	9(r1),	17(r1)	;0x0009(r1), 0x0011(r1)
    b10e:	1e 24       	jz	$+62     	;abs 0xb14c
    b110:	c1 4f 11 00 	mov.b	r15,	17(r1)	;0x0011(r1)
    b114:	0f 41       	mov	r1,	r15	
    b116:	3f 50 10 00 	add	#16,	r15	;#0x0010
    b11a:	b0 12 18 b7 	call	#0xb718	
    b11e:	31 50 22 00 	add	#34,	r1	;#0x0022
    b122:	74 17       	popm	#8,	r11	
    b124:	30 41       	ret			
    b126:	5e 41 08 00 	mov.b	8(r1),	r14	;0x0008(r1)
    b12a:	6e 93       	cmp.b	#2,	r14	;r3 As==10
    b12c:	13 2c       	jc	$+40     	;abs 0xb154
    b12e:	5f 43       	mov.b	#1,	r15	;r3 As==01
    b130:	d1 91 09 00 11 00 	cmp.b	9(r1),	17(r1)	;0x0009(r1), 0x0011(r1)
    b136:	0c 24       	jz	$+26     	;abs 0xb150
    b138:	c1 4f 09 00 	mov.b	r15,	9(r1)	;0x0009(r1)
    b13c:	0f 41       	mov	r1,	r15	
    b13e:	3f 52       	add	#8,	r15	;r2 As==11
    b140:	b0 12 18 b7 	call	#0xb718	
    b144:	31 50 22 00 	add	#34,	r1	;#0x0022
    b148:	74 17       	popm	#8,	r11	
    b14a:	30 41       	ret			
    b14c:	4f 43       	clr.b	r15		
    b14e:	e0 3f       	jmp	$-62     	;abs 0xb110
    b150:	4f 43       	clr.b	r15		
    b152:	f2 3f       	jmp	$-26     	;abs 0xb138
    b154:	6f 92       	cmp.b	#4,	r15	;r2 As==10
    b156:	05 20       	jnz	$+12     	;abs 0xb162
    b158:	6e 93       	cmp.b	#2,	r14	;r3 As==10
    b15a:	d5 23       	jnz	$-84     	;abs 0xb106
    b15c:	3f 40 40 c2 	mov	#-15808,r15	;#0xc240
    b160:	dc 3f       	jmp	$-70     	;abs 0xb11a
    b162:	6e 92       	cmp.b	#4,	r14	;r2 As==10
    b164:	03 20       	jnz	$+8      	;abs 0xb16c
    b166:	6f 93       	cmp.b	#2,	r15	;r3 As==10
    b168:	f9 27       	jz	$-12     	;abs 0xb15c
    b16a:	e1 3f       	jmp	$-60     	;abs 0xb12e
    b16c:	6f 93       	cmp.b	#2,	r15	;r3 As==10
    b16e:	cb 27       	jz	$-104    	;abs 0xb106
    b170:	6e 93       	cmp.b	#2,	r14	;r3 As==10
    b172:	dd 27       	jz	$-68     	;abs 0xb12e
    b174:	16 41 14 00 	mov	20(r1),	r6	;0x0014(r1)
    b178:	17 41 16 00 	mov	22(r1),	r7	;0x0016(r1)
    b17c:	1e 41 0c 00 	mov	12(r1),	r14	;0x000c(r1)
    b180:	1f 41 0e 00 	mov	14(r1),	r15	;0x000e(r1)
    b184:	b1 40 20 00 20 00 	mov	#32,	32(r1)	;#0x0020, 0x0020(r1)
    b18a:	0c 43       	clr	r12		
    b18c:	0d 43       	clr	r13		
    b18e:	08 43       	clr	r8		
    b190:	09 43       	clr	r9		
    b192:	0a 43       	clr	r10		
    b194:	0b 43       	clr	r11		
    b196:	08 3c       	jmp	$+18     	;abs 0xb1a8
    b198:	0e 5e       	rla	r14		
    b19a:	0f 6f       	rlc	r15		
    b19c:	12 c3       	clrc			
    b19e:	07 10       	rrc	r7		
    b1a0:	06 10       	rrc	r6		
    b1a2:	b1 53 20 00 	add	#-1,	32(r1)	;r3 As==11, 0x0020(r1)
    b1a6:	1f 24       	jz	$+64     	;abs 0xb1e6
    b1a8:	04 46       	mov	r6,	r4	
    b1aa:	05 47       	mov	r7,	r5	
    b1ac:	14 f3       	and	#1,	r4	;r3 As==01
    b1ae:	05 f3       	and	#0,	r5	;r3 As==00
    b1b0:	04 93       	tst	r4		
    b1b2:	02 20       	jnz	$+6      	;abs 0xb1b8
    b1b4:	05 93       	tst	r5		
    b1b6:	0d 24       	jz	$+28     	;abs 0xb1d2
    b1b8:	0a 5e       	add	r14,	r10	
    b1ba:	0b 6f       	addc	r15,	r11	
    b1bc:	0c 58       	add	r8,	r12	
    b1be:	0d 69       	addc	r9,	r13	
    b1c0:	14 43       	mov	#1,	r4	;r3 As==01
    b1c2:	05 43       	clr	r5		
    b1c4:	0b 9f       	cmp	r15,	r11	
    b1c6:	03 28       	jnc	$+8      	;abs 0xb1ce
    b1c8:	0b 24       	jz	$+24     	;abs 0xb1e0
    b1ca:	04 43       	clr	r4		
    b1cc:	05 43       	clr	r5		
    b1ce:	0c 54       	add	r4,	r12	
    b1d0:	0d 65       	addc	r5,	r13	
    b1d2:	08 58       	rla	r8		
    b1d4:	09 69       	rlc	r9		
    b1d6:	0f 93       	tst	r15		
    b1d8:	df 37       	jge	$-64     	;abs 0xb198
    b1da:	18 d3       	bis	#1,	r8	;r3 As==01
    b1dc:	09 d3       	bis	#0,	r9	;r3 As==00
    b1de:	dc 3f       	jmp	$-70     	;abs 0xb198
    b1e0:	0a 9e       	cmp	r14,	r10	
    b1e2:	f5 2b       	jnc	$-20     	;abs 0xb1ce
    b1e4:	f2 3f       	jmp	$-26     	;abs 0xb1ca
    b1e6:	0e 4d       	mov	r13,	r14	
    b1e8:	19 41 12 00 	mov	18(r1),	r9	;0x0012(r1)
    b1ec:	19 51 0a 00 	add	10(r1),	r9	;0x000a(r1)
    b1f0:	0f 49       	mov	r9,	r15	
    b1f2:	2f 53       	incd	r15		
    b1f4:	81 4f 02 00 	mov	r15,	2(r1)	;0x0002(r1)
    b1f8:	5f 43       	mov.b	#1,	r15	;r3 As==01
    b1fa:	d1 91 09 00 11 00 	cmp.b	9(r1),	17(r1)	;0x0009(r1), 0x0011(r1)
    b200:	45 24       	jz	$+140    	;abs 0xb28c
    b202:	c1 4f 01 00 	mov.b	r15,	1(r1)	;0x0001(r1)
    b206:	0e 93       	tst	r14		
    b208:	27 38       	jl	$+80     	;abs 0xb258
    b20a:	3d 90 00 40 	cmp	#16384,	r13	;#0x4000
    b20e:	10 2c       	jc	$+34     	;abs 0xb230
    b210:	1f 41 02 00 	mov	2(r1),	r15	;0x0002(r1)
    b214:	3f 53       	add	#-1,	r15	;r3 As==11
    b216:	0e 4f       	mov	r15,	r14	
    b218:	0c 5c       	rla	r12		
    b21a:	0d 6d       	rlc	r13		
    b21c:	0b 93       	tst	r11		
    b21e:	19 38       	jl	$+52     	;abs 0xb252
    b220:	0a 5a       	rla	r10		
    b222:	0b 6b       	rlc	r11		
    b224:	3f 53       	add	#-1,	r15	;r3 As==11
    b226:	3d 90 00 40 	cmp	#16384,	r13	;#0x4000
    b22a:	f5 2b       	jnc	$-20     	;abs 0xb216
    b22c:	81 4e 02 00 	mov	r14,	2(r1)	;0x0002(r1)
    b230:	0e 4c       	mov	r12,	r14	
    b232:	0f 4d       	mov	r13,	r15	
    b234:	3e f0 7f 00 	and	#127,	r14	;#0x007f
    b238:	0f f3       	and	#0,	r15	;r3 As==00
    b23a:	3e 90 40 00 	cmp	#64,	r14	;#0x0040
    b23e:	28 24       	jz	$+82     	;abs 0xb290
    b240:	81 4c 04 00 	mov	r12,	4(r1)	;0x0004(r1)
    b244:	81 4d 06 00 	mov	r13,	6(r1)	;0x0006(r1)
    b248:	f1 40 03 00 00 00 	mov.b	#3,	0(r1)	;#0x0003, 0x0000(r1)
    b24e:	0f 41       	mov	r1,	r15	
    b250:	64 3f       	jmp	$-310    	;abs 0xb11a
    b252:	1c d3       	bis	#1,	r12	;r3 As==01
    b254:	0d d3       	bis	#0,	r13	;r3 As==00
    b256:	e4 3f       	jmp	$-54     	;abs 0xb220
    b258:	39 50 03 00 	add	#3,	r9	;#0x0003
    b25c:	08 49       	mov	r9,	r8	
    b25e:	0e 4c       	mov	r12,	r14	
    b260:	0f 4d       	mov	r13,	r15	
    b262:	1e f3       	and	#1,	r14	;r3 As==01
    b264:	0f f3       	and	#0,	r15	;r3 As==00
    b266:	0e 93       	tst	r14		
    b268:	02 20       	jnz	$+6      	;abs 0xb26e
    b26a:	0f 93       	tst	r15		
    b26c:	06 24       	jz	$+14     	;abs 0xb27a
    b26e:	12 c3       	clrc			
    b270:	0b 10       	rrc	r11		
    b272:	0a 10       	rrc	r10		
    b274:	0a d3       	bis	#0,	r10	;r3 As==00
    b276:	3b d0 00 80 	bis	#-32768,r11	;#0x8000
    b27a:	12 c3       	clrc			
    b27c:	0d 10       	rrc	r13		
    b27e:	0c 10       	rrc	r12		
    b280:	19 53       	inc	r9		
    b282:	0d 93       	tst	r13		
    b284:	eb 3b       	jl	$-40     	;abs 0xb25c
    b286:	81 48 02 00 	mov	r8,	2(r1)	;0x0002(r1)
    b28a:	bf 3f       	jmp	$-128    	;abs 0xb20a
    b28c:	4f 43       	clr.b	r15		
    b28e:	b9 3f       	jmp	$-140    	;abs 0xb202
    b290:	0f 93       	tst	r15		
    b292:	d6 23       	jnz	$-82     	;abs 0xb240
    b294:	0e 4c       	mov	r12,	r14	
    b296:	0f 4d       	mov	r13,	r15	
    b298:	3e f0 80 00 	and	#128,	r14	;#0x0080
    b29c:	0f f3       	and	#0,	r15	;r3 As==00
    b29e:	0e 93       	tst	r14		
    b2a0:	cf 23       	jnz	$-96     	;abs 0xb240
    b2a2:	0f 93       	tst	r15		
    b2a4:	cd 23       	jnz	$-100    	;abs 0xb240
    b2a6:	0a 93       	tst	r10		
    b2a8:	02 20       	jnz	$+6      	;abs 0xb2ae
    b2aa:	0b 93       	tst	r11		
    b2ac:	c9 27       	jz	$-108    	;abs 0xb240
    b2ae:	3c 50 40 00 	add	#64,	r12	;#0x0040
    b2b2:	0d 63       	adc	r13		
    b2b4:	3c f0 80 ff 	and	#-128,	r12	;#0xff80
    b2b8:	3d f3       	and	#-1,	r13	;r3 As==11
    b2ba:	c2 3f       	jmp	$-122    	;abs 0xb240

0000b2bc <__divsf3>:
    b2bc:	4b 15       	pushm	#5,	r11	
    b2be:	31 50 e8 ff 	add	#-24,	r1	;#0xffe8
    b2c2:	81 4e 14 00 	mov	r14,	20(r1)	;0x0014(r1)
    b2c6:	81 4f 16 00 	mov	r15,	22(r1)	;0x0016(r1)
    b2ca:	81 4c 10 00 	mov	r12,	16(r1)	;0x0010(r1)
    b2ce:	81 4d 12 00 	mov	r13,	18(r1)	;0x0012(r1)
    b2d2:	0e 41       	mov	r1,	r14	
    b2d4:	3e 52       	add	#8,	r14	;r2 As==11
    b2d6:	0f 41       	mov	r1,	r15	
    b2d8:	3f 50 14 00 	add	#20,	r15	;#0x0014
    b2dc:	b0 12 e0 b8 	call	#0xb8e0	
    b2e0:	0e 41       	mov	r1,	r14	
    b2e2:	0f 41       	mov	r1,	r15	
    b2e4:	3f 50 10 00 	add	#16,	r15	;#0x0010
    b2e8:	b0 12 e0 b8 	call	#0xb8e0	
    b2ec:	5f 41 08 00 	mov.b	8(r1),	r15	;0x0008(r1)
    b2f0:	6f 93       	cmp.b	#2,	r15	;r3 As==10
    b2f2:	08 2c       	jc	$+18     	;abs 0xb304
    b2f4:	0f 41       	mov	r1,	r15	
    b2f6:	3f 52       	add	#8,	r15	;r2 As==11
    b2f8:	b0 12 18 b7 	call	#0xb718	
    b2fc:	31 50 18 00 	add	#24,	r1	;#0x0018
    b300:	47 17       	popm	#5,	r11	
    b302:	30 41       	ret			
    b304:	6e 41       	mov.b	@r1,	r14	
    b306:	6e 93       	cmp.b	#2,	r14	;r3 As==10
    b308:	07 2c       	jc	$+16     	;abs 0xb318
    b30a:	0f 41       	mov	r1,	r15	
    b30c:	b0 12 18 b7 	call	#0xb718	
    b310:	31 50 18 00 	add	#24,	r1	;#0x0018
    b314:	47 17       	popm	#5,	r11	
    b316:	30 41       	ret			
    b318:	d1 e1 01 00 09 00 	xor.b	1(r1),	9(r1)	;0x0001(r1), 0x0009(r1)
    b31e:	6f 92       	cmp.b	#4,	r15	;r2 As==10
    b320:	02 24       	jz	$+6      	;abs 0xb326
    b322:	6f 93       	cmp.b	#2,	r15	;r3 As==10
    b324:	05 20       	jnz	$+12     	;abs 0xb330
    b326:	4f 9e       	cmp.b	r14,	r15	
    b328:	e5 23       	jnz	$-52     	;abs 0xb2f4
    b32a:	3f 40 40 c2 	mov	#-15808,r15	;#0xc240
    b32e:	e4 3f       	jmp	$-54     	;abs 0xb2f8
    b330:	6e 92       	cmp.b	#4,	r14	;r2 As==10
    b332:	34 24       	jz	$+106    	;abs 0xb39c
    b334:	6e 93       	cmp.b	#2,	r14	;r3 As==10
    b336:	48 24       	jz	$+146    	;abs 0xb3c8
    b338:	1d 41 0a 00 	mov	10(r1),	r13	;0x000a(r1)
    b33c:	1d 81 02 00 	sub	2(r1),	r13	;0x0002(r1)
    b340:	81 4d 0a 00 	mov	r13,	10(r1)	;0x000a(r1)
    b344:	1e 41 0c 00 	mov	12(r1),	r14	;0x000c(r1)
    b348:	1f 41 0e 00 	mov	14(r1),	r15	;0x000e(r1)
    b34c:	1a 41 04 00 	mov	4(r1),	r10	;0x0004(r1)
    b350:	1b 41 06 00 	mov	6(r1),	r11	;0x0006(r1)
    b354:	0f 9b       	cmp	r11,	r15	
    b356:	04 28       	jnc	$+10     	;abs 0xb360
    b358:	0b 9f       	cmp	r15,	r11	
    b35a:	07 28       	jnc	$+16     	;abs 0xb36a
    b35c:	0e 9a       	cmp	r10,	r14	
    b35e:	05 2c       	jc	$+12     	;abs 0xb36a
    b360:	0e 5e       	rla	r14		
    b362:	0f 6f       	rlc	r15		
    b364:	3d 53       	add	#-1,	r13	;r3 As==11
    b366:	81 4d 0a 00 	mov	r13,	10(r1)	;0x000a(r1)
    b36a:	37 40 1f 00 	mov	#31,	r7	;#0x001f
    b36e:	0c 43       	clr	r12		
    b370:	3d 40 00 40 	mov	#16384,	r13	;#0x4000
    b374:	08 43       	clr	r8		
    b376:	09 43       	clr	r9		
    b378:	0b 3c       	jmp	$+24     	;abs 0xb390
    b37a:	08 dc       	bis	r12,	r8	
    b37c:	09 dd       	bis	r13,	r9	
    b37e:	0e 8a       	sub	r10,	r14	
    b380:	0f 7b       	subc	r11,	r15	
    b382:	12 c3       	clrc			
    b384:	0d 10       	rrc	r13		
    b386:	0c 10       	rrc	r12		
    b388:	0e 5e       	rla	r14		
    b38a:	0f 6f       	rlc	r15		
    b38c:	37 53       	add	#-1,	r7	;r3 As==11
    b38e:	0f 24       	jz	$+32     	;abs 0xb3ae
    b390:	0f 9b       	cmp	r11,	r15	
    b392:	f7 2b       	jnc	$-16     	;abs 0xb382
    b394:	f2 23       	jnz	$-26     	;abs 0xb37a
    b396:	0e 9a       	cmp	r10,	r14	
    b398:	f4 2b       	jnc	$-22     	;abs 0xb382
    b39a:	ef 3f       	jmp	$-32     	;abs 0xb37a
    b39c:	81 43 0c 00 	mov	#0,	12(r1)	;r3 As==00, 0x000c(r1)
    b3a0:	81 43 0e 00 	mov	#0,	14(r1)	;r3 As==00, 0x000e(r1)
    b3a4:	81 43 0a 00 	mov	#0,	10(r1)	;r3 As==00, 0x000a(r1)
    b3a8:	0f 41       	mov	r1,	r15	
    b3aa:	3f 52       	add	#8,	r15	;r2 As==11
    b3ac:	a5 3f       	jmp	$-180    	;abs 0xb2f8
    b3ae:	0c 48       	mov	r8,	r12	
    b3b0:	0d 49       	mov	r9,	r13	
    b3b2:	3c f0 7f 00 	and	#127,	r12	;#0x007f
    b3b6:	0d f3       	and	#0,	r13	;r3 As==00
    b3b8:	3c 90 40 00 	cmp	#64,	r12	;#0x0040
    b3bc:	0a 24       	jz	$+22     	;abs 0xb3d2
    b3be:	81 48 0c 00 	mov	r8,	12(r1)	;0x000c(r1)
    b3c2:	81 49 0e 00 	mov	r9,	14(r1)	;0x000e(r1)
    b3c6:	96 3f       	jmp	$-210    	;abs 0xb2f4
    b3c8:	e1 42 08 00 	mov.b	#4,	8(r1)	;r2 As==10, 0x0008(r1)
    b3cc:	0f 41       	mov	r1,	r15	
    b3ce:	3f 52       	add	#8,	r15	;r2 As==11
    b3d0:	93 3f       	jmp	$-216    	;abs 0xb2f8
    b3d2:	0d 93       	tst	r13		
    b3d4:	f4 23       	jnz	$-22     	;abs 0xb3be
    b3d6:	0c 48       	mov	r8,	r12	
    b3d8:	0d 49       	mov	r9,	r13	
    b3da:	3c f0 80 00 	and	#128,	r12	;#0x0080
    b3de:	0d f3       	and	#0,	r13	;r3 As==00
    b3e0:	0c 93       	tst	r12		
    b3e2:	ed 23       	jnz	$-36     	;abs 0xb3be
    b3e4:	0d 93       	tst	r13		
    b3e6:	eb 23       	jnz	$-40     	;abs 0xb3be
    b3e8:	0e 93       	tst	r14		
    b3ea:	02 20       	jnz	$+6      	;abs 0xb3f0
    b3ec:	0f 93       	tst	r15		
    b3ee:	e7 27       	jz	$-48     	;abs 0xb3be
    b3f0:	38 50 40 00 	add	#64,	r8	;#0x0040
    b3f4:	09 63       	adc	r9		
    b3f6:	38 f0 80 ff 	and	#-128,	r8	;#0xff80
    b3fa:	39 f3       	and	#-1,	r9	;r3 As==11
    b3fc:	e0 3f       	jmp	$-62     	;abs 0xb3be

0000b3fe <__nesf2>:
    b3fe:	31 50 e8 ff 	add	#-24,	r1	;#0xffe8
    b402:	81 4e 14 00 	mov	r14,	20(r1)	;0x0014(r1)
    b406:	81 4f 16 00 	mov	r15,	22(r1)	;0x0016(r1)
    b40a:	81 4c 10 00 	mov	r12,	16(r1)	;0x0010(r1)
    b40e:	81 4d 12 00 	mov	r13,	18(r1)	;0x0012(r1)
    b412:	0e 41       	mov	r1,	r14	
    b414:	3e 52       	add	#8,	r14	;r2 As==11
    b416:	0f 41       	mov	r1,	r15	
    b418:	3f 50 14 00 	add	#20,	r15	;#0x0014
    b41c:	b0 12 e0 b8 	call	#0xb8e0	
    b420:	0e 41       	mov	r1,	r14	
    b422:	0f 41       	mov	r1,	r15	
    b424:	3f 50 10 00 	add	#16,	r15	;#0x0010
    b428:	b0 12 e0 b8 	call	#0xb8e0	
    b42c:	e1 93 08 00 	cmp.b	#2,	8(r1)	;r3 As==10, 0x0008(r1)
    b430:	0b 28       	jnc	$+24     	;abs 0xb448
    b432:	e1 93 00 00 	cmp.b	#2,	0(r1)	;r3 As==10, 0x0000(r1)
    b436:	08 28       	jnc	$+18     	;abs 0xb448
    b438:	0e 41       	mov	r1,	r14	
    b43a:	0f 41       	mov	r1,	r15	
    b43c:	3f 52       	add	#8,	r15	;r2 As==11
    b43e:	b0 12 ec b9 	call	#0xb9ec	
    b442:	31 50 18 00 	add	#24,	r1	;#0x0018
    b446:	30 41       	ret			
    b448:	1f 43       	mov	#1,	r15	;r3 As==01
    b44a:	fb 3f       	jmp	$-8      	;abs 0xb442

0000b44c <__gtsf2>:
    b44c:	31 50 e8 ff 	add	#-24,	r1	;#0xffe8
    b450:	81 4e 14 00 	mov	r14,	20(r1)	;0x0014(r1)
    b454:	81 4f 16 00 	mov	r15,	22(r1)	;0x0016(r1)
    b458:	81 4c 10 00 	mov	r12,	16(r1)	;0x0010(r1)
    b45c:	81 4d 12 00 	mov	r13,	18(r1)	;0x0012(r1)
    b460:	0e 41       	mov	r1,	r14	
    b462:	3e 52       	add	#8,	r14	;r2 As==11
    b464:	0f 41       	mov	r1,	r15	
    b466:	3f 50 14 00 	add	#20,	r15	;#0x0014
    b46a:	b0 12 e0 b8 	call	#0xb8e0	
    b46e:	0e 41       	mov	r1,	r14	
    b470:	0f 41       	mov	r1,	r15	
    b472:	3f 50 10 00 	add	#16,	r15	;#0x0010
    b476:	b0 12 e0 b8 	call	#0xb8e0	
    b47a:	e1 93 08 00 	cmp.b	#2,	8(r1)	;r3 As==10, 0x0008(r1)
    b47e:	0b 28       	jnc	$+24     	;abs 0xb496
    b480:	e1 93 00 00 	cmp.b	#2,	0(r1)	;r3 As==10, 0x0000(r1)
    b484:	08 28       	jnc	$+18     	;abs 0xb496
    b486:	0e 41       	mov	r1,	r14	
    b488:	0f 41       	mov	r1,	r15	
    b48a:	3f 52       	add	#8,	r15	;r2 As==11
    b48c:	b0 12 ec b9 	call	#0xb9ec	
    b490:	31 50 18 00 	add	#24,	r1	;#0x0018
    b494:	30 41       	ret			
    b496:	3f 43       	mov	#-1,	r15	;r3 As==11
    b498:	fb 3f       	jmp	$-8      	;abs 0xb490

0000b49a <__floatsisf>:
    b49a:	1b 15       	pushm	#2,	r11	
    b49c:	31 82       	sub	#8,	r1	;r2 As==11
    b49e:	f1 40 03 00 00 00 	mov.b	#3,	0(r1)	;#0x0003, 0x0000(r1)
    b4a4:	0d 4f       	mov	r15,	r13	
    b4a6:	0d 5d       	rla	r13		
    b4a8:	0d 43       	clr	r13		
    b4aa:	0d 6d       	rlc	r13		
    b4ac:	4c 4d       	mov.b	r13,	r12	
    b4ae:	c1 4d 01 00 	mov.b	r13,	1(r1)	;0x0001(r1)
    b4b2:	0e 93       	tst	r14		
    b4b4:	0a 20       	jnz	$+22     	;abs 0xb4ca
    b4b6:	0f 93       	tst	r15		
    b4b8:	08 20       	jnz	$+18     	;abs 0xb4ca
    b4ba:	e1 43 00 00 	mov.b	#2,	0(r1)	;r3 As==10, 0x0000(r1)
    b4be:	0f 41       	mov	r1,	r15	
    b4c0:	b0 12 18 b7 	call	#0xb718	
    b4c4:	31 52       	add	#8,	r1	;r2 As==11
    b4c6:	1a 17       	popm	#2,	r11	
    b4c8:	30 41       	ret			
    b4ca:	b1 40 1e 00 02 00 	mov	#30,	2(r1)	;#0x001e, 0x0002(r1)
    b4d0:	4c 93       	tst.b	r12		
    b4d2:	17 20       	jnz	$+48     	;abs 0xb502
    b4d4:	0a 4e       	mov	r14,	r10	
    b4d6:	0b 4f       	mov	r15,	r11	
    b4d8:	0e 4a       	mov	r10,	r14	
    b4da:	0f 4b       	mov	r11,	r15	
    b4dc:	b0 12 ae b6 	call	#0xb6ae	
    b4e0:	3f 53       	add	#-1,	r15	;r3 As==11
    b4e2:	1f 93       	cmp	#1,	r15	;r3 As==01
    b4e4:	27 38       	jl	$+80     	;abs 0xb534
    b4e6:	4e 4f       	mov.b	r15,	r14	
    b4e8:	7e f0 1f 00 	and.b	#31,	r14	;#0x001f
    b4ec:	81 4a 04 00 	mov	r10,	4(r1)	;0x0004(r1)
    b4f0:	81 4b 06 00 	mov	r11,	6(r1)	;0x0006(r1)
    b4f4:	0f 20       	jnz	$+32     	;abs 0xb514
    b4f6:	3e 40 1e 00 	mov	#30,	r14	;#0x001e
    b4fa:	0e 8f       	sub	r15,	r14	
    b4fc:	81 4e 02 00 	mov	r14,	2(r1)	;0x0002(r1)
    b500:	de 3f       	jmp	$-66     	;abs 0xb4be
    b502:	0e 93       	tst	r14		
    b504:	10 24       	jz	$+34     	;abs 0xb526
    b506:	0a 4e       	mov	r14,	r10	
    b508:	0b 4f       	mov	r15,	r11	
    b50a:	3a e3       	inv	r10		
    b50c:	3b e3       	inv	r11		
    b50e:	1a 53       	inc	r10		
    b510:	0b 63       	adc	r11		
    b512:	e2 3f       	jmp	$-58     	;abs 0xb4d8
    b514:	91 51 04 00 04 00 	rla	4(r1)		;0x0004(r1)
    b51a:	91 61 06 00 06 00 	rlc	6(r1)		;0x0006(r1)
    b520:	7e 53       	add.b	#-1,	r14	;r3 As==11
    b522:	f8 23       	jnz	$-14     	;abs 0xb514
    b524:	e8 3f       	jmp	$-46     	;abs 0xb4f6
    b526:	3f 90 00 80 	cmp	#-32768,r15	;#0x8000
    b52a:	ed 23       	jnz	$-36     	;abs 0xb506
    b52c:	0e 43       	clr	r14		
    b52e:	3f 40 00 cf 	mov	#-12544,r15	;#0xcf00
    b532:	c8 3f       	jmp	$-110    	;abs 0xb4c4
    b534:	81 4a 04 00 	mov	r10,	4(r1)	;0x0004(r1)
    b538:	81 4b 06 00 	mov	r11,	6(r1)	;0x0006(r1)
    b53c:	c0 3f       	jmp	$-126    	;abs 0xb4be

0000b53e <__fixsfsi>:
    b53e:	31 50 f4 ff 	add	#-12,	r1	;#0xfff4
    b542:	81 4e 08 00 	mov	r14,	8(r1)	;0x0008(r1)
    b546:	81 4f 0a 00 	mov	r15,	10(r1)	;0x000a(r1)
    b54a:	0e 41       	mov	r1,	r14	
    b54c:	0f 41       	mov	r1,	r15	
    b54e:	3f 52       	add	#8,	r15	;r2 As==11
    b550:	b0 12 e0 b8 	call	#0xb8e0	
    b554:	6f 41       	mov.b	@r1,	r15	
    b556:	6f 93       	cmp.b	#2,	r15	;r3 As==10
    b558:	27 24       	jz	$+80     	;abs 0xb5a8
    b55a:	26 28       	jnc	$+78     	;abs 0xb5a8
    b55c:	6f 92       	cmp.b	#4,	r15	;r2 As==10
    b55e:	07 24       	jz	$+16     	;abs 0xb56e
    b560:	1f 41 02 00 	mov	2(r1),	r15	;0x0002(r1)
    b564:	0f 93       	tst	r15		
    b566:	20 38       	jl	$+66     	;abs 0xb5a8
    b568:	3f 90 1f 00 	cmp	#31,	r15	;#0x001f
    b56c:	09 38       	jl	$+20     	;abs 0xb580
    b56e:	c1 93 01 00 	tst.b	1(r1)		;0x0001(r1)
    b572:	25 20       	jnz	$+76     	;abs 0xb5be
    b574:	3e 43       	mov	#-1,	r14	;r3 As==11
    b576:	3f 40 ff 7f 	mov	#32767,	r15	;#0x7fff
    b57a:	31 50 0c 00 	add	#12,	r1	;#0x000c
    b57e:	30 41       	ret			
    b580:	3d 40 1e 00 	mov	#30,	r13	;#0x001e
    b584:	4d 8f       	sub.b	r15,	r13	
    b586:	7d f0 1f 00 	and.b	#31,	r13	;#0x001f
    b58a:	1e 41 04 00 	mov	4(r1),	r14	;0x0004(r1)
    b58e:	1f 41 06 00 	mov	6(r1),	r15	;0x0006(r1)
    b592:	0f 20       	jnz	$+32     	;abs 0xb5b2
    b594:	c1 93 01 00 	tst.b	1(r1)		;0x0001(r1)
    b598:	f0 27       	jz	$-30     	;abs 0xb57a
    b59a:	3e e3       	inv	r14		
    b59c:	3f e3       	inv	r15		
    b59e:	1e 53       	inc	r14		
    b5a0:	0f 63       	adc	r15		
    b5a2:	31 50 0c 00 	add	#12,	r1	;#0x000c
    b5a6:	30 41       	ret			
    b5a8:	0e 43       	clr	r14		
    b5aa:	0f 43       	clr	r15		
    b5ac:	31 50 0c 00 	add	#12,	r1	;#0x000c
    b5b0:	30 41       	ret			
    b5b2:	12 c3       	clrc			
    b5b4:	0f 10       	rrc	r15		
    b5b6:	0e 10       	rrc	r14		
    b5b8:	7d 53       	add.b	#-1,	r13	;r3 As==11
    b5ba:	fb 23       	jnz	$-8      	;abs 0xb5b2
    b5bc:	eb 3f       	jmp	$-40     	;abs 0xb594
    b5be:	0e 43       	clr	r14		
    b5c0:	3f 40 00 80 	mov	#-32768,r15	;#0x8000
    b5c4:	31 50 0c 00 	add	#12,	r1	;#0x000c
    b5c8:	30 41       	ret			

0000b5ca <__floatunsisf>:
    b5ca:	3b 15       	pushm	#4,	r11	
    b5cc:	31 82       	sub	#8,	r1	;r2 As==11
    b5ce:	0a 4e       	mov	r14,	r10	
    b5d0:	0b 4f       	mov	r15,	r11	
    b5d2:	c1 43 01 00 	mov.b	#0,	1(r1)	;r3 As==00, 0x0001(r1)
    b5d6:	0e 93       	tst	r14		
    b5d8:	0a 20       	jnz	$+22     	;abs 0xb5ee
    b5da:	0b 93       	tst	r11		
    b5dc:	08 20       	jnz	$+18     	;abs 0xb5ee
    b5de:	e1 43 00 00 	mov.b	#2,	0(r1)	;r3 As==10, 0x0000(r1)
    b5e2:	0f 41       	mov	r1,	r15	
    b5e4:	b0 12 18 b7 	call	#0xb718	
    b5e8:	31 52       	add	#8,	r1	;r2 As==11
    b5ea:	38 17       	popm	#4,	r11	
    b5ec:	30 41       	ret			
    b5ee:	f1 40 03 00 00 00 	mov.b	#3,	0(r1)	;#0x0003, 0x0000(r1)
    b5f4:	b1 40 1e 00 02 00 	mov	#30,	2(r1)	;#0x001e, 0x0002(r1)
    b5fa:	0e 4a       	mov	r10,	r14	
    b5fc:	0f 4b       	mov	r11,	r15	
    b5fe:	b0 12 ae b6 	call	#0xb6ae	
    b602:	09 4f       	mov	r15,	r9	
    b604:	39 53       	add	#-1,	r9	;r3 As==11
    b606:	09 93       	tst	r9		
    b608:	1d 38       	jl	$+60     	;abs 0xb644
    b60a:	46 24       	jz	$+142    	;abs 0xb698
    b60c:	4f 49       	mov.b	r9,	r15	
    b60e:	7f f0 1f 00 	and.b	#31,	r15	;#0x001f
    b612:	81 4a 04 00 	mov	r10,	4(r1)	;0x0004(r1)
    b616:	81 4b 06 00 	mov	r11,	6(r1)	;0x0006(r1)
    b61a:	0b 20       	jnz	$+24     	;abs 0xb632
    b61c:	3f 40 1e 00 	mov	#30,	r15	;#0x001e
    b620:	0f 89       	sub	r9,	r15	
    b622:	81 4f 02 00 	mov	r15,	2(r1)	;0x0002(r1)
    b626:	0f 41       	mov	r1,	r15	
    b628:	b0 12 18 b7 	call	#0xb718	
    b62c:	31 52       	add	#8,	r1	;r2 As==11
    b62e:	38 17       	popm	#4,	r11	
    b630:	30 41       	ret			
    b632:	91 51 04 00 04 00 	rla	4(r1)		;0x0004(r1)
    b638:	91 61 06 00 06 00 	rlc	6(r1)		;0x0006(r1)
    b63e:	7f 53       	add.b	#-1,	r15	;r3 As==11
    b640:	f8 23       	jnz	$-14     	;abs 0xb632
    b642:	ec 3f       	jmp	$-38     	;abs 0xb61c
    b644:	08 49       	mov	r9,	r8	
    b646:	38 e3       	inv	r8		
    b648:	18 53       	inc	r8		
    b64a:	4d 48       	mov.b	r8,	r13	
    b64c:	7d f0 1f 00 	and.b	#31,	r13	;#0x001f
    b650:	1e 43       	mov	#1,	r14	;r3 As==01
    b652:	0f 43       	clr	r15		
    b654:	04 24       	jz	$+10     	;abs 0xb65e
    b656:	0e 5e       	rla	r14		
    b658:	0f 6f       	rlc	r15		
    b65a:	7d 53       	add.b	#-1,	r13	;r3 As==11
    b65c:	fc 23       	jnz	$-6      	;abs 0xb656
    b65e:	3e 53       	add	#-1,	r14	;r3 As==11
    b660:	3f 63       	addc	#-1,	r15	;r3 As==11
    b662:	0e fa       	and	r10,	r14	
    b664:	0f fb       	and	r11,	r15	
    b666:	1c 43       	mov	#1,	r12	;r3 As==01
    b668:	0d 43       	clr	r13		
    b66a:	0e 93       	tst	r14		
    b66c:	04 20       	jnz	$+10     	;abs 0xb676
    b66e:	0f 93       	tst	r15		
    b670:	02 20       	jnz	$+6      	;abs 0xb676
    b672:	0c 43       	clr	r12		
    b674:	0d 43       	clr	r13		
    b676:	78 f0 1f 00 	and.b	#31,	r8	;#0x001f
    b67a:	13 20       	jnz	$+40     	;abs 0xb6a2
    b67c:	0e 4c       	mov	r12,	r14	
    b67e:	0f 4d       	mov	r13,	r15	
    b680:	0e da       	bis	r10,	r14	
    b682:	0f db       	bis	r11,	r15	
    b684:	81 4e 04 00 	mov	r14,	4(r1)	;0x0004(r1)
    b688:	81 4f 06 00 	mov	r15,	6(r1)	;0x0006(r1)
    b68c:	3f 40 1e 00 	mov	#30,	r15	;#0x001e
    b690:	0f 89       	sub	r9,	r15	
    b692:	81 4f 02 00 	mov	r15,	2(r1)	;0x0002(r1)
    b696:	a5 3f       	jmp	$-180    	;abs 0xb5e2
    b698:	81 4a 04 00 	mov	r10,	4(r1)	;0x0004(r1)
    b69c:	81 4b 06 00 	mov	r11,	6(r1)	;0x0006(r1)
    b6a0:	a0 3f       	jmp	$-190    	;abs 0xb5e2
    b6a2:	12 c3       	clrc			
    b6a4:	0b 10       	rrc	r11		
    b6a6:	0a 10       	rrc	r10		
    b6a8:	78 53       	add.b	#-1,	r8	;r3 As==11
    b6aa:	fb 23       	jnz	$-8      	;abs 0xb6a2
    b6ac:	e7 3f       	jmp	$-48     	;abs 0xb67c

0000b6ae <__clzsi2>:
    b6ae:	2b 15       	pushm	#3,	r11	
    b6b0:	1f 93       	cmp	#1,	r15	;r3 As==01
    b6b2:	15 2c       	jc	$+44     	;abs 0xb6de
    b6b4:	3e 90 00 01 	cmp	#256,	r14	;#0x0100
    b6b8:	2a 28       	jnc	$+86     	;abs 0xb70e
    b6ba:	3a 40 18 00 	mov	#24,	r10	;#0x0018
    b6be:	0b 43       	clr	r11		
    b6c0:	39 42       	mov	#8,	r9	;r2 As==11
    b6c2:	49 49       	mov.b	r9,	r9	
    b6c4:	0c 4e       	mov	r14,	r12	
    b6c6:	0d 4f       	mov	r15,	r13	
    b6c8:	49 93       	tst.b	r9		
    b6ca:	15 20       	jnz	$+44     	;abs 0xb6f6
    b6cc:	3c 50 48 c2 	add	#-15800,r12	;#0xc248
    b6d0:	6e 4c       	mov.b	@r12,	r14	
    b6d2:	0f 43       	clr	r15		
    b6d4:	0a 8e       	sub	r14,	r10	
    b6d6:	0b 7f       	subc	r15,	r11	
    b6d8:	0f 4a       	mov	r10,	r15	
    b6da:	29 17       	popm	#3,	r11	
    b6dc:	30 41       	ret			
    b6de:	3f 90 00 01 	cmp	#256,	r15	;#0x0100
    b6e2:	0f 28       	jnc	$+32     	;abs 0xb702
    b6e4:	3a 42       	mov	#8,	r10	;r2 As==11
    b6e6:	0b 43       	clr	r11		
    b6e8:	39 40 18 00 	mov	#24,	r9	;#0x0018
    b6ec:	49 49       	mov.b	r9,	r9	
    b6ee:	0c 4e       	mov	r14,	r12	
    b6f0:	0d 4f       	mov	r15,	r13	
    b6f2:	49 93       	tst.b	r9		
    b6f4:	eb 27       	jz	$-40     	;abs 0xb6cc
    b6f6:	12 c3       	clrc			
    b6f8:	0d 10       	rrc	r13		
    b6fa:	0c 10       	rrc	r12		
    b6fc:	79 53       	add.b	#-1,	r9	;r3 As==11
    b6fe:	fb 23       	jnz	$-8      	;abs 0xb6f6
    b700:	e5 3f       	jmp	$-52     	;abs 0xb6cc
    b702:	3a 40 10 00 	mov	#16,	r10	;#0x0010
    b706:	0b 43       	clr	r11		
    b708:	39 40 10 00 	mov	#16,	r9	;#0x0010
    b70c:	ef 3f       	jmp	$-32     	;abs 0xb6ec
    b70e:	3a 40 20 00 	mov	#32,	r10	;#0x0020
    b712:	0b 43       	clr	r11		
    b714:	09 43       	clr	r9		
    b716:	ea 3f       	jmp	$-42     	;abs 0xb6ec

0000b718 <__pack_f>:
    b718:	3b 15       	pushm	#4,	r11	
    b71a:	0d 4f       	mov	r15,	r13	
    b71c:	1e 4f 04 00 	mov	4(r15),	r14	;0x0004(r15)
    b720:	1f 4f 06 00 	mov	6(r15),	r15	;0x0006(r15)
    b724:	59 4d 01 00 	mov.b	1(r13),	r9	;0x0001(r13)
    b728:	6c 4d       	mov.b	@r13,	r12	
    b72a:	6c 93       	cmp.b	#2,	r12	;r3 As==10
    b72c:	68 28       	jnc	$+210    	;abs 0xb7fe
    b72e:	6c 92       	cmp.b	#4,	r12	;r2 As==10
    b730:	62 24       	jz	$+198    	;abs 0xb7f6
    b732:	6c 93       	cmp.b	#2,	r12	;r3 As==10
    b734:	36 24       	jz	$+110    	;abs 0xb7a2
    b736:	0e 93       	tst	r14		
    b738:	32 24       	jz	$+102    	;abs 0xb79e
    b73a:	1b 4d 02 00 	mov	2(r13),	r11	;0x0002(r13)
    b73e:	3b 90 82 ff 	cmp	#-126,	r11	;#0xff82
    b742:	65 38       	jl	$+204    	;abs 0xb80e
    b744:	3b 90 80 00 	cmp	#128,	r11	;#0x0080
    b748:	56 34       	jge	$+174    	;abs 0xb7f6
    b74a:	0c 4e       	mov	r14,	r12	
    b74c:	0d 4f       	mov	r15,	r13	
    b74e:	3c f0 7f 00 	and	#127,	r12	;#0x007f
    b752:	0d f3       	and	#0,	r13	;r3 As==00
    b754:	3c 90 40 00 	cmp	#64,	r12	;#0x0040
    b758:	38 24       	jz	$+114    	;abs 0xb7ca
    b75a:	3e 50 3f 00 	add	#63,	r14	;#0x003f
    b75e:	0f 63       	adc	r15		
    b760:	0f 93       	tst	r15		
    b762:	42 38       	jl	$+134    	;abs 0xb7e8
    b764:	0c 4b       	mov	r11,	r12	
    b766:	3c 50 7f 00 	add	#127,	r12	;#0x007f
    b76a:	12 c3       	clrc			
    b76c:	0f 10       	rrc	r15		
    b76e:	0e 10       	rrc	r14		
    b770:	12 c3       	clrc			
    b772:	0f 10       	rrc	r15		
    b774:	0e 10       	rrc	r14		
    b776:	12 c3       	clrc			
    b778:	0f 10       	rrc	r15		
    b77a:	0e 10       	rrc	r14		
    b77c:	12 c3       	clrc			
    b77e:	0f 10       	rrc	r15		
    b780:	0e 10       	rrc	r14		
    b782:	12 c3       	clrc			
    b784:	0f 10       	rrc	r15		
    b786:	0e 10       	rrc	r14		
    b788:	12 c3       	clrc			
    b78a:	0f 10       	rrc	r15		
    b78c:	0e 10       	rrc	r14		
    b78e:	12 c3       	clrc			
    b790:	0f 10       	rrc	r15		
    b792:	0e 10       	rrc	r14		
    b794:	3e f3       	and	#-1,	r14	;r3 As==11
    b796:	3f f0 7f 00 	and	#127,	r15	;#0x007f
    b79a:	4c 4c       	mov.b	r12,	r12	
    b79c:	05 3c       	jmp	$+12     	;abs 0xb7a8
    b79e:	0f 93       	tst	r15		
    b7a0:	cc 23       	jnz	$-102    	;abs 0xb73a
    b7a2:	4c 43       	clr.b	r12		
    b7a4:	0e 43       	clr	r14		
    b7a6:	0f 43       	clr	r15		
    b7a8:	4d 4c       	mov.b	r12,	r13	
    b7aa:	5d 0e       	rlam	#4,	r13	
    b7ac:	5d 0a       	rlam	#3,	r13	
    b7ae:	0c 4f       	mov	r15,	r12	
    b7b0:	3c f0 7f 00 	and	#127,	r12	;#0x007f
    b7b4:	0c dd       	bis	r13,	r12	
    b7b6:	4f 49       	mov.b	r9,	r15	
    b7b8:	0f 11       	rra	r15		
    b7ba:	0f 43       	clr	r15		
    b7bc:	0f 10       	rrc	r15		
    b7be:	0b 4e       	mov	r14,	r11	
    b7c0:	0d 4c       	mov	r12,	r13	
    b7c2:	0d df       	bis	r15,	r13	
    b7c4:	0f 4d       	mov	r13,	r15	
    b7c6:	38 17       	popm	#4,	r11	
    b7c8:	30 41       	ret			
    b7ca:	0d 93       	tst	r13		
    b7cc:	c6 23       	jnz	$-114    	;abs 0xb75a
    b7ce:	0c 4e       	mov	r14,	r12	
    b7d0:	0d 4f       	mov	r15,	r13	
    b7d2:	3c f0 80 00 	and	#128,	r12	;#0x0080
    b7d6:	0d f3       	and	#0,	r13	;r3 As==00
    b7d8:	0c 93       	tst	r12		
    b7da:	02 20       	jnz	$+6      	;abs 0xb7e0
    b7dc:	0d 93       	tst	r13		
    b7de:	c0 27       	jz	$-126    	;abs 0xb760
    b7e0:	3e 50 40 00 	add	#64,	r14	;#0x0040
    b7e4:	0f 63       	adc	r15		
    b7e6:	bc 3f       	jmp	$-134    	;abs 0xb760
    b7e8:	12 c3       	clrc			
    b7ea:	0f 10       	rrc	r15		
    b7ec:	0e 10       	rrc	r14		
    b7ee:	0c 4b       	mov	r11,	r12	
    b7f0:	3c 50 80 00 	add	#128,	r12	;#0x0080
    b7f4:	ba 3f       	jmp	$-138    	;abs 0xb76a
    b7f6:	7c 43       	mov.b	#-1,	r12	;r3 As==11
    b7f8:	0e 43       	clr	r14		
    b7fa:	0f 43       	clr	r15		
    b7fc:	d5 3f       	jmp	$-84     	;abs 0xb7a8
    b7fe:	0e d3       	bis	#0,	r14	;r3 As==00
    b800:	3f d0 10 00 	bis	#16,	r15	;#0x0010
    b804:	3e f3       	and	#-1,	r14	;r3 As==11
    b806:	3f f0 7f 00 	and	#127,	r15	;#0x007f
    b80a:	7c 43       	mov.b	#-1,	r12	;r3 As==11
    b80c:	cd 3f       	jmp	$-100    	;abs 0xb7a8
    b80e:	3d 40 82 ff 	mov	#-126,	r13	;#0xff82
    b812:	0d 8b       	sub	r11,	r13	
    b814:	3d 90 1a 00 	cmp	#26,	r13	;#0x001a
    b818:	50 34       	jge	$+162    	;abs 0xb8ba
    b81a:	4c 4d       	mov.b	r13,	r12	
    b81c:	7c f0 1f 00 	and.b	#31,	r12	;#0x001f
    b820:	0a 4e       	mov	r14,	r10	
    b822:	0b 4f       	mov	r15,	r11	
    b824:	05 24       	jz	$+12     	;abs 0xb830
    b826:	12 c3       	clrc			
    b828:	0b 10       	rrc	r11		
    b82a:	0a 10       	rrc	r10		
    b82c:	7c 53       	add.b	#-1,	r12	;r3 As==11
    b82e:	fb 23       	jnz	$-8      	;abs 0xb826
    b830:	48 4d       	mov.b	r13,	r8	
    b832:	78 f0 1f 00 	and.b	#31,	r8	;#0x001f
    b836:	1c 43       	mov	#1,	r12	;r3 As==01
    b838:	0d 43       	clr	r13		
    b83a:	04 24       	jz	$+10     	;abs 0xb844
    b83c:	0c 5c       	rla	r12		
    b83e:	0d 6d       	rlc	r13		
    b840:	78 53       	add.b	#-1,	r8	;r3 As==11
    b842:	fc 23       	jnz	$-6      	;abs 0xb83c
    b844:	3c 53       	add	#-1,	r12	;r3 As==11
    b846:	3d 63       	addc	#-1,	r13	;r3 As==11
    b848:	0c fe       	and	r14,	r12	
    b84a:	0d ff       	and	r15,	r13	
    b84c:	1e 43       	mov	#1,	r14	;r3 As==01
    b84e:	0f 43       	clr	r15		
    b850:	0c 93       	tst	r12		
    b852:	04 20       	jnz	$+10     	;abs 0xb85c
    b854:	0d 93       	tst	r13		
    b856:	02 20       	jnz	$+6      	;abs 0xb85c
    b858:	0e 43       	clr	r14		
    b85a:	0f 43       	clr	r15		
    b85c:	0c 4e       	mov	r14,	r12	
    b85e:	0d 4f       	mov	r15,	r13	
    b860:	0c da       	bis	r10,	r12	
    b862:	0d db       	bis	r11,	r13	
    b864:	0e 4c       	mov	r12,	r14	
    b866:	0f 4d       	mov	r13,	r15	
    b868:	3e f0 7f 00 	and	#127,	r14	;#0x007f
    b86c:	0f f3       	and	#0,	r15	;r3 As==00
    b86e:	3e 90 40 00 	cmp	#64,	r14	;#0x0040
    b872:	26 24       	jz	$+78     	;abs 0xb8c0
    b874:	3c 50 3f 00 	add	#63,	r12	;#0x003f
    b878:	0d 63       	adc	r13		
    b87a:	0e 4c       	mov	r12,	r14	
    b87c:	0f 4d       	mov	r13,	r15	
    b87e:	12 c3       	clrc			
    b880:	0f 10       	rrc	r15		
    b882:	0e 10       	rrc	r14		
    b884:	12 c3       	clrc			
    b886:	0f 10       	rrc	r15		
    b888:	0e 10       	rrc	r14		
    b88a:	12 c3       	clrc			
    b88c:	0f 10       	rrc	r15		
    b88e:	0e 10       	rrc	r14		
    b890:	12 c3       	clrc			
    b892:	0f 10       	rrc	r15		
    b894:	0e 10       	rrc	r14		
    b896:	12 c3       	clrc			
    b898:	0f 10       	rrc	r15		
    b89a:	0e 10       	rrc	r14		
    b89c:	12 c3       	clrc			
    b89e:	0f 10       	rrc	r15		
    b8a0:	0e 10       	rrc	r14		
    b8a2:	12 c3       	clrc			
    b8a4:	0f 10       	rrc	r15		
    b8a6:	0e 10       	rrc	r14		
    b8a8:	3e f3       	and	#-1,	r14	;r3 As==11
    b8aa:	3f f0 7f 00 	and	#127,	r15	;#0x007f
    b8ae:	5c 43       	mov.b	#1,	r12	;r3 As==01
    b8b0:	3d 90 00 40 	cmp	#16384,	r13	;#0x4000
    b8b4:	79 2f       	jc	$-268    	;abs 0xb7a8
    b8b6:	4c 43       	clr.b	r12		
    b8b8:	77 3f       	jmp	$-272    	;abs 0xb7a8
    b8ba:	0c 43       	clr	r12		
    b8bc:	0d 43       	clr	r13		
    b8be:	da 3f       	jmp	$-74     	;abs 0xb874
    b8c0:	0f 93       	tst	r15		
    b8c2:	d8 23       	jnz	$-78     	;abs 0xb874
    b8c4:	0e 4c       	mov	r12,	r14	
    b8c6:	0f 4d       	mov	r13,	r15	
    b8c8:	3e f0 80 00 	and	#128,	r14	;#0x0080
    b8cc:	0f f3       	and	#0,	r15	;r3 As==00
    b8ce:	0e 93       	tst	r14		
    b8d0:	04 24       	jz	$+10     	;abs 0xb8da
    b8d2:	3c 50 40 00 	add	#64,	r12	;#0x0040
    b8d6:	0d 63       	adc	r13		
    b8d8:	d0 3f       	jmp	$-94     	;abs 0xb87a
    b8da:	0f 93       	tst	r15		
    b8dc:	ce 27       	jz	$-98     	;abs 0xb87a
    b8de:	f9 3f       	jmp	$-12     	;abs 0xb8d2

0000b8e0 <__unpack_f>:
    b8e0:	3b 15       	pushm	#4,	r11	
    b8e2:	2a 4f       	mov	@r15,	r10	
    b8e4:	5d 4f 02 00 	mov.b	2(r15),	r13	;0x0002(r15)
    b8e8:	0b 4d       	mov	r13,	r11	
    b8ea:	3b f0 7f 00 	and	#127,	r11	;#0x007f
    b8ee:	08 4a       	mov	r10,	r8	
    b8f0:	09 4b       	mov	r11,	r9	
    b8f2:	1d 4f 02 00 	mov	2(r15),	r13	;0x0002(r15)
    b8f6:	5d 0f       	rrum	#4,	r13	
    b8f8:	5d 0b       	rrum	#3,	r13	
    b8fa:	4c 4d       	mov.b	r13,	r12	
    b8fc:	5f 4f 03 00 	mov.b	3(r15),	r15	;0x0003(r15)
    b900:	4f 5f       	rla.b	r15		
    b902:	0f 43       	clr	r15		
    b904:	0f 6f       	rlc	r15		
    b906:	ce 4f 01 00 	mov.b	r15,	1(r14)	;0x0001(r14)
    b90a:	0c 93       	tst	r12		
    b90c:	2c 20       	jnz	$+90     	;abs 0xb966
    b90e:	0a 93       	tst	r10		
    b910:	4f 24       	jz	$+160    	;abs 0xb9b0
    b912:	be 40 82 ff 02 00 	mov	#-126,	2(r14)	;#0xff82, 0x0002(r14)
    b918:	0c 48       	mov	r8,	r12	
    b91a:	0d 49       	mov	r9,	r13	
    b91c:	0c 5c       	rla	r12		
    b91e:	0d 6d       	rlc	r13		
    b920:	0c 5c       	rla	r12		
    b922:	0d 6d       	rlc	r13		
    b924:	0c 5c       	rla	r12		
    b926:	0d 6d       	rlc	r13		
    b928:	0c 5c       	rla	r12		
    b92a:	0d 6d       	rlc	r13		
    b92c:	0c 5c       	rla	r12		
    b92e:	0d 6d       	rlc	r13		
    b930:	0c 5c       	rla	r12		
    b932:	0d 6d       	rlc	r13		
    b934:	0c 5c       	rla	r12		
    b936:	0d 6d       	rlc	r13		
    b938:	fe 40 03 00 00 00 	mov.b	#3,	0(r14)	;#0x0003, 0x0000(r14)
    b93e:	3d 90 00 40 	cmp	#16384,	r13	;#0x4000
    b942:	0b 2c       	jc	$+24     	;abs 0xb95a
    b944:	3f 40 81 ff 	mov	#-127,	r15	;#0xff81
    b948:	0c 5c       	rla	r12		
    b94a:	0d 6d       	rlc	r13		
    b94c:	0b 4f       	mov	r15,	r11	
    b94e:	3f 53       	add	#-1,	r15	;r3 As==11
    b950:	3d 90 00 40 	cmp	#16384,	r13	;#0x4000
    b954:	f9 2b       	jnc	$-12     	;abs 0xb948
    b956:	8e 4b 02 00 	mov	r11,	2(r14)	;0x0002(r14)
    b95a:	8e 4c 04 00 	mov	r12,	4(r14)	;0x0004(r14)
    b95e:	8e 4d 06 00 	mov	r13,	6(r14)	;0x0006(r14)
    b962:	38 17       	popm	#4,	r11	
    b964:	30 41       	ret			
    b966:	3c 90 ff 00 	cmp	#255,	r12	;#0x00ff
    b96a:	28 24       	jz	$+82     	;abs 0xb9bc
    b96c:	3c 50 81 ff 	add	#-127,	r12	;#0xff81
    b970:	8e 4c 02 00 	mov	r12,	2(r14)	;0x0002(r14)
    b974:	fe 40 03 00 00 00 	mov.b	#3,	0(r14)	;#0x0003, 0x0000(r14)
    b97a:	0c 4a       	mov	r10,	r12	
    b97c:	0d 4b       	mov	r11,	r13	
    b97e:	0c 5c       	rla	r12		
    b980:	0d 6d       	rlc	r13		
    b982:	0c 5c       	rla	r12		
    b984:	0d 6d       	rlc	r13		
    b986:	0c 5c       	rla	r12		
    b988:	0d 6d       	rlc	r13		
    b98a:	0c 5c       	rla	r12		
    b98c:	0d 6d       	rlc	r13		
    b98e:	0c 5c       	rla	r12		
    b990:	0d 6d       	rlc	r13		
    b992:	0c 5c       	rla	r12		
    b994:	0d 6d       	rlc	r13		
    b996:	0c 5c       	rla	r12		
    b998:	0d 6d       	rlc	r13		
    b99a:	0a 4c       	mov	r12,	r10	
    b99c:	0b 4d       	mov	r13,	r11	
    b99e:	0a d3       	bis	#0,	r10	;r3 As==00
    b9a0:	3b d0 00 40 	bis	#16384,	r11	;#0x4000
    b9a4:	8e 4a 04 00 	mov	r10,	4(r14)	;0x0004(r14)
    b9a8:	8e 4b 06 00 	mov	r11,	6(r14)	;0x0006(r14)
    b9ac:	38 17       	popm	#4,	r11	
    b9ae:	30 41       	ret			
    b9b0:	0b 93       	tst	r11		
    b9b2:	af 23       	jnz	$-160    	;abs 0xb912
    b9b4:	ee 43 00 00 	mov.b	#2,	0(r14)	;r3 As==10, 0x0000(r14)
    b9b8:	38 17       	popm	#4,	r11	
    b9ba:	30 41       	ret			
    b9bc:	0a 93       	tst	r10		
    b9be:	0e 24       	jz	$+30     	;abs 0xb9dc
    b9c0:	0a f3       	and	#0,	r10	;r3 As==00
    b9c2:	3b f0 10 00 	and	#16,	r11	;#0x0010
    b9c6:	0a 93       	tst	r10		
    b9c8:	02 20       	jnz	$+6      	;abs 0xb9ce
    b9ca:	0b 93       	tst	r11		
    b9cc:	0c 24       	jz	$+26     	;abs 0xb9e6
    b9ce:	de 43 00 00 	mov.b	#1,	0(r14)	;r3 As==01, 0x0000(r14)
    b9d2:	8e 48 04 00 	mov	r8,	4(r14)	;0x0004(r14)
    b9d6:	8e 49 06 00 	mov	r9,	6(r14)	;0x0006(r14)
    b9da:	e8 3f       	jmp	$-46     	;abs 0xb9ac
    b9dc:	0b 93       	tst	r11		
    b9de:	f0 23       	jnz	$-30     	;abs 0xb9c0
    b9e0:	ee 42 00 00 	mov.b	#4,	0(r14)	;r2 As==10, 0x0000(r14)
    b9e4:	e3 3f       	jmp	$-56     	;abs 0xb9ac
    b9e6:	ce 43 00 00 	mov.b	#0,	0(r14)	;r3 As==00, 0x0000(r14)
    b9ea:	f3 3f       	jmp	$-24     	;abs 0xb9d2

0000b9ec <__fpcmp_parts_f>:
    b9ec:	0b 12       	push	r11		
    b9ee:	6d 4f       	mov.b	@r15,	r13	
    b9f0:	6d 93       	cmp.b	#2,	r13	;r3 As==10
    b9f2:	12 28       	jnc	$+38     	;abs 0xba18
    b9f4:	6c 4e       	mov.b	@r14,	r12	
    b9f6:	6c 93       	cmp.b	#2,	r12	;r3 As==10
    b9f8:	0f 28       	jnc	$+32     	;abs 0xba18
    b9fa:	6d 92       	cmp.b	#4,	r13	;r2 As==10
    b9fc:	41 24       	jz	$+132    	;abs 0xba80
    b9fe:	6c 92       	cmp.b	#4,	r12	;r2 As==10
    ba00:	11 24       	jz	$+36     	;abs 0xba24
    ba02:	6d 93       	cmp.b	#2,	r13	;r3 As==10
    ba04:	0d 24       	jz	$+28     	;abs 0xba20
    ba06:	6c 93       	cmp.b	#2,	r12	;r3 As==10
    ba08:	14 24       	jz	$+42     	;abs 0xba32
    ba0a:	5d 4f 01 00 	mov.b	1(r15),	r13	;0x0001(r15)
    ba0e:	5d 9e 01 00 	cmp.b	1(r14),	r13	;0x0001(r14)
    ba12:	14 24       	jz	$+42     	;abs 0xba3c
    ba14:	4d 93       	tst.b	r13		
    ba16:	09 20       	jnz	$+20     	;abs 0xba2a
    ba18:	1e 43       	mov	#1,	r14	;r3 As==01
    ba1a:	0f 4e       	mov	r14,	r15	
    ba1c:	3b 41       	pop	r11		
    ba1e:	30 41       	ret			
    ba20:	6c 93       	cmp.b	#2,	r12	;r3 As==10
    ba22:	28 24       	jz	$+82     	;abs 0xba74
    ba24:	ce 93 01 00 	tst.b	1(r14)		;0x0001(r14)
    ba28:	f7 23       	jnz	$-16     	;abs 0xba18
    ba2a:	3e 43       	mov	#-1,	r14	;r3 As==11
    ba2c:	0f 4e       	mov	r14,	r15	
    ba2e:	3b 41       	pop	r11		
    ba30:	30 41       	ret			
    ba32:	cf 93 01 00 	tst.b	1(r15)		;0x0001(r15)
    ba36:	f0 27       	jz	$-30     	;abs 0xba18
    ba38:	3e 43       	mov	#-1,	r14	;r3 As==11
    ba3a:	f8 3f       	jmp	$-14     	;abs 0xba2c
    ba3c:	1b 4f 02 00 	mov	2(r15),	r11	;0x0002(r15)
    ba40:	1c 4e 02 00 	mov	2(r14),	r12	;0x0002(r14)
    ba44:	0c 9b       	cmp	r11,	r12	
    ba46:	e6 3b       	jl	$-50     	;abs 0xba14
    ba48:	0b 9c       	cmp	r12,	r11	
    ba4a:	16 38       	jl	$+46     	;abs 0xba78
    ba4c:	1b 4f 04 00 	mov	4(r15),	r11	;0x0004(r15)
    ba50:	1f 4f 06 00 	mov	6(r15),	r15	;0x0006(r15)
    ba54:	1c 4e 04 00 	mov	4(r14),	r12	;0x0004(r14)
    ba58:	1e 4e 06 00 	mov	6(r14),	r14	;0x0006(r14)
    ba5c:	0e 9f       	cmp	r15,	r14	
    ba5e:	da 2b       	jnc	$-74     	;abs 0xba14
    ba60:	0f 9e       	cmp	r14,	r15	
    ba62:	02 28       	jnc	$+6      	;abs 0xba68
    ba64:	0c 9b       	cmp	r11,	r12	
    ba66:	d6 2b       	jnc	$-82     	;abs 0xba14
    ba68:	0f 9e       	cmp	r14,	r15	
    ba6a:	06 28       	jnc	$+14     	;abs 0xba78
    ba6c:	0e 9f       	cmp	r15,	r14	
    ba6e:	02 28       	jnc	$+6      	;abs 0xba74
    ba70:	0b 9c       	cmp	r12,	r11	
    ba72:	02 28       	jnc	$+6      	;abs 0xba78
    ba74:	0e 43       	clr	r14		
    ba76:	d1 3f       	jmp	$-92     	;abs 0xba1a
    ba78:	4d 93       	tst.b	r13		
    ba7a:	ce 23       	jnz	$-98     	;abs 0xba18
    ba7c:	3e 43       	mov	#-1,	r14	;r3 As==11
    ba7e:	d6 3f       	jmp	$-82     	;abs 0xba2c
    ba80:	6c 92       	cmp.b	#4,	r12	;r2 As==10
    ba82:	d7 23       	jnz	$-80     	;abs 0xba32
    ba84:	5e 4e 01 00 	mov.b	1(r14),	r14	;0x0001(r14)
    ba88:	5f 4f 01 00 	mov.b	1(r15),	r15	;0x0001(r15)
    ba8c:	0e 8f       	sub	r15,	r14	
    ba8e:	c5 3f       	jmp	$-116    	;abs 0xba1a

0000ba90 <memcpy>:
    ba90:	3b 15       	pushm	#4,	r11	
    ba92:	0d 93       	tst	r13		
    ba94:	6f 24       	jz	$+224    	;abs 0xbb74
    ba96:	0f 9e       	cmp	r14,	r15	
    ba98:	6d 24       	jz	$+220    	;abs 0xbb74
    ba9a:	35 2c       	jc	$+108    	;abs 0xbb06
    ba9c:	0c 4e       	mov	r14,	r12	
    ba9e:	0c df       	bis	r15,	r12	
    baa0:	1c f3       	and	#1,	r12	;r3 As==01
    baa2:	1d 24       	jz	$+60     	;abs 0xbade
    baa4:	0c 4e       	mov	r14,	r12	
    baa6:	0c ef       	xor	r15,	r12	
    baa8:	1c f3       	and	#1,	r12	;r3 As==01
    baaa:	07 20       	jnz	$+16     	;abs 0xbaba
    baac:	2d 93       	cmp	#2,	r13	;r3 As==10
    baae:	07 28       	jnc	$+16     	;abs 0xbabe
    bab0:	0c 4e       	mov	r14,	r12	
    bab2:	1c f3       	and	#1,	r12	;r3 As==01
    bab4:	2b 43       	mov	#2,	r11	;r3 As==10
    bab6:	0b 8c       	sub	r12,	r11	
    bab8:	03 3c       	jmp	$+8      	;abs 0xbac0
    baba:	0b 4d       	mov	r13,	r11	
    babc:	01 3c       	jmp	$+4      	;abs 0xbac0
    babe:	1b 43       	mov	#1,	r11	;r3 As==01
    bac0:	0d 8b       	sub	r11,	r13	
    bac2:	0c 43       	clr	r12		
    bac4:	09 4e       	mov	r14,	r9	
    bac6:	09 5c       	add	r12,	r9	
    bac8:	0a 4f       	mov	r15,	r10	
    baca:	0a 5c       	add	r12,	r10	
    bacc:	ea 49 00 00 	mov.b	@r9,	0(r10)	;0x0000(r10)
    bad0:	1c 53       	inc	r12		
    bad2:	0c 9b       	cmp	r11,	r12	
    bad4:	f7 23       	jnz	$-16     	;abs 0xbac4
    bad6:	0b 4f       	mov	r15,	r11	
    bad8:	0b 5c       	add	r12,	r11	
    bada:	0e 5c       	add	r12,	r14	
    badc:	01 3c       	jmp	$+4      	;abs 0xbae0
    bade:	0b 4f       	mov	r15,	r11	
    bae0:	0c 4d       	mov	r13,	r12	
    bae2:	5c 03       	rrum	#1,	r12	
    bae4:	0b 24       	jz	$+24     	;abs 0xbafc
    bae6:	0a 4c       	mov	r12,	r10	
    bae8:	08 4e       	mov	r14,	r8	
    baea:	09 4b       	mov	r11,	r9	
    baec:	b9 48 00 00 	mov	@r8+,	0(r9)	;0x0000(r9)
    baf0:	29 53       	incd	r9		
    baf2:	3a 53       	add	#-1,	r10	;r3 As==11
    baf4:	fb 23       	jnz	$-8      	;abs 0xbaec
    baf6:	5c 02       	rlam	#1,	r12	
    baf8:	0e 5c       	add	r12,	r14	
    bafa:	0b 5c       	add	r12,	r11	
    bafc:	1d f3       	and	#1,	r13	;r3 As==01
    bafe:	3a 24       	jz	$+118    	;abs 0xbb74
    bb00:	eb 4e 00 00 	mov.b	@r14,	0(r11)	;0x0000(r11)
    bb04:	37 3c       	jmp	$+112    	;abs 0xbb74
    bb06:	0e 5d       	add	r13,	r14	
    bb08:	0c 4f       	mov	r15,	r12	
    bb0a:	0c 5d       	add	r13,	r12	
    bb0c:	0b 4c       	mov	r12,	r11	
    bb0e:	0b de       	bis	r14,	r11	
    bb10:	1b f3       	and	#1,	r11	;r3 As==01
    bb12:	1b 24       	jz	$+56     	;abs 0xbb4a
    bb14:	0b 4c       	mov	r12,	r11	
    bb16:	0b ee       	xor	r14,	r11	
    bb18:	1b f3       	and	#1,	r11	;r3 As==01
    bb1a:	06 20       	jnz	$+14     	;abs 0xbb28
    bb1c:	3d 90 03 00 	cmp	#3,	r13	;#0x0003
    bb20:	03 28       	jnc	$+8      	;abs 0xbb28
    bb22:	0a 4e       	mov	r14,	r10	
    bb24:	1a f3       	and	#1,	r10	;r3 As==01
    bb26:	01 3c       	jmp	$+4      	;abs 0xbb2a
    bb28:	0a 4d       	mov	r13,	r10	
    bb2a:	0d 8a       	sub	r10,	r13	
    bb2c:	0b 4a       	mov	r10,	r11	
    bb2e:	3b 53       	add	#-1,	r11	;r3 As==11
    bb30:	3a e3       	inv	r10		
    bb32:	1a 53       	inc	r10		
    bb34:	0e 5a       	add	r10,	r14	
    bb36:	0c 5a       	add	r10,	r12	
    bb38:	09 4e       	mov	r14,	r9	
    bb3a:	09 5b       	add	r11,	r9	
    bb3c:	0a 4c       	mov	r12,	r10	
    bb3e:	0a 5b       	add	r11,	r10	
    bb40:	ea 49 00 00 	mov.b	@r9,	0(r10)	;0x0000(r10)
    bb44:	3b 53       	add	#-1,	r11	;r3 As==11
    bb46:	3b 93       	cmp	#-1,	r11	;r3 As==11
    bb48:	f7 23       	jnz	$-16     	;abs 0xbb38
    bb4a:	0a 4d       	mov	r13,	r10	
    bb4c:	5a 03       	rrum	#1,	r10	
    bb4e:	0d 24       	jz	$+28     	;abs 0xbb6a
    bb50:	0b 4a       	mov	r10,	r11	
    bb52:	08 4e       	mov	r14,	r8	
    bb54:	09 4c       	mov	r12,	r9	
    bb56:	28 83       	decd	r8		
    bb58:	29 83       	decd	r9		
    bb5a:	a9 48 00 00 	mov	@r8,	0(r9)	;0x0000(r9)
    bb5e:	3b 53       	add	#-1,	r11	;r3 As==11
    bb60:	fa 23       	jnz	$-10     	;abs 0xbb56
    bb62:	0b 8a       	sub	r10,	r11	
    bb64:	5b 02       	rlam	#1,	r11	
    bb66:	0e 5b       	add	r11,	r14	
    bb68:	0c 5b       	add	r11,	r12	
    bb6a:	1d f3       	and	#1,	r13	;r3 As==01
    bb6c:	03 24       	jz	$+8      	;abs 0xbb74
    bb6e:	dc 4e ff ff ff ff 	mov.b	-1(r14),-1(r12)	;0xffff(r14), 0xffff(r12)
    bb74:	38 17       	popm	#4,	r11	
    bb76:	30 41       	ret			

0000bb78 <memset>:
    bb78:	3b 15       	pushm	#4,	r11	
    bb7a:	3d 90 06 00 	cmp	#6,	r13	;#0x0006
    bb7e:	09 2c       	jc	$+20     	;abs 0xbb92
    bb80:	0d 5f       	add	r15,	r13	
    bb82:	0c 4f       	mov	r15,	r12	
    bb84:	03 3c       	jmp	$+8      	;abs 0xbb8c
    bb86:	cc 4e 00 00 	mov.b	r14,	0(r12)	;0x0000(r12)
    bb8a:	1c 53       	inc	r12		
    bb8c:	0c 9d       	cmp	r13,	r12	
    bb8e:	fb 23       	jnz	$-8      	;abs 0xbb86
    bb90:	1f 3c       	jmp	$+64     	;abs 0xbbd0
    bb92:	0b 4e       	mov	r14,	r11	
    bb94:	3b f0 ff 00 	and	#255,	r11	;#0x00ff
    bb98:	03 24       	jz	$+8      	;abs 0xbba0
    bb9a:	0c 4b       	mov	r11,	r12	
    bb9c:	8c 10       	swpb	r12		
    bb9e:	0b dc       	bis	r12,	r11	
    bba0:	1f b3       	bit	#1,	r15	;r3 As==01
    bba2:	06 24       	jz	$+14     	;abs 0xbbb0
    bba4:	3d 53       	add	#-1,	r13	;r3 As==11
    bba6:	cf 4e 00 00 	mov.b	r14,	0(r15)	;0x0000(r15)
    bbaa:	0a 4f       	mov	r15,	r10	
    bbac:	1a 53       	inc	r10		
    bbae:	01 3c       	jmp	$+4      	;abs 0xbbb2
    bbb0:	0a 4f       	mov	r15,	r10	
    bbb2:	0c 4d       	mov	r13,	r12	
    bbb4:	5c 03       	rrum	#1,	r12	
    bbb6:	08 4a       	mov	r10,	r8	
    bbb8:	09 4c       	mov	r12,	r9	
    bbba:	88 4b 00 00 	mov	r11,	0(r8)	;0x0000(r8)
    bbbe:	28 53       	incd	r8		
    bbc0:	39 53       	add	#-1,	r9	;r3 As==11
    bbc2:	fb 23       	jnz	$-8      	;abs 0xbbba
    bbc4:	5c 02       	rlam	#1,	r12	
    bbc6:	0c 5a       	add	r10,	r12	
    bbc8:	1d f3       	and	#1,	r13	;r3 As==01
    bbca:	02 24       	jz	$+6      	;abs 0xbbd0
    bbcc:	cc 4e 00 00 	mov.b	r14,	0(r12)	;0x0000(r12)
    bbd0:	38 17       	popm	#4,	r11	
    bbd2:	30 41       	ret			

0000bbd4 <_unexpected_>:
    bbd4:	00 13       	reti			

0000bbd6 <sig_USCI_B0_VECTOR>:
    bbd6:	0f 12       	push	r15		
    bbd8:	1f 42 fe 05 	mov	&0x05fe,r15	
    bbdc:	c2 93 44 1d 	tst.b	&0x1d44	
    bbe0:	04 20       	jnz	$+10     	;abs 0xbbea
    bbe2:	06 3c       	jmp	$+14     	;abs 0xbbf0
    bbe4:	5f 42 e1 05 	mov.b	&0x05e1,r15	
    bbe8:	03 3c       	jmp	$+8      	;abs 0xbbf0
    bbea:	d2 b3 e1 05 	bit.b	#1,	&0x05e1	;r3 As==01
    bbee:	fa 23       	jnz	$-10     	;abs 0xbbe4
    bbf0:	3f 41       	pop	r15		
    bbf2:	b1 c0 f0 00 00 00 	bic	#240,	0(r1)	;#0x00f0, 0x0000(r1)
    bbf8:	00 13       	reti			

0000bbfa <sig_USCI_B1_VECTOR>:
    bbfa:	0f 12       	push	r15		
    bbfc:	1f 42 3e 06 	mov	&0x063e,r15	
    bc00:	c2 93 68 1e 	tst.b	&0x1e68	
    bc04:	04 20       	jnz	$+10     	;abs 0xbc0e
    bc06:	06 3c       	jmp	$+14     	;abs 0xbc14
    bc08:	5f 42 21 06 	mov.b	&0x0621,r15	
    bc0c:	03 3c       	jmp	$+8      	;abs 0xbc14
    bc0e:	d2 b3 21 06 	bit.b	#1,	&0x0621	;r3 As==01
    bc12:	fa 23       	jnz	$-10     	;abs 0xbc08
    bc14:	3f 41       	pop	r15		
    bc16:	b1 c0 f0 00 00 00 	bic	#240,	0(r1)	;#0x00f0, 0x0000(r1)
    bc1c:	00 13       	reti			

0000bc1e <sig_USCI_A0_VECTOR>:
    bc1e:	0f 12       	push	r15		
    bc20:	1f 42 de 05 	mov	&0x05de,r15	
    bc24:	c2 93 cb 1d 	tst.b	&0x1dcb	
    bc28:	04 20       	jnz	$+10     	;abs 0xbc32
    bc2a:	06 3c       	jmp	$+14     	;abs 0xbc38
    bc2c:	5f 42 c1 05 	mov.b	&0x05c1,r15	
    bc30:	03 3c       	jmp	$+8      	;abs 0xbc38
    bc32:	d2 b3 c1 05 	bit.b	#1,	&0x05c1	;r3 As==01
    bc36:	fa 23       	jnz	$-10     	;abs 0xbc2c
    bc38:	3f 41       	pop	r15		
    bc3a:	b1 c0 f0 00 00 00 	bic	#240,	0(r1)	;#0x00f0, 0x0000(r1)
    bc40:	00 13       	reti			

0000bc42 <sig_USCI_A1_VECTOR>:
    bc42:	6f 15       	pushm	#7,	r15	
    bc44:	1e 42 1e 06 	mov	&0x061e,r14	
    bc48:	c2 93 36 1d 	tst.b	&0x1d36	
    bc4c:	e8 20       	jnz	$+466    	;abs 0xbe1e
    bc4e:	ee 3c       	jmp	$+478    	;abs 0xbe2c
    bc50:	5f 42 01 06 	mov.b	&0x0601,r15	
    bc54:	eb 3c       	jmp	$+472    	;abs 0xbe2c
    bc56:	4e 4e       	mov.b	r14,	r14	
    bc58:	6e 93       	cmp.b	#2,	r14	;r3 As==10
    bc5a:	31 20       	jnz	$+100    	;abs 0xbcbe
    bc5c:	5e 42 0a 06 	mov.b	&0x060a,r14	
    bc60:	5e 42 0c 06 	mov.b	&0x060c,r14	
    bc64:	5d 42 0a 06 	mov.b	&0x060a,r13	
    bc68:	1d 42 60 21 	mov	&0x2160,r13	
    bc6c:	0d 93       	tst	r13		
    bc6e:	0e 24       	jz	$+30     	;abs 0xbc8c
    bc70:	1f 42 38 1d 	mov	&0x1d38,r15	
    bc74:	0d 5f       	add	r15,	r13	
    bc76:	cd 4e 00 00 	mov.b	r14,	0(r13)	;0x0000(r13)
    bc7a:	1f 53       	inc	r15		
    bc7c:	82 4f 38 1d 	mov	r15,	&0x1d38	
    bc80:	82 9f 86 20 	cmp	r15,	&0x2086	
    bc84:	d3 20       	jnz	$+424    	;abs 0xbe2c
    bc86:	82 43 60 21 	mov	#0,	&0x2160	;r3 As==00
    bc8a:	d0 3c       	jmp	$+418    	;abs 0xbe2c
    bc8c:	4f 93       	tst.b	r15		
    bc8e:	ce 20       	jnz	$+414    	;abs 0xbe2c
    bc90:	7e 90 7e 00 	cmp.b	#126,	r14	;#0x007e
    bc94:	03 20       	jnz	$+8      	;abs 0xbc9c
    bc96:	4e 43       	clr.b	r14		
    bc98:	5f 43       	mov.b	#1,	r15	;r3 As==01
    bc9a:	0e 3c       	jmp	$+30     	;abs 0xbcb8
    bc9c:	7e 90 7d 00 	cmp.b	#125,	r14	;#0x007d
    bca0:	03 20       	jnz	$+8      	;abs 0xbca8
    bca2:	e2 d3 4a 1c 	bis.b	#2,	&0x1c4a	;r3 As==10
    bca6:	c2 3c       	jmp	$+390    	;abs 0xbe2c
    bca8:	e2 b3 4a 1c 	bit.b	#2,	&0x1c4a	;r3 As==10
    bcac:	04 24       	jz	$+10     	;abs 0xbcb6
    bcae:	e2 c3 4a 1c 	bic.b	#2,	&0x1c4a	;r3 As==10
    bcb2:	7e e0 20 00 	xor.b	#32,	r14	;#0x0020
    bcb6:	4f 43       	clr.b	r15		
    bcb8:	b0 12 d2 53 	call	#0x53d2	
    bcbc:	b7 3c       	jmp	$+368    	;abs 0xbe2c
    bcbe:	6e 92       	cmp.b	#4,	r14	;r2 As==10
    bcc0:	b5 20       	jnz	$+364    	;abs 0xbe2c
    bcc2:	1e 42 be 1d 	mov	&0x1dbe,r14	
    bcc6:	1d 42 e0 1c 	mov	&0x1ce0,r13	
    bcca:	0d 5e       	add	r14,	r13	
    bccc:	6c 4d       	mov.b	@r13,	r12	
    bcce:	1e 53       	inc	r14		
    bcd0:	82 4e be 1d 	mov	r14,	&0x1dbe	
    bcd4:	5d 43       	mov.b	#1,	r13	;r3 As==01
    bcd6:	1e 92 46 1d 	cmp	&0x1d46,r14	
    bcda:	02 24       	jz	$+6      	;abs 0xbce0
    bcdc:	4d 43       	clr.b	r13		
    bcde:	05 3c       	jmp	$+12     	;abs 0xbcea
    bce0:	5e 42 1c 06 	mov.b	&0x061c,r14	
    bce4:	6e c3       	bic.b	#2,	r14	;r3 As==10
    bce6:	c2 4e 1c 06 	mov.b	r14,	&0x061c	
    bcea:	c2 4c 0e 06 	mov.b	r12,	&0x060e	
    bcee:	4d 93       	tst.b	r13		
    bcf0:	9d 24       	jz	$+316    	;abs 0xbe2c
    bcf2:	82 43 e0 1c 	mov	#0,	&0x1ce0	;r3 As==00
    bcf6:	4f 93       	tst.b	r15		
    bcf8:	99 20       	jnz	$+308    	;abs 0xbe2c
    bcfa:	d2 b3 4a 1c 	bit.b	#1,	&0x1c4a	;r3 As==01
    bcfe:	08 24       	jz	$+18     	;abs 0xbd10
    bd00:	d2 c3 4a 1c 	bic.b	#1,	&0x1c4a	;r3 As==01
    bd04:	d2 42 e6 1f 19 1d 	mov.b	&0x1fe6,&0x1d19	
    bd0a:	b0 12 5c 58 	call	#0x585c	
    bd0e:	8e 3c       	jmp	$+286    	;abs 0xbe2c
    bd10:	5f 42 de 1f 	mov.b	&0x1fde,r15	
    bd14:	7f 53       	add.b	#-1,	r15	;r3 As==11
    bd16:	7f 92       	cmp.b	#8,	r15	;r2 As==11
    bd18:	7c 2c       	jc	$+250    	;abs 0xbe12
    bd1a:	4f 4f       	mov.b	r15,	r15	
    bd1c:	5f 02       	rlam	#1,	r15	
    bd1e:	10 4f d4 c1 	br	-15916(r15)	;0xc1d4(r15)
    bd22:	5f 42 c4 1d 	mov.b	&0x1dc4,r15	
    bd26:	b0 12 52 5b 	call	#0x5b52	
    bd2a:	0b 4f       	mov	r15,	r11	
    bd2c:	f2 40 03 00 de 1f 	mov.b	#3,	&0x1fde	;#0x0003
    bd32:	5e 42 c4 1d 	mov.b	&0x1dc4,r14	
    bd36:	0a 3c       	jmp	$+22     	;abs 0xbd4c
    bd38:	5f 42 4e 21 	mov.b	&0x214e,r15	
    bd3c:	b0 12 52 5b 	call	#0x5b52	
    bd40:	0b 4f       	mov	r15,	r11	
    bd42:	f2 40 03 00 de 1f 	mov.b	#3,	&0x1fde	;#0x0003
    bd48:	5e 42 4e 21 	mov.b	&0x214e,r14	
    bd4c:	1f 42 68 22 	mov	&0x2268,r15	
    bd50:	b0 12 ae 4a 	call	#0x4aae	
    bd54:	82 4f 68 22 	mov	r15,	&0x2268	
    bd58:	0f 4b       	mov	r11,	r15	
    bd5a:	59 3c       	jmp	$+180    	;abs 0xbe0e
    bd5c:	5f 42 c6 1e 	mov.b	&0x1ec6,r15	
    bd60:	5f 02       	rlam	#1,	r15	
    bd62:	3f 50 00 1e 	add	#7680,	r15	;#0x1e00
    bd66:	5f 4f 01 00 	mov.b	1(r15),	r15	;0x0001(r15)
    bd6a:	b0 12 52 5b 	call	#0x5b52	
    bd6e:	0b 4f       	mov	r15,	r11	
    bd70:	5a 42 c6 1e 	mov.b	&0x1ec6,r10	
    bd74:	49 4a       	mov.b	r10,	r9	
    bd76:	0f 49       	mov	r9,	r15	
    bd78:	5f 02       	rlam	#1,	r15	
    bd7a:	3f 50 00 1e 	add	#7680,	r15	;#0x1e00
    bd7e:	5e 4f 01 00 	mov.b	1(r15),	r14	;0x0001(r15)
    bd82:	1f 42 68 22 	mov	&0x2268,r15	
    bd86:	b0 12 ae 4a 	call	#0x4aae	
    bd8a:	82 4f 68 22 	mov	r15,	&0x2268	
    bd8e:	5d 42 b7 1d 	mov.b	&0x1db7,r13	
    bd92:	5d 53       	inc.b	r13		
    bd94:	c2 4d b7 1d 	mov.b	r13,	&0x1db7	
    bd98:	5a 93       	cmp.b	#1,	r10	;r3 As==01
    bd9a:	1c 20       	jnz	$+58     	;abs 0xbdd4
    bd9c:	5e 42 56 1c 	mov.b	&0x1c56,r14	
    bda0:	4f 4e       	mov.b	r14,	r15	
    bda2:	1f 52 5a 1c 	add	&0x1c5a,r15	
    bda6:	6f 4f       	mov.b	@r15,	r15	
    bda8:	5e 53       	inc.b	r14		
    bdaa:	c2 4e 56 1c 	mov.b	r14,	&0x1c56	
    bdae:	c2 9e 57 1c 	cmp.b	r14,	&0x1c57	
    bdb2:	03 2c       	jc	$+8      	;abs 0xbdba
    bdb4:	e2 43 02 1e 	mov.b	#2,	&0x1e02	;r3 As==10
    bdb8:	4f 43       	clr.b	r15		
    bdba:	0e 49       	mov	r9,	r14	
    bdbc:	5e 02       	rlam	#1,	r14	
    bdbe:	3e 50 00 1e 	add	#7680,	r14	;#0x1e00
    bdc2:	ee 93 00 00 	cmp.b	#2,	0(r14)	;r3 As==10, 0x0000(r14)
    bdc6:	06 24       	jz	$+14     	;abs 0xbdd4
    bdc8:	7d 93       	cmp.b	#-1,	r13	;r3 As==11
    bdca:	01 20       	jnz	$+4      	;abs 0xbdce
    bdcc:	03 3c       	jmp	$+8      	;abs 0xbdd4
    bdce:	ce 4f 01 00 	mov.b	r15,	1(r14)	;0x0001(r14)
    bdd2:	c2 3f       	jmp	$-122    	;abs 0xbd58
    bdd4:	e2 42 de 1f 	mov.b	#4,	&0x1fde	;r2 As==10
    bdd8:	bf 3f       	jmp	$-128    	;abs 0xbd58
    bdda:	5f 42 68 22 	mov.b	&0x2268,r15	
    bdde:	b0 12 52 5b 	call	#0x5b52	
    bde2:	f2 40 05 00 de 1f 	mov.b	#5,	&0x1fde	;#0x0005
    bde8:	12 3c       	jmp	$+38     	;abs 0xbe0e
    bdea:	1f 42 68 22 	mov	&0x2268,r15	
    bdee:	8f 10       	swpb	r15		
    bdf0:	b0 12 52 5b 	call	#0x5b52	
    bdf4:	f2 40 06 00 de 1f 	mov.b	#6,	&0x1fde	;#0x0006
    bdfa:	09 3c       	jmp	$+20     	;abs 0xbe0e
    bdfc:	b0 12 36 5b 	call	#0x5b36	
    be00:	f2 40 07 00 de 1f 	mov.b	#7,	&0x1fde	;#0x0007
    be06:	03 3c       	jmp	$+8      	;abs 0xbe0e
    be08:	f2 42 de 1f 	mov.b	#8,	&0x1fde	;r2 As==11
    be0c:	05 3c       	jmp	$+12     	;abs 0xbe18
    be0e:	0f 93       	tst	r15		
    be10:	0d 24       	jz	$+28     	;abs 0xbe2c
    be12:	f2 40 09 00 de 1f 	mov.b	#9,	&0x1fde	;#0x0009
    be18:	b0 12 be 50 	call	#0x50be	
    be1c:	07 3c       	jmp	$+16     	;abs 0xbe2c
    be1e:	d2 b3 01 06 	bit.b	#1,	&0x0601	;r3 As==01
    be22:	16 23       	jnz	$-466    	;abs 0xbc50
    be24:	5f 42 2c 1c 	mov.b	&0x1c2c,r15	
    be28:	7f 93       	cmp.b	#-1,	r15	;r3 As==11
    be2a:	15 23       	jnz	$-468    	;abs 0xbc56
    be2c:	69 17       	popm	#7,	r15	
    be2e:	b1 c0 f0 00 00 00 	bic	#240,	0(r1)	;#0x00f0, 0x0000(r1)
    be34:	00 13       	reti			

0000be36 <sig_TIMER0_A0_VECTOR>:
    be36:	3f 15       	pushm	#4,	r15	
    be38:	b0 12 24 61 	call	#0x6124	
    be3c:	3c 17       	popm	#4,	r15	
    be3e:	b1 c0 f0 00 00 00 	bic	#240,	0(r1)	;#0x00f0, 0x0000(r1)
    be44:	00 13       	reti			

0000be46 <sig_TIMER0_A1_VECTOR>:
    be46:	3f 15       	pushm	#4,	r15	
    be48:	1f 42 6e 03 	mov	&0x036e,r15	
    be4c:	4f 4f       	mov.b	r15,	r15	
    be4e:	5f 03       	rrum	#1,	r15	
    be50:	7f 92       	cmp.b	#8,	r15	;r2 As==11
    be52:	15 2c       	jc	$+44     	;abs 0xbe7e
    be54:	4f 4f       	mov.b	r15,	r15	
    be56:	5f 02       	rlam	#1,	r15	
    be58:	10 4f e4 c1 	br	-15900(r15)	;0xc1e4(r15)
    be5c:	b0 12 24 61 	call	#0x6124	
    be60:	0e 3c       	jmp	$+30     	;abs 0xbe7e
    be62:	b0 12 bc 62 	call	#0x62bc	
    be66:	0b 3c       	jmp	$+24     	;abs 0xbe7e
    be68:	b0 12 1e 6f 	call	#0x6f1e	
    be6c:	08 3c       	jmp	$+18     	;abs 0xbe7e
    be6e:	b0 12 ca 48 	call	#0x48ca	
    be72:	05 3c       	jmp	$+12     	;abs 0xbe7e
    be74:	b0 12 da 48 	call	#0x48da	
    be78:	02 3c       	jmp	$+6      	;abs 0xbe7e
    be7a:	b0 12 62 48 	call	#0x4862	
    be7e:	3c 17       	popm	#4,	r15	
    be80:	b1 c0 f0 00 00 00 	bic	#240,	0(r1)	;#0x00f0, 0x0000(r1)
    be86:	00 13       	reti			

0000be88 <sig_TIMER0_B0_VECTOR>:
    be88:	3f 15       	pushm	#4,	r15	
    be8a:	b0 12 ea 48 	call	#0x48ea	
    be8e:	3c 17       	popm	#4,	r15	
    be90:	b1 c0 f0 00 00 00 	bic	#240,	0(r1)	;#0x00f0, 0x0000(r1)
    be96:	00 13       	reti			

0000be98 <sig_TIMER0_B1_VECTOR>:
    be98:	3f 15       	pushm	#4,	r15	
    be9a:	1f 42 ee 03 	mov	&0x03ee,r15	
    be9e:	4f 4f       	mov.b	r15,	r15	
    bea0:	5f 03       	rrum	#1,	r15	
    bea2:	7f 90 07 00 	cmp.b	#7,	r15	;#0x0007
    bea6:	18 2c       	jc	$+50     	;abs 0xbed8
    bea8:	4f 4f       	mov.b	r15,	r15	
    beaa:	5f 02       	rlam	#1,	r15	
    beac:	10 4f f4 c1 	br	-15884(r15)	;0xc1f4(r15)
    beb0:	b0 12 ea 48 	call	#0x48ea	
    beb4:	11 3c       	jmp	$+36     	;abs 0xbed8
    beb6:	b0 12 fa 48 	call	#0x48fa	
    beba:	0e 3c       	jmp	$+30     	;abs 0xbed8
    bebc:	b0 12 0a 49 	call	#0x490a	
    bec0:	0b 3c       	jmp	$+24     	;abs 0xbed8
    bec2:	b0 12 1a 49 	call	#0x491a	
    bec6:	08 3c       	jmp	$+18     	;abs 0xbed8
    bec8:	b0 12 2a 49 	call	#0x492a	
    becc:	05 3c       	jmp	$+12     	;abs 0xbed8
    bece:	b0 12 3a 49 	call	#0x493a	
    bed2:	02 3c       	jmp	$+6      	;abs 0xbed8
    bed4:	b0 12 4a 49 	call	#0x494a	
    bed8:	3c 17       	popm	#4,	r15	
    beda:	b1 c0 f0 00 00 00 	bic	#240,	0(r1)	;#0x00f0, 0x0000(r1)
    bee0:	00 13       	reti			

0000bee2 <sig_TIMER1_A0_VECTOR>:
    bee2:	3f 15       	pushm	#4,	r15	
    bee4:	b0 12 72 8d 	call	#0x8d72	
    bee8:	3c 17       	popm	#4,	r15	
    beea:	b1 c0 f0 00 00 00 	bic	#240,	0(r1)	;#0x00f0, 0x0000(r1)
    bef0:	00 13       	reti			

0000bef2 <sig_TIMER1_A1_VECTOR>:
    bef2:	3f 15       	pushm	#4,	r15	
    bef4:	1f 42 ae 03 	mov	&0x03ae,r15	
    bef8:	4f 4f       	mov.b	r15,	r15	
    befa:	5f 03       	rrum	#1,	r15	
    befc:	5f 93       	cmp.b	#1,	r15	;r3 As==01
    befe:	07 24       	jz	$+16     	;abs 0xbf0e
    bf00:	03 28       	jnc	$+8      	;abs 0xbf08
    bf02:	6f 93       	cmp.b	#2,	r15	;r3 As==10
    bf04:	09 20       	jnz	$+20     	;abs 0xbf18
    bf06:	06 3c       	jmp	$+14     	;abs 0xbf14
    bf08:	b0 12 72 8d 	call	#0x8d72	
    bf0c:	05 3c       	jmp	$+12     	;abs 0xbf18
    bf0e:	b0 12 94 8d 	call	#0x8d94	
    bf12:	02 3c       	jmp	$+6      	;abs 0xbf18
    bf14:	b0 12 fa 4a 	call	#0x4afa	
    bf18:	3c 17       	popm	#4,	r15	
    bf1a:	b1 c0 f0 00 00 00 	bic	#240,	0(r1)	;#0x00f0, 0x0000(r1)
    bf20:	00 13       	reti			

0000bf22 <sig_TIMER2_A0_VECTOR>:
    bf22:	3f 15       	pushm	#4,	r15	
    bf24:	b0 12 12 4b 	call	#0x4b12	
    bf28:	3c 17       	popm	#4,	r15	
    bf2a:	b1 c0 f0 00 00 00 	bic	#240,	0(r1)	;#0x00f0, 0x0000(r1)
    bf30:	00 13       	reti			

0000bf32 <sig_TIMER2_A1_VECTOR>:
    bf32:	3f 15       	pushm	#4,	r15	
    bf34:	1f 42 2e 04 	mov	&0x042e,r15	
    bf38:	4f 4f       	mov.b	r15,	r15	
    bf3a:	5f 03       	rrum	#1,	r15	
    bf3c:	5f 93       	cmp.b	#1,	r15	;r3 As==01
    bf3e:	07 24       	jz	$+16     	;abs 0xbf4e
    bf40:	03 28       	jnc	$+8      	;abs 0xbf48
    bf42:	6f 93       	cmp.b	#2,	r15	;r3 As==10
    bf44:	09 20       	jnz	$+20     	;abs 0xbf58
    bf46:	06 3c       	jmp	$+14     	;abs 0xbf54
    bf48:	b0 12 12 4b 	call	#0x4b12	
    bf4c:	05 3c       	jmp	$+12     	;abs 0xbf58
    bf4e:	b0 12 22 4b 	call	#0x4b22	
    bf52:	02 3c       	jmp	$+6      	;abs 0xbf58
    bf54:	b0 12 32 4b 	call	#0x4b32	
    bf58:	3c 17       	popm	#4,	r15	
    bf5a:	b1 c0 f0 00 00 00 	bic	#240,	0(r1)	;#0x00f0, 0x0000(r1)
    bf60:	00 13       	reti			

0000bf62 <sig_ADC12_VECTOR>:
    bf62:	5f 15       	pushm	#6,	r15	
    bf64:	21 82       	sub	#4,	r1	;r2 As==10
    bf66:	1f 42 0e 07 	mov	&0x070e,r15	
    bf6a:	3f 90 05 00 	cmp	#5,	r15	;#0x0005
    bf6e:	16 2c       	jc	$+46     	;abs 0xbf9c
    bf70:	b0 12 1e 4a 	call	#0x4a1e	
    bf74:	c1 4f 02 00 	mov.b	r15,	2(r1)	;0x0002(r1)
    bf78:	8f 10       	swpb	r15		
    bf7a:	c1 4f 03 00 	mov.b	r15,	3(r1)	;0x0003(r1)
    bf7e:	91 41 02 00 00 00 	mov	2(r1),	0(r1)	;0x0002(r1), 0x0000(r1)
    bf84:	6f 41       	mov.b	@r1,	r15	
    bf86:	1e 42 0c 07 	mov	&0x070c,r14	
    bf8a:	0e 93       	tst	r14		
    bf8c:	a8 24       	jz	$+338    	;abs 0xc0de
    bf8e:	7f e3       	xor.b	#-1,	r15	;r3 As==11
    bf90:	4f 4f       	mov.b	r15,	r15	
    bf92:	4f 5f       	rla.b	r15		
    bf94:	0f 43       	clr	r15		
    bf96:	0f 6f       	rlc	r15		
    bf98:	4f 4f       	mov.b	r15,	r15	
    bf9a:	01 3c       	jmp	$+4      	;abs 0xbf9e
    bf9c:	4f 43       	clr.b	r15		
    bf9e:	5e 42 5e 1e 	mov.b	&0x1e5e,r14	
    bfa2:	7e f0 1f 00 	and.b	#31,	r14	;#0x001f
    bfa6:	7e 53       	add.b	#-1,	r14	;r3 As==11
    bfa8:	7e 90 10 00 	cmp.b	#16,	r14	;#0x0010
    bfac:	96 2c       	jc	$+302    	;abs 0xc0da
    bfae:	4e 4e       	mov.b	r14,	r14	
    bfb0:	5e 02       	rlam	#1,	r14	
    bfb2:	10 4e 04 c2 	br	-15868(r14)	;0xc204(r14)
    bfb6:	b0 12 d6 5b 	call	#0x5bd6	
    bfba:	1e 42 20 07 	mov	&0x0720,r14	
    bfbe:	5f 42 82 1c 	mov.b	&0x1c82,r15	
    bfc2:	b0 12 ea 8d 	call	#0x8dea	
    bfc6:	8b 3c       	jmp	$+280    	;abs 0xc0de
    bfc8:	1e 42 20 07 	mov	&0x0720,r14	
    bfcc:	5f 42 82 1c 	mov.b	&0x1c82,r15	
    bfd0:	b0 12 ea 8d 	call	#0x8dea	
    bfd4:	0f 93       	tst	r15		
    bfd6:	83 24       	jz	$+264    	;abs 0xc0de
    bfd8:	80 3c       	jmp	$+258    	;abs 0xc0da
    bfda:	1d 42 84 1c 	mov	&0x1c84,r13	
    bfde:	5d 02       	rlam	#1,	r13	
    bfe0:	1d 52 04 1e 	add	&0x1e04,r13	
    bfe4:	5b 42 2e 1d 	mov.b	&0x1d2e,r11	
    bfe8:	0e 43       	clr	r14		
    bfea:	0c 4e       	mov	r14,	r12	
    bfec:	3c f0 ff 00 	and	#255,	r12	;#0x00ff
    bff0:	5c 02       	rlam	#1,	r12	
    bff2:	3c 50 20 07 	add	#1824,	r12	;#0x0720
    bff6:	2a 4c       	mov	@r12,	r10	
    bff8:	0c 4e       	mov	r14,	r12	
    bffa:	5c 02       	rlam	#1,	r12	
    bffc:	0c 5d       	add	r13,	r12	
    bffe:	8c 4a 00 00 	mov	r10,	0(r12)	;0x0000(r12)
    c002:	1e 53       	inc	r14		
    c004:	0e 9b       	cmp	r11,	r14	
    c006:	f1 2b       	jnc	$-28     	;abs 0xbfea
    c008:	0e 4b       	mov	r11,	r14	
    c00a:	1e 52 84 1c 	add	&0x1c84,r14	
    c00e:	82 4e 84 1c 	mov	r14,	&0x1c84	
    c012:	4f 93       	tst.b	r15		
    c014:	03 20       	jnz	$+8      	;abs 0xc01c
    c016:	82 9e e6 1c 	cmp	r14,	&0x1ce6	
    c01a:	61 20       	jnz	$+196    	;abs 0xc0de
    c01c:	b0 12 d6 5b 	call	#0x5bd6	
    c020:	82 43 84 1c 	mov	#0,	&0x1c84	;r3 As==00
    c024:	5c 3c       	jmp	$+186    	;abs 0xc0de
    c026:	1c 42 84 1c 	mov	&0x1c84,r12	
    c02a:	0b 4c       	mov	r12,	r11	
    c02c:	5b 02       	rlam	#1,	r11	
    c02e:	1b 52 04 1e 	add	&0x1e04,r11	
    c032:	1e 42 e6 1c 	mov	&0x1ce6,r14	
    c036:	0e 8c       	sub	r12,	r14	
    c038:	0c 4e       	mov	r14,	r12	
    c03a:	3e 90 11 00 	cmp	#17,	r14	;#0x0011
    c03e:	02 28       	jnc	$+6      	;abs 0xc044
    c040:	3c 40 10 00 	mov	#16,	r12	;#0x0010
    c044:	0e 43       	clr	r14		
    c046:	0d 4e       	mov	r14,	r13	
    c048:	3d f0 ff 00 	and	#255,	r13	;#0x00ff
    c04c:	5d 02       	rlam	#1,	r13	
    c04e:	3d 50 20 07 	add	#1824,	r13	;#0x0720
    c052:	2a 4d       	mov	@r13,	r10	
    c054:	0d 4e       	mov	r14,	r13	
    c056:	5d 02       	rlam	#1,	r13	
    c058:	0d 5b       	add	r11,	r13	
    c05a:	8d 4a 00 00 	mov	r10,	0(r13)	;0x0000(r13)
    c05e:	1e 53       	inc	r14		
    c060:	0e 9c       	cmp	r12,	r14	
    c062:	f1 2b       	jnc	$-28     	;abs 0xc046
    c064:	1c 52 84 1c 	add	&0x1c84,r12	
    c068:	82 4c 84 1c 	mov	r12,	&0x1c84	
    c06c:	4f 93       	tst.b	r15		
    c06e:	04 20       	jnz	$+10     	;abs 0xc078
    c070:	1f 42 e6 1c 	mov	&0x1ce6,r15	
    c074:	0f 9c       	cmp	r12,	r15	
    c076:	09 20       	jnz	$+20     	;abs 0xc08a
    c078:	b0 12 d6 5b 	call	#0x5bd6	
    c07c:	82 43 84 1c 	mov	#0,	&0x1c84	;r3 As==00
    c080:	5f 42 82 1c 	mov.b	&0x1c82,r15	
    c084:	b0 12 7e 90 	call	#0x907e	
    c088:	2a 3c       	jmp	$+86     	;abs 0xc0de
    c08a:	0f 8c       	sub	r12,	r15	
    c08c:	3f 90 10 00 	cmp	#16,	r15	;#0x0010
    c090:	26 2c       	jc	$+78     	;abs 0xc0de
    c092:	4f 43       	clr.b	r15		
    c094:	b0 12 a4 4a 	call	#0x4aa4	
    c098:	4e 4f       	mov.b	r15,	r14	
    c09a:	7e d0 80 ff 	bis.b	#-128,	r14	;#0xff80
    c09e:	5f 42 e6 1c 	mov.b	&0x1ce6,r15	
    c0a2:	5f 82 84 1c 	sub.b	&0x1c84,r15	
    c0a6:	b0 12 10 4a 	call	#0x4a10	
    c0aa:	19 3c       	jmp	$+52     	;abs 0xc0de
    c0ac:	1d 42 04 1e 	mov	&0x1e04,r13	
    c0b0:	4e 43       	clr.b	r14		
    c0b2:	4f 4e       	mov.b	r14,	r15	
    c0b4:	5f 02       	rlam	#1,	r15	
    c0b6:	3f 50 20 07 	add	#1824,	r15	;#0x0720
    c0ba:	ad 4f 00 00 	mov	@r15,	0(r13)	;0x0000(r13)
    c0be:	2d 53       	incd	r13		
    c0c0:	5e 53       	inc.b	r14		
    c0c2:	4f 4e       	mov.b	r14,	r15	
    c0c4:	1f 92 e6 1c 	cmp	&0x1ce6,r15	
    c0c8:	f4 2b       	jnc	$-22     	;abs 0xc0b2
    c0ca:	5f 42 82 1c 	mov.b	&0x1c82,r15	
    c0ce:	b0 12 7e 90 	call	#0x907e	
    c0d2:	82 4f 04 1e 	mov	r15,	&0x1e04	
    c0d6:	0f 93       	tst	r15		
    c0d8:	02 20       	jnz	$+6      	;abs 0xc0de
    c0da:	b0 12 d6 5b 	call	#0x5bd6	
    c0de:	21 52       	add	#4,	r1	;r2 As==10
    c0e0:	5a 17       	popm	#6,	r15	
    c0e2:	b1 c0 f0 00 00 00 	bic	#240,	0(r1)	;#0x00f0, 0x0000(r1)
    c0e8:	00 13       	reti			

Disassembly of section .vectors:

0000ff80 <__ivtbl_64>:
    ff80:	ff ff ff ff ff ff ff ff ff ff ff ff ff ff ff ff     ................
    ff90:	ff ff ff ff ff ff ff ff ff ff ff ff ff ff ff ff     ................
    ffa0:	ff ff ff ff ff ff ff ff ff ff ff ff ff ff ff ff     ................
    ffb0:	ff ff ff ff ff ff ff ff ff ff ff ff ff ff ff ff     ................
    ffc0:	5e 48 5e 48 5e 48 5e 48 5e 48 5e 48 5e 48 5e 48     ^H^H^H^H^H^H^H^H
    ffd0:	5e 48 5e 48 5e 48 32 bf 22 bf fa bb 42 bc 5e 48     ^H^H^H2."...B.^H
    ffe0:	f2 be e2 be 5e 48 5e 48 46 be 36 be 62 bf d6 bb     ....^H^HF.6.b...
    fff0:	1e bc 5e 48 98 be 88 be 5e 48 5e 48 5e 48 00 44     ..^H....^H^H^H.D
