
build/wren/main.exe:     file format elf32-msp430


Disassembly of section .text:

00004400 <__watchdog_support>:
    4400:	55 42 5c 01 	mov.b	&0x015c,r5	
    4404:	35 d0 08 5a 	bis	#23048,	r5	;#0x5a08
    4408:	82 45 fe 37 	mov	r5,	&0x37fe	

0000440c <__init_stack>:
    440c:	31 40 00 44 	mov	#17408,	r1	;#0x4400

00004410 <__do_copy_data>:
    4410:	3f 40 46 00 	mov	#70,	r15	;#0x0046
    4414:	0f 93       	tst	r15		
    4416:	08 24       	jz	$+18     	;abs 0x4428
    4418:	92 42 fe 37 5c 01 	mov	&0x37fe,&0x015c	
    441e:	2f 83       	decd	r15		
    4420:	9f 4f 84 d0 00 1c 	mov	-12156(r15),7168(r15);0xd084(r15), 0x1c00(r15)
    4426:	f8 23       	jnz	$-14     	;abs 0x4418

00004428 <__do_clear_bss>:
    4428:	3f 40 b2 1a 	mov	#6834,	r15	;#0x1ab2
    442c:	0f 93       	tst	r15		
    442e:	07 24       	jz	$+16     	;abs 0x443e
    4430:	92 42 fe 37 5c 01 	mov	&0x37fe,&0x015c	
    4436:	1f 83       	dec	r15		
    4438:	cf 43 46 1c 	mov.b	#0,	7238(r15);r3 As==00, 0x1c46(r15)
    443c:	f9 23       	jnz	$-12     	;abs 0x4430

0000443e <main>:
    443e:	31 82       	sub	#8,	r1	;r2 As==11
    4440:	0b 42       	mov	r2,	r11	
    4442:	3b f2       	and	#8,	r11	;r2 As==11
    4444:	32 c2       	dint			
    4446:	03 43       	nop			
    4448:	3d 40 2e 00 	mov	#46,	r13	;#0x002e
    444c:	3e 40 ff 00 	mov	#255,	r14	;#0x00ff
    4450:	3f 40 9c 1e 	mov	#7836,	r15	;#0x1e9c
    4454:	b0 12 f8 c6 	call	#0xc6f8	
    4458:	f2 43 4c 24 	mov.b	#-1,	&0x244c	;r3 As==11
    445c:	f2 43 d7 36 	mov.b	#-1,	&0x36d7	;r3 As==11
    4460:	e2 c2 44 02 	bic.b	#4,	&0x0244	;r2 As==10
    4464:	e2 c2 42 02 	bic.b	#4,	&0x0242	;r2 As==10
    4468:	b0 12 1e 50 	call	#0x501e	
    446c:	b0 12 30 50 	call	#0x5030	
    4470:	f2 d2 44 02 	bis.b	#8,	&0x0244	;r2 As==11
    4474:	b0 12 42 50 	call	#0x5042	
    4478:	f2 d0 80 ff 25 02 	bis.b	#-128,	&0x0225	;#0xff80
    447e:	b0 12 54 50 	call	#0x5054	
    4482:	b2 40 d7 22 0e 34 	mov	#8919,	&0x340e	;#0x22d7
    4488:	c2 43 24 22 	mov.b	#0,	&0x2224	;r3 As==00
    448c:	f2 40 5a 00 3c 24 	mov.b	#90,	&0x243c	;#0x005a
    4492:	b2 40 80 5a 5c 01 	mov	#23168,	&0x015c	;#0x5a80
    4498:	e2 d3 45 02 	bis.b	#2,	&0x0245	;r3 As==10
    449c:	e2 d2 45 02 	bis.b	#4,	&0x0245	;r2 As==10
    44a0:	f2 d0 80 ff 44 02 	bis.b	#-128,	&0x0244	;#0xff80
    44a6:	b0 12 68 50 	call	#0x5068	
    44aa:	b0 12 7a 50 	call	#0x507a	
    44ae:	b0 12 8c 50 	call	#0x508c	
    44b2:	f2 d0 30 00 4a 02 	bis.b	#48,	&0x024a	;#0x0030
    44b8:	92 c3 6c 01 	bic	#1,	&0x016c	;r3 As==01
    44bc:	b2 d0 10 00 6c 01 	bis	#16,	&0x016c	;#0x0010
    44c2:	82 43 f6 23 	mov	#0,	&0x23f6	;r3 As==00
    44c6:	92 53 f6 23 	inc	&0x23f6	
    44ca:	b2 f0 fc ff 6e 01 	and	#-4,	&0x016e	;#0xfffc
    44d0:	a2 c3 02 01 	bic	#2,	&0x0102	;r3 As==10
    44d4:	03 43       	nop			
    44d6:	03 43       	nop			
    44d8:	a2 b3 02 01 	bit	#2,	&0x0102	;r3 As==10
    44dc:	03 24       	jz	$+8      	;abs 0x44e4
    44de:	82 93 f6 23 	tst	&0x23f6	
    44e2:	f1 23       	jnz	$-28     	;abs 0x44c6
    44e4:	a2 b3 6e 01 	bit	#2,	&0x016e	;r3 As==10
    44e8:	07 24       	jz	$+16     	;abs 0x44f8
    44ea:	f2 f0 cf ff 4a 02 	and.b	#-49,	&0x024a	;#0xffcf
    44f0:	92 d3 6c 01 	bis	#1,	&0x016c	;r3 As==01
    44f4:	03 43       	nop			
    44f6:	fe 3f       	jmp	$-2      	;abs 0x44f4
    44f8:	b2 f0 3f ff 6c 01 	and	#-193,	&0x016c	;#0xff3f
    44fe:	b0 12 06 4e 	call	#0x4e06	
    4502:	32 d0 40 00 	bis	#64,	r2	;#0x0040
    4506:	82 43 66 01 	mov	#0,	&0x0166	;r3 As==00
    450a:	82 43 60 01 	mov	#0,	&0x0160	;r3 As==00
    450e:	b2 40 40 00 62 01 	mov	#64,	&0x0162	;#0x0040
    4514:	b2 40 f3 00 64 01 	mov	#243,	&0x0164	;#0x00f3
    451a:	32 c0 40 00 	bic	#64,	r2	;#0x0040
    451e:	82 43 f6 23 	mov	#0,	&0x23f6	;r3 As==00
    4522:	d2 43 fa 36 	mov.b	#1,	&0x36fa	;r3 As==01
    4526:	1a 42 f6 23 	mov	&0x23f6,r10	
    452a:	1a 53       	inc	r10		
    452c:	82 4a f6 23 	mov	r10,	&0x23f6	
    4530:	c2 93 fa 36 	tst.b	&0x36fa	
    4534:	0b 24       	jz	$+24     	;abs 0x454c
    4536:	3d 40 00 01 	mov	#256,	r13	;#0x0100
    453a:	0e 43       	clr	r14		
    453c:	3f 40 fc 36 	mov	#14076,	r15	;#0x36fc
    4540:	b0 12 f8 c6 	call	#0xc6f8	
    4544:	c2 43 fa 36 	mov.b	#0,	&0x36fa	;r3 As==00
    4548:	82 43 f8 36 	mov	#0,	&0x36f8	;r3 As==00
    454c:	b2 90 80 00 f8 36 	cmp	#128,	&0x36f8	;#0x0080
    4552:	02 28       	jnc	$+6      	;abs 0x4558
    4554:	82 43 f8 36 	mov	#0,	&0x36f8	;r3 As==00
    4558:	1f 42 f8 36 	mov	&0x36f8,r15	
    455c:	1d 42 60 01 	mov	&0x0160,r13	
    4560:	0e 4f       	mov	r15,	r14	
    4562:	5e 02       	rlam	#1,	r14	
    4564:	8e 4d fc 36 	mov	r13,	14076(r14);0x36fc(r14)
    4568:	1f 53       	inc	r15		
    456a:	82 4f f8 36 	mov	r15,	&0x36f8	
    456e:	1a 92 fc 37 	cmp	&0x37fc,r10	
    4572:	01 20       	jnz	$+4      	;abs 0x4576
    4574:	03 43       	nop			
    4576:	82 93 f6 23 	tst	&0x23f6	
    457a:	d5 23       	jnz	$-84     	;abs 0x4526
    457c:	b2 f0 fc ff 6e 01 	and	#-4,	&0x016e	;#0xfffc
    4582:	a2 c3 02 01 	bic	#2,	&0x0102	;r3 As==10
    4586:	92 b3 6e 01 	bit	#1,	&0x016e	;r3 As==01
    458a:	f8 23       	jnz	$-14     	;abs 0x457c
    458c:	b2 40 33 00 68 01 	mov	#51,	&0x0168	;#0x0033
    4592:	82 43 6a 01 	mov	#0,	&0x016a	;r3 As==00
    4596:	b2 40 26 01 40 03 	mov	#294,	&0x0340	;#0x0126
    459c:	82 43 50 03 	mov	#0,	&0x0350	;r3 As==00
    45a0:	b2 40 e6 02 80 03 	mov	#742,	&0x0380	;#0x02e6
    45a6:	82 43 90 03 	mov	#0,	&0x0390	;r3 As==00
    45aa:	b2 40 12 00 00 01 	mov	#18,	&0x0100	;#0x0012
    45b0:	b0 12 a0 50 	call	#0x50a0	
    45b4:	1f 42 00 19 	mov	&0x1900,r15	
    45b8:	0e 4f       	mov	r15,	r14	
    45ba:	3e 53       	add	#-1,	r14	;r3 As==11
    45bc:	3e 90 fe ff 	cmp	#-2,	r14	;#0xfffe
    45c0:	04 2c       	jc	$+10     	;abs 0x45ca
    45c2:	82 4f 44 1c 	mov	r15,	&0x1c44	
    45c6:	82 4f 24 1c 	mov	r15,	&0x1c24	
    45ca:	f2 d0 20 00 04 02 	bis.b	#32,	&0x0204	;#0x0020
    45d0:	f2 d0 20 00 02 02 	bis.b	#32,	&0x0202	;#0x0020
    45d6:	f2 d0 c1 ff 25 02 	bis.b	#-63,	&0x0225	;#0xffc1
    45dc:	f2 d0 c1 ff 23 02 	bis.b	#-63,	&0x0223	;#0xffc1
    45e2:	f2 d0 80 ff 44 02 	bis.b	#-128,	&0x0244	;#0xff80
    45e8:	f2 d0 80 ff 42 02 	bis.b	#-128,	&0x0242	;#0xff80
    45ee:	f2 d0 06 00 45 02 	bis.b	#6,	&0x0245	;#0x0006
    45f4:	f2 d0 06 00 43 02 	bis.b	#6,	&0x0243	;#0x0006
    45fa:	f2 d2 44 02 	bis.b	#8,	&0x0244	;r2 As==11
    45fe:	f2 d2 42 02 	bis.b	#8,	&0x0242	;r2 As==11
    4602:	b2 d0 05 00 24 03 	bis	#5,	&0x0324	;#0x0005
    4608:	b2 d0 05 00 22 03 	bis	#5,	&0x0322	;#0x0005
    460e:	b0 12 f4 4b 	call	#0x4bf4	
    4612:	7f 93       	cmp.b	#-1,	r15	;r3 As==11
    4614:	03 24       	jz	$+8      	;abs 0x461c
    4616:	b0 12 06 9c 	call	#0x9c06	
    461a:	f9 3f       	jmp	$-12     	;abs 0x460e
    461c:	b2 40 6e 1e 4e 24 	mov	#7790,	&0x244e	;#0x1e6e
    4622:	c2 43 3c 21 	mov.b	#0,	&0x213c	;r3 As==00
    4626:	b0 12 68 4d 	call	#0x4d68	
    462a:	82 43 0e 07 	mov	#0,	&0x070e	;r3 As==00
    462e:	82 43 0a 07 	mov	#0,	&0x070a	;r3 As==00
    4632:	b0 12 90 4b 	call	#0x4b90	
    4636:	c1 4f 06 00 	mov.b	r15,	6(r1)	;0x0006(r1)
    463a:	8f 10       	swpb	r15		
    463c:	c1 4f 07 00 	mov.b	r15,	7(r1)	;0x0007(r1)
    4640:	91 41 06 00 02 00 	mov	6(r1),	2(r1)	;0x0006(r1), 0x0002(r1)
    4646:	a1 d2 02 00 	bis	#4,	2(r1)	;r2 As==10, 0x0002(r1)
    464a:	1f 41 02 00 	mov	2(r1),	r15	;0x0002(r1)
    464e:	3f d2       	bis	#8,	r15	;r2 As==11
    4650:	81 4f 02 00 	mov	r15,	2(r1)	;0x0002(r1)
    4654:	81 4f 00 00 	mov	r15,	0(r1)	;0x0000(r1)
    4658:	b0 12 74 4b 	call	#0x4b74	
    465c:	b2 f0 7f ff b0 01 	and	#-129,	&0x01b0	;#0xff7f
    4662:	c2 43 54 24 	mov.b	#0,	&0x2454	;r3 As==00
    4666:	e2 c3 44 02 	bic.b	#2,	&0x0244	;r3 As==10
    466a:	e2 b3 44 02 	bit.b	#2,	&0x0244	;r3 As==10
    466e:	04 20       	jnz	$+10     	;abs 0x4678
    4670:	e2 d3 46 02 	bis.b	#2,	&0x0246	;r3 As==10
    4674:	e2 d3 42 02 	bis.b	#2,	&0x0242	;r3 As==10
    4678:	d2 c3 44 02 	bic.b	#1,	&0x0244	;r3 As==01
    467c:	d2 b3 44 02 	bit.b	#1,	&0x0244	;r3 As==01
    4680:	04 20       	jnz	$+10     	;abs 0x468a
    4682:	d2 d3 46 02 	bis.b	#1,	&0x0246	;r3 As==01
    4686:	d2 d3 42 02 	bis.b	#1,	&0x0242	;r3 As==01
    468a:	f2 d0 10 00 45 02 	bis.b	#16,	&0x0245	;#0x0010
    4690:	f2 f0 ef ff 43 02 	and.b	#-17,	&0x0243	;#0xffef
    4696:	d2 d3 0a 02 	bis.b	#1,	&0x020a	;r3 As==01
    469a:	d2 d3 04 02 	bis.b	#1,	&0x0204	;r3 As==01
    469e:	c2 43 6c 20 	mov.b	#0,	&0x206c	;r3 As==00
    46a2:	c2 43 6e 20 	mov.b	#0,	&0x206e	;r3 As==00
    46a6:	f2 40 0a 00 ca 22 	mov.b	#10,	&0x22ca	;#0x000a
    46ac:	c2 43 1d 20 	mov.b	#0,	&0x201d	;r3 As==00
    46b0:	c2 43 30 20 	mov.b	#0,	&0x2030	;r3 As==00
    46b4:	c2 43 50 24 	mov.b	#0,	&0x2450	;r3 As==00
    46b8:	82 43 f0 36 	mov	#0,	&0x36f0	;r3 As==00
    46bc:	c2 43 13 34 	mov.b	#0,	&0x3413	;r3 As==00
    46c0:	c2 43 3a 21 	mov.b	#0,	&0x213a	;r3 As==00
    46c4:	b0 12 d6 4b 	call	#0x4bd6	
    46c8:	c2 43 d3 20 	mov.b	#0,	&0x20d3	;r3 As==00
    46cc:	c2 43 d2 20 	mov.b	#0,	&0x20d2	;r3 As==00
    46d0:	f2 43 cc 32 	mov.b	#-1,	&0x32cc	;r3 As==11
    46d4:	f2 43 cd 32 	mov.b	#-1,	&0x32cd	;r3 As==11
    46d8:	c2 43 5c 1f 	mov.b	#0,	&0x1f5c	;r3 As==00
    46dc:	d2 43 84 1c 	mov.b	#1,	&0x1c84	;r3 As==01
    46e0:	b2 40 00 20 d0 1e 	mov	#8192,	&0x1ed0	;#0x2000
    46e6:	b2 40 00 20 cc 1e 	mov	#8192,	&0x1ecc	;#0x2000
    46ec:	5f 42 ce 1e 	mov.b	&0x1ece,r15	
    46f0:	5f c3       	bic.b	#1,	r15	;r3 As==01
    46f2:	5e 42 d2 1e 	mov.b	&0x1ed2,r14	
    46f6:	7e f0 e0 ff 	and.b	#-32,	r14	;#0xffe0
    46fa:	6f d3       	bis.b	#2,	r15	;r3 As==10
    46fc:	6e d3       	bis.b	#2,	r14	;r3 As==10
    46fe:	c2 4e d2 1e 	mov.b	r14,	&0x1ed2	
    4702:	7f f0 e2 ff 	and.b	#-30,	r15	;#0xffe2
    4706:	c2 4f ce 1e 	mov.b	r15,	&0x1ece	
    470a:	b0 12 2e 6f 	call	#0x6f2e	
    470e:	0f 93       	tst	r15		
    4710:	04 20       	jnz	$+10     	;abs 0x471a
    4712:	7f 40 17 00 	mov.b	#23,	r15	;#0x0017
    4716:	b0 12 f6 4e 	call	#0x4ef6	
    471a:	1f 42 44 1c 	mov	&0x1c44,r15	
    471e:	0e 4f       	mov	r15,	r14	
    4720:	1e 53       	inc	r14		
    4722:	82 4e bc 1f 	mov	r14,	&0x1fbc	
    4726:	82 43 be 1f 	mov	#0,	&0x1fbe	;r3 As==00
    472a:	b2 40 26 33 88 1c 	mov	#13094,	&0x1c88	;#0x3326
    4730:	b2 40 70 33 8a 1c 	mov	#13168,	&0x1c8a	;#0x3370
    4736:	b2 40 ba 33 8c 1c 	mov	#13242,	&0x1c8c	;#0x33ba
    473c:	b2 43 20 24 	mov	#-1,	&0x2420	;r3 As==11
    4740:	b2 43 22 24 	mov	#-1,	&0x2422	;r3 As==11
    4744:	b2 43 24 24 	mov	#-1,	&0x2424	;r3 As==11
    4748:	b2 43 26 24 	mov	#-1,	&0x2426	;r3 As==11
    474c:	b2 43 28 24 	mov	#-1,	&0x2428	;r3 As==11
    4750:	4f 4f       	mov.b	r15,	r15	
    4752:	5f 0e       	rlam	#4,	r15	
    4754:	c2 4f 80 1c 	mov.b	r15,	&0x1c80	
    4758:	f2 43 ea 1c 	mov.b	#-1,	&0x1cea	;r3 As==11
    475c:	b2 f0 ef ff 42 03 	and	#-17,	&0x0342	;#0xffef
    4762:	b2 40 00 40 42 03 	mov	#16384,	&0x0342	;#0x4000
    4768:	f2 43 56 1f 	mov.b	#-1,	&0x1f56	;r3 As==11
    476c:	f2 43 ce 32 	mov.b	#-1,	&0x32ce	;r3 As==11
    4770:	f2 43 28 20 	mov.b	#-1,	&0x2028	;r3 As==11
    4774:	f2 43 29 20 	mov.b	#-1,	&0x2029	;r3 As==11
    4778:	82 43 92 1e 	mov	#0,	&0x1e92	;r3 As==00
    477c:	82 43 94 1e 	mov	#0,	&0x1e94	;r3 As==00
    4780:	82 43 98 1c 	mov	#0,	&0x1c98	;r3 As==00
    4784:	82 43 9a 1c 	mov	#0,	&0x1c9a	;r3 As==00
    4788:	82 43 d4 1e 	mov	#0,	&0x1ed4	;r3 As==00
    478c:	82 43 d6 1e 	mov	#0,	&0x1ed6	;r3 As==00
    4790:	b0 12 0a 51 	call	#0x510a	
    4794:	b2 40 a8 1c e8 1c 	mov	#7336,	&0x1ce8	;#0x1ca8
    479a:	f2 43 a9 1c 	mov.b	#-1,	&0x1ca9	;r3 As==11
    479e:	f2 43 a8 1c 	mov.b	#-1,	&0x1ca8	;r3 As==11
    47a2:	b2 40 d3 1f d0 22 	mov	#8147,	&0x22d0	;#0x1fd3
    47a8:	e2 42 71 1f 	mov.b	#4,	&0x1f71	;r2 As==10
    47ac:	1f 42 44 1c 	mov	&0x1c44,r15	
    47b0:	1f 53       	inc	r15		
    47b2:	82 4f bc 1f 	mov	r15,	&0x1fbc	
    47b6:	82 43 be 1f 	mov	#0,	&0x1fbe	;r3 As==00
    47ba:	b0 12 f4 4b 	call	#0x4bf4	
    47be:	7f 93       	cmp.b	#-1,	r15	;r3 As==11
    47c0:	02 20       	jnz	$+6      	;abs 0x47c6
    47c2:	80 00 b8 49 	bra	#0x049b8	
    47c6:	b0 12 06 9c 	call	#0x9c06	
    47ca:	f7 3f       	jmp	$-16     	;abs 0x47ba
    47cc:	32 d2       	eint			
    47ce:	32 d2       	eint			
    47d0:	0f 42       	mov	r2,	r15	
    47d2:	32 c2       	dint			
    47d4:	03 43       	nop			
    47d6:	d2 d3 24 03 	bis.b	#1,	&0x0324	;r3 As==01
    47da:	3f f2       	and	#8,	r15	;r2 As==11
    47dc:	01 24       	jz	$+4      	;abs 0x47e0
    47de:	32 d2       	eint			
    47e0:	0f 42       	mov	r2,	r15	
    47e2:	32 c2       	dint			
    47e4:	03 43       	nop			
    47e6:	d2 d3 22 03 	bis.b	#1,	&0x0322	;r3 As==01
    47ea:	3f f2       	and	#8,	r15	;r2 As==11
    47ec:	01 24       	jz	$+4      	;abs 0x47f0
    47ee:	32 d2       	eint			
    47f0:	b0 12 80 4f 	call	#0x4f80	
    47f4:	c2 43 72 20 	mov.b	#0,	&0x2072	;r3 As==00
    47f8:	1f 42 44 1c 	mov	&0x1c44,r15	
    47fc:	1e 42 e8 1c 	mov	&0x1ce8,r14	
    4800:	ce 4f 03 00 	mov.b	r15,	3(r14)	;0x0003(r14)
    4804:	0d 4f       	mov	r15,	r13	
    4806:	8d 10       	swpb	r13		
    4808:	ce 4d 02 00 	mov.b	r13,	2(r14)	;0x0002(r14)
    480c:	1f 93       	cmp	#1,	r15	;r3 As==01
    480e:	17 20       	jnz	$+48     	;abs 0x483e
    4810:	b0 12 d4 51 	call	#0x51d4	
    4814:	4e 4e       	mov.b	r14,	r14	
    4816:	3e 50 80 03 	add	#896,	r14	;#0x0380
    481a:	02 12       	push	r2		
    481c:	32 c2       	dint			
    481e:	03 43       	nop			
    4820:	82 4e c0 04 	mov	r14,	&0x04c0	
    4824:	b2 40 0a 00 c8 04 	mov	#10,	&0x04c8	;#0x000a
    482a:	1d 42 ca 04 	mov	&0x04ca,r13	
    482e:	1e 42 cc 04 	mov	&0x04cc,r14	
    4832:	32 41       	pop	r2		
    4834:	7f 40 0e 00 	mov.b	#14,	r15	;#0x000e
    4838:	b0 12 be 60 	call	#0x60be	
    483c:	02 3c       	jmp	$+6      	;abs 0x4842
    483e:	e2 c3 d2 21 	bic.b	#2,	&0x21d2	;r3 As==10
    4842:	c2 43 81 1c 	mov.b	#0,	&0x1c81	;r3 As==00
    4846:	0f 43       	clr	r15		
    4848:	0d 4f       	mov	r15,	r13	
    484a:	5d 02       	rlam	#1,	r13	
    484c:	0e 4f       	mov	r15,	r14	
    484e:	5e 0e       	rlam	#4,	r14	
    4850:	5e 02       	rlam	#1,	r14	
    4852:	3e 50 ee 1c 	add	#7406,	r14	;#0x1cee
    4856:	8d 4e 76 1e 	mov	r14,	7798(r13);0x1e76(r13)
    485a:	1f 53       	inc	r15		
    485c:	3f 90 0c 00 	cmp	#12,	r15	;#0x000c
    4860:	f3 23       	jnz	$-24     	;abs 0x4848
    4862:	c2 43 d5 22 	mov.b	#0,	&0x22d5	;r3 As==00
    4866:	c2 43 61 1f 	mov.b	#0,	&0x1f61	;r3 As==00
    486a:	c2 43 6a 1f 	mov.b	#0,	&0x1f6a	;r3 As==00
    486e:	d2 43 8e 1c 	mov.b	#1,	&0x1c8e	;r3 As==01
    4872:	0e 43       	clr	r14		
    4874:	0c 4e       	mov	r14,	r12	
    4876:	5c 02       	rlam	#1,	r12	
    4878:	0d 4e       	mov	r14,	r13	
    487a:	5d 06       	rlam	#2,	r13	
    487c:	0f 4d       	mov	r13,	r15	
    487e:	5f 0a       	rlam	#3,	r15	
    4880:	0f 5d       	add	r13,	r15	
    4882:	0f 5e       	add	r14,	r15	
    4884:	5f 02       	rlam	#1,	r15	
    4886:	3f 50 58 24 	add	#9304,	r15	;#0x2458
    488a:	8c 4f de 1e 	mov	r15,	7902(r12);0x1ede(r12)
    488e:	1e 53       	inc	r14		
    4890:	3e 90 32 00 	cmp	#50,	r14	;#0x0032
    4894:	ef 23       	jnz	$-32     	;abs 0x4874
    4896:	c2 43 04 34 	mov.b	#0,	&0x3404	;r3 As==00
    489a:	c2 43 7a 23 	mov.b	#0,	&0x237a	;r3 As==00
    489e:	c2 43 25 23 	mov.b	#0,	&0x2325	;r3 As==00
    48a2:	d2 43 12 34 	mov.b	#1,	&0x3412	;r3 As==01
    48a6:	b2 40 09 00 74 1e 	mov	#9,	&0x1e74	;#0x0009
    48ac:	f2 40 0b 00 d4 22 	mov.b	#11,	&0x22d4	;#0x000b
    48b2:	b2 43 cc 22 	mov	#-1,	&0x22cc	;r3 As==11
    48b6:	82 43 2a 20 	mov	#0,	&0x202a	;r3 As==00
    48ba:	82 43 2c 20 	mov	#0,	&0x202c	;r3 As==00
    48be:	82 43 c2 20 	mov	#0,	&0x20c2	;r3 As==00
    48c2:	c2 43 70 1c 	mov.b	#0,	&0x1c70	;r3 As==00
    48c6:	82 43 64 1c 	mov	#0,	&0x1c64	;r3 As==00
    48ca:	82 43 58 1f 	mov	#0,	&0x1f58	;r3 As==00
    48ce:	82 43 5a 1f 	mov	#0,	&0x1f5a	;r3 As==00
    48d2:	82 43 74 20 	mov	#0,	&0x2074	;r3 As==00
    48d6:	82 43 76 20 	mov	#0,	&0x2076	;r3 As==00
    48da:	82 43 9e 23 	mov	#0,	&0x239e	;r3 As==00
    48de:	82 43 a0 23 	mov	#0,	&0x23a0	;r3 As==00
    48e2:	82 43 7c 23 	mov	#0,	&0x237c	;r3 As==00
    48e6:	82 43 7e 23 	mov	#0,	&0x237e	;r3 As==00
    48ea:	c2 43 22 33 	mov.b	#0,	&0x3322	;r3 As==00
    48ee:	c2 43 1e 20 	mov.b	#0,	&0x201e	;r3 As==00
    48f2:	c2 43 d1 20 	mov.b	#0,	&0x20d1	;r3 As==00
    48f6:	c2 43 36 24 	mov.b	#0,	&0x2436	;r3 As==00
    48fa:	c2 43 32 21 	mov.b	#0,	&0x2132	;r3 As==00
    48fe:	3f 40 14 34 	mov	#13332,	r15	;#0x3414
    4902:	cf 43 02 00 	mov.b	#0,	2(r15)	;r3 As==00, 0x0002(r15)
    4906:	8f 43 04 00 	mov	#0,	4(r15)	;r3 As==00, 0x0004(r15)
    490a:	8f 43 06 00 	mov	#0,	6(r15)	;r3 As==00, 0x0006(r15)
    490e:	8f 43 08 00 	mov	#0,	8(r15)	;r3 As==00, 0x0008(r15)
    4912:	8f 43 0a 00 	mov	#0,	10(r15)	;r3 As==00, 0x000a(r15)
    4916:	cf 43 0c 00 	mov.b	#0,	12(r15)	;r3 As==00, 0x000c(r15)
    491a:	cf 43 0d 00 	mov.b	#0,	13(r15)	;r3 As==00, 0x000d(r15)
    491e:	3f 50 0e 00 	add	#14,	r15	;#0x000e
    4922:	3f 90 d0 36 	cmp	#14032,	r15	;#0x36d0
    4926:	ed 23       	jnz	$-36     	;abs 0x4902
    4928:	b0 12 80 4f 	call	#0x4f80	
    492c:	b0 12 ee 53 	call	#0x53ee	
    4930:	3d 40 98 3a 	mov	#15000,	r13	;#0x3a98
    4934:	0e 43       	clr	r14		
    4936:	7f 40 03 00 	mov.b	#3,	r15	;#0x0003
    493a:	b0 12 be 60 	call	#0x60be	
    493e:	f2 b0 07 00 f4 23 	bit.b	#7,	&0x23f4	;#0x0007
    4944:	3f 20       	jnz	$+128    	;abs 0x49c4
    4946:	5f 42 f4 23 	mov.b	&0x23f4,r15	
    494a:	7f f0 f8 ff 	and.b	#-8,	r15	;#0xfff8
    494e:	5f d3       	bis.b	#1,	r15	;r3 As==01
    4950:	c2 4f f4 23 	mov.b	r15,	&0x23f4	
    4954:	d2 c3 71 1e 	bic.b	#1,	&0x1e71	;r3 As==01
    4958:	03 12       	push	#0		;r3 As==00
    495a:	30 12 06 00 	push	#6		;#0x0006
    495e:	30 12 70 23 	push	#9072		;#0x2370
    4962:	0c 43       	clr	r12		
    4964:	0d 43       	clr	r13		
    4966:	4e 43       	clr.b	r14		
    4968:	6f 42       	mov.b	#4,	r15	;r2 As==10
    496a:	b0 12 02 55 	call	#0x5502	
    496e:	31 50 06 00 	add	#6,	r1	;#0x0006
    4972:	0b 42       	mov	r2,	r11	
    4974:	3b f2       	and	#8,	r11	;r2 As==11
    4976:	32 c2       	dint			
    4978:	03 43       	nop			
    497a:	14 3c       	jmp	$+42     	;abs 0x49a4
    497c:	1f 42 86 03 	mov	&0x0386,r15	
    4980:	7f f0 10 00 	and.b	#16,	r15	;#0x0010
    4984:	02 24       	jz	$+6      	;abs 0x498a
    4986:	5f 43       	mov.b	#1,	r15	;r3 As==01
    4988:	01 3c       	jmp	$+4      	;abs 0x498c
    498a:	6f 42       	mov.b	#4,	r15	;r2 As==10
    498c:	4f 4f       	mov.b	r15,	r15	
    498e:	5f 02       	rlam	#1,	r15	
    4990:	1f 4f 70 cf 	mov	-12432(r15),r15	;0xcf70(r15)
    4994:	3f d2       	bis	#8,	r15	;r2 As==11
    4996:	81 4f 04 00 	mov	r15,	4(r1)	;0x0004(r1)
    499a:	12 d1 04 00 	bis	4(r1),	r2	;0x0004(r1)
    499e:	32 c2       	dint			
    49a0:	03 43       	nop			
    49a2:	03 43       	nop			
    49a4:	b0 12 f4 4b 	call	#0x4bf4	
    49a8:	7f 93       	cmp.b	#-1,	r15	;r3 As==11
    49aa:	e8 27       	jz	$-46     	;abs 0x497c
    49ac:	0b 93       	tst	r11		
    49ae:	01 24       	jz	$+4      	;abs 0x49b2
    49b0:	32 d2       	eint			
    49b2:	b0 12 06 9c 	call	#0x9c06	
    49b6:	dd 3f       	jmp	$-68     	;abs 0x4972
    49b8:	0b 93       	tst	r11		
    49ba:	02 20       	jnz	$+6      	;abs 0x49c0
    49bc:	80 00 ce 47 	bra	#0x047ce	
    49c0:	80 00 cc 47 	bra	#0x047cc	
    49c4:	b0 12 c2 51 	call	#0x51c2	
    49c8:	d4 3f       	jmp	$-86     	;abs 0x4972

000049ca <__stop_progExec__>:
    49ca:	32 d0 f0 00 	bis	#240,	r2	;#0x00f0
    49ce:	fd 3f       	jmp	$-4      	;abs 0x49ca

000049d0 <__ctors_end>:
    49d0:	30 40 54 c7 	br	#0xc754	

000049d4 <Msp430CounterC__0__Counter__overflow>:
    49d4:	92 53 ce 1f 	inc	&0x1fce	
    49d8:	82 63 d0 1f 	adc	&0x1fd0	
    49dc:	92 53 e0 20 	inc	&0x20e0	
    49e0:	82 63 e2 20 	adc	&0x20e2	
    49e4:	30 41       	ret			

000049e6 <Msp430HybridAlarmCounterP__now>:
    49e6:	3b 15       	pushm	#4,	r11	
    49e8:	0a 4d       	mov	r13,	r10	
    49ea:	9f 42 50 03 00 00 	mov	&0x0350,0(r15)	;0x0000(r15)
    49f0:	1b 42 90 03 	mov	&0x0390,r11	
    49f4:	8e 4b 00 00 	mov	r11,	0(r14)	;0x0000(r14)
    49f8:	2f 4f       	mov	@r15,	r15	
    49fa:	1e 42 50 03 	mov	&0x0350,r14	
    49fe:	0f 9e       	cmp	r14,	r15	
    4a00:	fc 27       	jz	$-6      	;abs 0x49fa
    4a02:	19 42 90 03 	mov	&0x0390,r9	
    4a06:	0c 43       	clr	r12		
    4a08:	0d 43       	clr	r13		
    4a0a:	0d 4f       	mov	r15,	r13	
    4a0c:	0e 49       	mov	r9,	r14	
    4a0e:	0e 8b       	sub	r11,	r14	
    4a10:	0f 43       	clr	r15		
    4a12:	4f ee       	xor.b	r14,	r15	
    4a14:	0f ee       	xor	r14,	r15	
    4a16:	8f 10       	swpb	r15		
    4a18:	4e 4e       	mov.b	r14,	r14	
    4a1a:	8e 10       	swpb	r14		
    4a1c:	0e 5e       	rla	r14		
    4a1e:	0f 6f       	rlc	r15		
    4a20:	0e 5e       	rla	r14		
    4a22:	0f 6f       	rlc	r15		
    4a24:	0e 5e       	rla	r14		
    4a26:	0f 6f       	rlc	r15		
    4a28:	08 4c       	mov	r12,	r8	
    4a2a:	09 4d       	mov	r13,	r9	
    4a2c:	08 8e       	sub	r14,	r8	
    4a2e:	09 7f       	subc	r15,	r9	
    4a30:	8a 48 00 00 	mov	r8,	0(r10)	;0x0000(r10)
    4a34:	8a 49 02 00 	mov	r9,	2(r10)	;0x0002(r10)
    4a38:	38 17       	popm	#4,	r11	
    4a3a:	30 41       	ret			

00004a3c <Msp430TimerCapComP__3__Event__fired>:
    4a3c:	1f 42 48 03 	mov	&0x0348,r15	
    4a40:	8f 10       	swpb	r15		
    4a42:	5f f3       	and.b	#1,	r15	;r3 As==01
    4a44:	02 24       	jz	$+6      	;abs 0x4a4a
    4a46:	1f 42 58 03 	mov	&0x0358,r15	
    4a4a:	30 41       	ret			

00004a4c <Msp430TimerCapComP__4__Event__fired>:
    4a4c:	1f 42 4a 03 	mov	&0x034a,r15	
    4a50:	8f 10       	swpb	r15		
    4a52:	5f f3       	and.b	#1,	r15	;r3 As==01
    4a54:	02 24       	jz	$+6      	;abs 0x4a5a
    4a56:	1f 42 5a 03 	mov	&0x035a,r15	
    4a5a:	30 41       	ret			

00004a5c <Msp430TimerCapComP__5__Event__fired>:
    4a5c:	1f 42 c2 03 	mov	&0x03c2,r15	
    4a60:	8f 10       	swpb	r15		
    4a62:	5f f3       	and.b	#1,	r15	;r3 As==01
    4a64:	02 24       	jz	$+6      	;abs 0x4a6a
    4a66:	1f 42 d2 03 	mov	&0x03d2,r15	
    4a6a:	30 41       	ret			

00004a6c <Msp430TimerCapComP__6__Event__fired>:
    4a6c:	1f 42 c4 03 	mov	&0x03c4,r15	
    4a70:	8f 10       	swpb	r15		
    4a72:	5f f3       	and.b	#1,	r15	;r3 As==01
    4a74:	02 24       	jz	$+6      	;abs 0x4a7a
    4a76:	1f 42 d4 03 	mov	&0x03d4,r15	
    4a7a:	30 41       	ret			

00004a7c <Msp430TimerCapComP__7__Event__fired>:
    4a7c:	1f 42 c6 03 	mov	&0x03c6,r15	
    4a80:	8f 10       	swpb	r15		
    4a82:	5f f3       	and.b	#1,	r15	;r3 As==01
    4a84:	02 24       	jz	$+6      	;abs 0x4a8a
    4a86:	1f 42 d6 03 	mov	&0x03d6,r15	
    4a8a:	30 41       	ret			

00004a8c <Msp430TimerCapComP__8__Event__fired>:
    4a8c:	1f 42 c8 03 	mov	&0x03c8,r15	
    4a90:	8f 10       	swpb	r15		
    4a92:	5f f3       	and.b	#1,	r15	;r3 As==01
    4a94:	02 24       	jz	$+6      	;abs 0x4a9a
    4a96:	1f 42 d8 03 	mov	&0x03d8,r15	
    4a9a:	30 41       	ret			

00004a9c <Msp430TimerCapComP__9__Event__fired>:
    4a9c:	1f 42 ca 03 	mov	&0x03ca,r15	
    4aa0:	8f 10       	swpb	r15		
    4aa2:	5f f3       	and.b	#1,	r15	;r3 As==01
    4aa4:	02 24       	jz	$+6      	;abs 0x4aaa
    4aa6:	1f 42 da 03 	mov	&0x03da,r15	
    4aaa:	30 41       	ret			

00004aac <Msp430TimerCapComP__10__Event__fired>:
    4aac:	1f 42 cc 03 	mov	&0x03cc,r15	
    4ab0:	8f 10       	swpb	r15		
    4ab2:	5f f3       	and.b	#1,	r15	;r3 As==01
    4ab4:	02 24       	jz	$+6      	;abs 0x4aba
    4ab6:	1f 42 dc 03 	mov	&0x03dc,r15	
    4aba:	30 41       	ret			

00004abc <Msp430TimerCapComP__11__Event__fired>:
    4abc:	1f 42 ce 03 	mov	&0x03ce,r15	
    4ac0:	8f 10       	swpb	r15		
    4ac2:	5f f3       	and.b	#1,	r15	;r3 As==01
    4ac4:	02 24       	jz	$+6      	;abs 0x4aca
    4ac6:	1f 42 de 03 	mov	&0x03de,r15	
    4aca:	30 41       	ret			

00004acc <Msp430UsciSpiP__1__FastSpiByte__splitRead>:
    4acc:	d2 b3 dd 05 	bit.b	#1,	&0x05dd	;r3 As==01
    4ad0:	fd 27       	jz	$-4      	;abs 0x4acc
    4ad2:	5f 42 ca 05 	mov.b	&0x05ca,r15	
    4ad6:	5f 42 cc 05 	mov.b	&0x05cc,r15	
    4ada:	5e 42 ca 05 	mov.b	&0x05ca,r14	
    4ade:	30 41       	ret			

00004ae0 <Msp430UsciSpiP__1__FastSpiByte__splitWrite>:
    4ae0:	e2 b3 dd 05 	bit.b	#2,	&0x05dd	;r3 As==10
    4ae4:	fd 27       	jz	$-4      	;abs 0x4ae0
    4ae6:	c2 4f ce 05 	mov.b	r15,	&0x05ce	
    4aea:	30 41       	ret			

00004aec <RF233_CRCBYTE_COMMAND>:
    4aec:	4e ef       	xor.b	r15,	r14	
    4aee:	4d 4e       	mov.b	r14,	r13	
    4af0:	5d 0e       	rlam	#4,	r13	
    4af2:	4e ed       	xor.b	r13,	r14	
    4af4:	4e 4e       	mov.b	r14,	r14	
    4af6:	0d 4e       	mov	r14,	r13	
    4af8:	5d 0a       	rlam	#3,	r13	
    4afa:	0c 4e       	mov	r14,	r12	
    4afc:	5c 0f       	rrum	#4,	r12	
    4afe:	0d ec       	xor	r12,	r13	
    4b00:	8e 10       	swpb	r14		
    4b02:	8f 10       	swpb	r15		
    4b04:	4f 4f       	mov.b	r15,	r15	
    4b06:	0e df       	bis	r15,	r14	
    4b08:	0f 4d       	mov	r13,	r15	
    4b0a:	0f ee       	xor	r14,	r15	
    4b0c:	30 41       	ret			

00004b0e <__nesc_hton_uint32>:
    4b0e:	0b 12       	push	r11		
    4b10:	0c 4e       	mov	r14,	r12	
    4b12:	cf 4d 03 00 	mov.b	r13,	3(r15)	;0x0003(r15)
    4b16:	0b 4e       	mov	r14,	r11	
    4b18:	0e 4d       	mov	r13,	r14	
    4b1a:	8e 10       	swpb	r14		
    4b1c:	8b 10       	swpb	r11		
    4b1e:	4e eb       	xor.b	r11,	r14	
    4b20:	0e eb       	xor	r11,	r14	
    4b22:	cf 4e 02 00 	mov.b	r14,	2(r15)	;0x0002(r15)
    4b26:	cf 4c 01 00 	mov.b	r12,	1(r15)	;0x0001(r15)
    4b2a:	0e 4c       	mov	r12,	r14	
    4b2c:	8e 10       	swpb	r14		
    4b2e:	cf 4e 00 00 	mov.b	r14,	0(r15)	;0x0000(r15)
    4b32:	0e 4d       	mov	r13,	r14	
    4b34:	0f 4c       	mov	r12,	r15	
    4b36:	3b 41       	pop	r11		
    4b38:	30 41       	ret			

00004b3a <__nesc_ntoh_uint32>:
    4b3a:	0b 12       	push	r11		
    4b3c:	0b 4f       	mov	r15,	r11	
    4b3e:	6f 4f       	mov.b	@r15,	r15	
    4b40:	0c 43       	clr	r12		
    4b42:	0d 43       	clr	r13		
    4b44:	0d 4f       	mov	r15,	r13	
    4b46:	8d 10       	swpb	r13		
    4b48:	0e 43       	clr	r14		
    4b4a:	0f 43       	clr	r15		
    4b4c:	5f 4b 01 00 	mov.b	1(r11),	r15	;0x0001(r11)
    4b50:	0e dc       	bis	r12,	r14	
    4b52:	0f dd       	bis	r13,	r15	
    4b54:	5c 4b 03 00 	mov.b	3(r11),	r12	;0x0003(r11)
    4b58:	0d 43       	clr	r13		
    4b5a:	0e dc       	bis	r12,	r14	
    4b5c:	0f dd       	bis	r13,	r15	
    4b5e:	5c 4b 02 00 	mov.b	2(r11),	r12	;0x0002(r11)
    4b62:	4d ec       	xor.b	r12,	r13	
    4b64:	0d ec       	xor	r12,	r13	
    4b66:	8d 10       	swpb	r13		
    4b68:	4c 4c       	mov.b	r12,	r12	
    4b6a:	8c 10       	swpb	r12		
    4b6c:	0e dc       	bis	r12,	r14	
    4b6e:	0f dd       	bis	r13,	r15	
    4b70:	3b 41       	pop	r11		
    4b72:	30 41       	ret			

00004b74 <HplAdc12P__HplAdc12__setCtl0>:
    4b74:	31 50 fa ff 	add	#-6,	r1	;#0xfffa
    4b78:	82 4f 00 07 	mov	r15,	&0x0700	
    4b7c:	31 50 06 00 	add	#6,	r1	;#0x0006
    4b80:	30 41       	ret			

00004b82 <HplAdc12P__HplAdc12__setMCtl>:
    4b82:	4f 4f       	mov.b	r15,	r15	
    4b84:	3f 50 10 07 	add	#1808,	r15	;#0x0710
    4b88:	4e 4e       	mov.b	r14,	r14	
    4b8a:	cf 4e 00 00 	mov.b	r14,	0(r15)	;0x0000(r15)
    4b8e:	30 41       	ret			

00004b90 <Msp430Adc12ImplP__HplAdc12__getCtl0>:
    4b90:	31 50 f6 ff 	add	#-10,	r1	;#0xfff6
    4b94:	1f 42 00 07 	mov	&0x0700,r15	
    4b98:	81 4f 04 00 	mov	r15,	4(r1)	;0x0004(r1)
    4b9c:	4f 4f       	mov.b	r15,	r15	
    4b9e:	5e 41 05 00 	mov.b	5(r1),	r14	;0x0005(r1)
    4ba2:	8e 10       	swpb	r14		
    4ba4:	0f de       	bis	r14,	r15	
    4ba6:	31 50 0a 00 	add	#10,	r1	;#0x000a
    4baa:	30 41       	ret			

00004bac <ConfigStorageP__BConfig__flipped>:
    4bac:	4d 4f       	mov.b	r15,	r13	
    4bae:	5d 0b       	rrum	#3,	r13	
    4bb0:	4e 4f       	mov.b	r15,	r14	
    4bb2:	7e f0 07 00 	and.b	#7,	r14	;#0x0007
    4bb6:	5f 4d 71 1e 	mov.b	7793(r13),r15	;0x1e71(r13)
    4bba:	03 24       	jz	$+8      	;abs 0x4bc2
    4bbc:	7e 53       	add.b	#-1,	r14	;r3 As==11
    4bbe:	ce 18 0f 11 	.rpt	r14
				rrax	r15		
    4bc2:	1f f3       	and	#1,	r15	;r3 As==01
    4bc4:	30 41       	ret			

00004bc6 <LogStorageP__locateCurrentPage>:
    4bc6:	1e 42 94 1c 	mov	&0x1c94,r14	
    4bca:	1f 42 c4 22 	mov	&0x22c4,r15	
    4bce:	0f 8e       	sub	r14,	r15	
    4bd0:	5f 03       	rrum	#1,	r15	
    4bd2:	0f 5e       	add	r14,	r15	
    4bd4:	30 41       	ret			

00004bd6 <SerialP__rxInit>:
    4bd6:	c2 43 fb 23 	mov.b	#0,	&0x23fb	;r3 As==00
    4bda:	c2 43 fa 23 	mov.b	#0,	&0x23fa	;r3 As==00
    4bde:	e2 42 60 1f 	mov.b	#4,	&0x1f60	;r2 As==10
    4be2:	c2 43 24 23 	mov.b	#0,	&0x2324	;r3 As==00
    4be6:	c2 43 35 24 	mov.b	#0,	&0x2435	;r3 As==00
    4bea:	c2 43 64 1f 	mov.b	#0,	&0x1f64	;r3 As==00
    4bee:	82 43 e6 20 	mov	#0,	&0x20e6	;r3 As==00
    4bf2:	30 41       	ret			

00004bf4 <SchedulerBasicP__popTask>:
    4bf4:	5f 42 4c 24 	mov.b	&0x244c,r15	
    4bf8:	7f 93       	cmp.b	#-1,	r15	;r3 As==11
    4bfa:	0c 24       	jz	$+26     	;abs 0x4c14
    4bfc:	4e 4f       	mov.b	r15,	r14	
    4bfe:	3e 50 9c 1e 	add	#7836,	r14	;#0x1e9c
    4c02:	6d 4e       	mov.b	@r14,	r13	
    4c04:	c2 4d 4c 24 	mov.b	r13,	&0x244c	
    4c08:	7d 93       	cmp.b	#-1,	r13	;r3 As==11
    4c0a:	02 20       	jnz	$+6      	;abs 0x4c10
    4c0c:	f2 43 d7 36 	mov.b	#-1,	&0x36d7	;r3 As==11
    4c10:	fe 43 00 00 	mov.b	#-1,	0(r14)	;r3 As==11, 0x0000(r14)
    4c14:	30 41       	ret			

00004c16 <HplAdc12P__HplAdc12__getMCtl>:
    4c16:	4f 4f       	mov.b	r15,	r15	
    4c18:	3f 50 10 07 	add	#1808,	r15	;#0x0710
    4c1c:	6f 4f       	mov.b	@r15,	r15	
    4c1e:	30 41       	ret			

00004c20 <crcByte>:
    4c20:	0d 4f       	mov	r15,	r13	
    4c22:	8d 10       	swpb	r13		
    4c24:	4d 4d       	mov.b	r13,	r13	
    4c26:	4f 4f       	mov.b	r15,	r15	
    4c28:	8f 10       	swpb	r15		
    4c2a:	0d df       	bis	r15,	r13	
    4c2c:	4e 4e       	mov.b	r14,	r14	
    4c2e:	0d ee       	xor	r14,	r13	
    4c30:	4e 4d       	mov.b	r13,	r14	
    4c32:	5e 0f       	rrum	#4,	r14	
    4c34:	0e ed       	xor	r13,	r14	
    4c36:	4f 4e       	mov.b	r14,	r15	
    4c38:	8f 10       	swpb	r15		
    4c3a:	5f 0e       	rlam	#4,	r15	
    4c3c:	0f ee       	xor	r14,	r15	
    4c3e:	0e 4f       	mov	r15,	r14	
    4c40:	3e f0 ff 00 	and	#255,	r14	;#0x00ff
    4c44:	5e 0e       	rlam	#4,	r14	
    4c46:	5e 02       	rlam	#1,	r14	
    4c48:	0f ee       	xor	r14,	r15	
    4c4a:	30 41       	ret			

00004c4c <FcfsResourceQueueC__2__FcfsQueue__dequeue>:
    4c4c:	5f 42 31 1c 	mov.b	&0x1c31,r15	
    4c50:	7f 93       	cmp.b	#-1,	r15	;r3 As==11
    4c52:	0b 24       	jz	$+24     	;abs 0x4c6a
    4c54:	4e 4f       	mov.b	r15,	r14	
    4c56:	5d 4e ce 32 	mov.b	13006(r14),r13	;0x32ce(r14)
    4c5a:	c2 4d 31 1c 	mov.b	r13,	&0x1c31	
    4c5e:	7d 93       	cmp.b	#-1,	r13	;r3 As==11
    4c60:	02 20       	jnz	$+6      	;abs 0x4c66
    4c62:	f2 43 30 1c 	mov.b	#-1,	&0x1c30	;r3 As==11
    4c66:	fe 43 ce 32 	mov.b	#-1,	13006(r14);r3 As==11, 0x32ce(r14)
    4c6a:	30 41       	ret			

00004c6c <Msp430TimerCapComP__14__Event__fired>:
    4c6c:	1f 42 86 03 	mov	&0x0386,r15	
    4c70:	8f 10       	swpb	r15		
    4c72:	5f f3       	and.b	#1,	r15	;r3 As==01
    4c74:	03 24       	jz	$+8      	;abs 0x4c7c
    4c76:	1f 42 96 03 	mov	&0x0396,r15	
    4c7a:	30 41       	ret			
    4c7c:	b2 f0 ef ff 86 03 	and	#-17,	&0x0386	;#0xffef
    4c82:	30 41       	ret			

00004c84 <Msp430TimerCapComP__15__Event__fired>:
    4c84:	1f 42 02 04 	mov	&0x0402,r15	
    4c88:	8f 10       	swpb	r15		
    4c8a:	5f f3       	and.b	#1,	r15	;r3 As==01
    4c8c:	02 24       	jz	$+6      	;abs 0x4c92
    4c8e:	1f 42 12 04 	mov	&0x0412,r15	
    4c92:	30 41       	ret			

00004c94 <Msp430TimerCapComP__16__Event__fired>:
    4c94:	1f 42 04 04 	mov	&0x0404,r15	
    4c98:	8f 10       	swpb	r15		
    4c9a:	5f f3       	and.b	#1,	r15	;r3 As==01
    4c9c:	02 24       	jz	$+6      	;abs 0x4ca2
    4c9e:	1f 42 14 04 	mov	&0x0414,r15	
    4ca2:	30 41       	ret			

00004ca4 <Msp430TimerCapComP__17__Event__fired>:
    4ca4:	1f 42 06 04 	mov	&0x0406,r15	
    4ca8:	8f 10       	swpb	r15		
    4caa:	5f f3       	and.b	#1,	r15	;r3 As==01
    4cac:	02 24       	jz	$+6      	;abs 0x4cb2
    4cae:	1f 42 16 04 	mov	&0x0416,r15	
    4cb2:	30 41       	ret			

00004cb4 <Ieee154PacketLayerP__0__Ieee154PacketLayer__createDataFrame>:
    4cb4:	5e 4f 02 00 	mov.b	2(r15),	r14	;0x0002(r15)
    4cb8:	8e 10       	swpb	r14		
    4cba:	5d 4f 01 00 	mov.b	1(r15),	r13	;0x0001(r15)
    4cbe:	0e dd       	bis	r13,	r14	
    4cc0:	3e f0 30 00 	and	#48,	r14	;#0x0030
    4cc4:	7e d0 41 00 	bis.b	#65,	r14	;#0x0041
    4cc8:	cf 4e 01 00 	mov.b	r14,	1(r15)	;0x0001(r15)
    4ccc:	ff 40 88 ff 02 00 	mov.b	#-120,	2(r15)	;#0xff88, 0x0002(r15)
    4cd2:	30 41       	ret			

00004cd4 <FcfsResourceQueueC__5__FcfsQueue__dequeue>:
    4cd4:	5f 42 10 1c 	mov.b	&0x1c10,r15	
    4cd8:	7f 93       	cmp.b	#-1,	r15	;r3 As==11
    4cda:	0c 24       	jz	$+26     	;abs 0x4cf4
    4cdc:	4e 4f       	mov.b	r15,	r14	
    4cde:	3e 50 cc 32 	add	#13004,	r14	;#0x32cc
    4ce2:	6d 4e       	mov.b	@r14,	r13	
    4ce4:	c2 4d 10 1c 	mov.b	r13,	&0x1c10	
    4ce8:	7d 93       	cmp.b	#-1,	r13	;r3 As==11
    4cea:	02 20       	jnz	$+6      	;abs 0x4cf0
    4cec:	f2 43 0f 1c 	mov.b	#-1,	&0x1c0f	;r3 As==11
    4cf0:	fe 43 00 00 	mov.b	#-1,	0(r14)	;r3 As==11, 0x0000(r14)
    4cf4:	30 41       	ret			

00004cf6 <FcfsResourceQueueC__1__FcfsQueue__dequeue>:
    4cf6:	5f 42 35 1c 	mov.b	&0x1c35,r15	
    4cfa:	7f 93       	cmp.b	#-1,	r15	;r3 As==11
    4cfc:	0c 24       	jz	$+26     	;abs 0x4d16
    4cfe:	4e 4f       	mov.b	r15,	r14	
    4d00:	3e 50 28 20 	add	#8232,	r14	;#0x2028
    4d04:	6d 4e       	mov.b	@r14,	r13	
    4d06:	c2 4d 35 1c 	mov.b	r13,	&0x1c35	
    4d0a:	7d 93       	cmp.b	#-1,	r13	;r3 As==11
    4d0c:	02 20       	jnz	$+6      	;abs 0x4d12
    4d0e:	f2 43 34 1c 	mov.b	#-1,	&0x1c34	;r3 As==11
    4d12:	fe 43 00 00 	mov.b	#-1,	0(r14)	;r3 As==11, 0x0000(r14)
    4d16:	30 41       	ret			

00004d18 <Msp430UsciSpiP__0__SpiByte__write>:
    4d18:	e2 b3 3d 06 	bit.b	#2,	&0x063d	;r3 As==10
    4d1c:	fd 27       	jz	$-4      	;abs 0x4d18
    4d1e:	c2 4f 2e 06 	mov.b	r15,	&0x062e	
    4d22:	d2 b3 3d 06 	bit.b	#1,	&0x063d	;r3 As==01
    4d26:	fd 27       	jz	$-4      	;abs 0x4d22
    4d28:	5f 42 2a 06 	mov.b	&0x062a,r15	
    4d2c:	5f 42 2c 06 	mov.b	&0x062c,r15	
    4d30:	5e 42 2a 06 	mov.b	&0x062a,r14	
    4d34:	30 41       	ret			

00004d36 <TimeSyncMessageLayerP__0__TimeSyncPacketMilli__isValid>:
    4d36:	ef b3 44 00 	bit.b	#2,	68(r15)	;r3 As==10, 0x0044(r15)
    4d3a:	13 24       	jz	$+40     	;abs 0x4d62
    4d3c:	6e 4f       	mov.b	@r15,	r14	
    4d3e:	7e 50 ee ff 	add.b	#-18,	r14	;#0xffee
    4d42:	4e 4e       	mov.b	r14,	r14	
    4d44:	0e 5f       	add	r15,	r14	
    4d46:	0f 4e       	mov	r14,	r15	
    4d48:	3f 50 0d 00 	add	#13,	r15	;#0x000d
    4d4c:	b0 12 3a 4b 	call	#0x4b3a	
    4d50:	1d 43       	mov	#1,	r13	;r3 As==01
    4d52:	0e 93       	tst	r14		
    4d54:	04 20       	jnz	$+10     	;abs 0x4d5e
    4d56:	3f 90 00 80 	cmp	#-32768,r15	;#0x8000
    4d5a:	01 20       	jnz	$+4      	;abs 0x4d5e
    4d5c:	0d 43       	clr	r13		
    4d5e:	0f 4d       	mov	r13,	r15	
    4d60:	01 3c       	jmp	$+4      	;abs 0x4d64
    4d62:	0f 43       	clr	r15		
    4d64:	4f 4f       	mov.b	r15,	r15	
    4d66:	30 41       	ret			

00004d68 <HplAdc12P__HplAdc12__stopConversion>:
    4d68:	1f 42 02 07 	mov	&0x0702,r15	
    4d6c:	b2 f0 f9 ff 02 07 	and	#-7,	&0x0702	;#0xfff9
    4d72:	b2 f0 fc ff 00 07 	and	#-4,	&0x0700	;#0xfffc
    4d78:	b2 f0 ef ff 00 07 	and	#-17,	&0x0700	;#0xffef
    4d7e:	1e 42 02 07 	mov	&0x0702,r14	
    4d82:	3f f0 06 00 	and	#6,	r15	;#0x0006
    4d86:	0f de       	bis	r14,	r15	
    4d88:	82 4f 02 07 	mov	r15,	&0x0702	
    4d8c:	30 41       	ret			

00004d8e <Msp430Adc12ImplP__resetAdcPin>:
    4d8e:	7f 92       	cmp.b	#8,	r15	;r2 As==11
    4d90:	29 2c       	jc	$+84     	;abs 0x4de4
    4d92:	4f 4f       	mov.b	r15,	r15	
    4d94:	5f 02       	rlam	#1,	r15	
    4d96:	10 4f e8 cd 	br	-12824(r15)	;0xcde8(r15)
    4d9a:	5f 42 4b 02 	mov.b	&0x024b,r15	
    4d9e:	5f c3       	bic.b	#1,	r15	;r3 As==01
    4da0:	1f 3c       	jmp	$+64     	;abs 0x4de0
    4da2:	5f 42 4b 02 	mov.b	&0x024b,r15	
    4da6:	6f c3       	bic.b	#2,	r15	;r3 As==10
    4da8:	1b 3c       	jmp	$+56     	;abs 0x4de0
    4daa:	5f 42 4b 02 	mov.b	&0x024b,r15	
    4dae:	6f c2       	bic.b	#4,	r15	;r2 As==10
    4db0:	17 3c       	jmp	$+48     	;abs 0x4de0
    4db2:	5f 42 4b 02 	mov.b	&0x024b,r15	
    4db6:	7f c2       	bic.b	#8,	r15	;r2 As==11
    4db8:	13 3c       	jmp	$+40     	;abs 0x4de0
    4dba:	5f 42 4b 02 	mov.b	&0x024b,r15	
    4dbe:	7f f0 ef ff 	and.b	#-17,	r15	;#0xffef
    4dc2:	0e 3c       	jmp	$+30     	;abs 0x4de0
    4dc4:	5f 42 4b 02 	mov.b	&0x024b,r15	
    4dc8:	7f f0 df ff 	and.b	#-33,	r15	;#0xffdf
    4dcc:	09 3c       	jmp	$+20     	;abs 0x4de0
    4dce:	5f 42 4b 02 	mov.b	&0x024b,r15	
    4dd2:	7f f0 bf ff 	and.b	#-65,	r15	;#0xffbf
    4dd6:	04 3c       	jmp	$+10     	;abs 0x4de0
    4dd8:	5f 42 4b 02 	mov.b	&0x024b,r15	
    4ddc:	7f f0 7f 00 	and.b	#127,	r15	;#0x007f
    4de0:	c2 4f 4b 02 	mov.b	r15,	&0x024b	
    4de4:	30 41       	ret			

00004de6 <PlatformClockP__maj_xt1>:
    4de6:	1f 42 50 03 	mov	&0x0350,r15	
    4dea:	1e 42 50 03 	mov	&0x0350,r14	
    4dee:	1d 42 50 03 	mov	&0x0350,r13	
    4df2:	0f 9e       	cmp	r14,	r15	
    4df4:	07 24       	jz	$+16     	;abs 0x4e04
    4df6:	0f 9d       	cmp	r13,	r15	
    4df8:	05 24       	jz	$+12     	;abs 0x4e04
    4dfa:	0e 9d       	cmp	r13,	r14	
    4dfc:	02 24       	jz	$+6      	;abs 0x4e02
    4dfe:	03 43       	nop			
    4e00:	fe 3f       	jmp	$-2      	;abs 0x4dfe
    4e02:	0f 4e       	mov	r14,	r15	
    4e04:	30 41       	ret			

00004e06 <PlatformClockP__wait_for_32K>:
    4e06:	0b 12       	push	r11		
    4e08:	a2 42 40 03 	mov	#4,	&0x0340	;r2 As==10
    4e0c:	a2 42 80 03 	mov	#4,	&0x0380	;r2 As==10
    4e10:	b2 40 20 01 40 03 	mov	#288,	&0x0340	;#0x0120
    4e16:	b2 40 20 02 80 03 	mov	#544,	&0x0380	;#0x0220
    4e1c:	b2 40 10 00 d0 36 	mov	#16,	&0x36d0	;#0x0010
    4e22:	3b 40 10 00 	mov	#16,	r11	;#0x0010
    4e26:	92 b3 80 03 	bit	#1,	&0x0380	;r3 As==01
    4e2a:	14 24       	jz	$+42     	;abs 0x4e54
    4e2c:	92 c3 80 03 	bic	#1,	&0x0380	;r3 As==01
    4e30:	3b 53       	add	#-1,	r11	;r3 As==11
    4e32:	33 24       	jz	$+104    	;abs 0x4e9a
    4e34:	82 9b d0 36 	cmp	r11,	&0x36d0	
    4e38:	0d 28       	jnc	$+28     	;abs 0x4e54
    4e3a:	d2 43 52 24 	mov.b	#1,	&0x2452	;r3 As==01
    4e3e:	82 43 d0 36 	mov	#0,	&0x36d0	;r3 As==00
    4e42:	82 43 86 1c 	mov	#0,	&0x1c86	;r3 As==00
    4e46:	b0 12 e6 4d 	call	#0x4de6	
    4e4a:	82 4f 90 1e 	mov	r15,	&0x1e90	
    4e4e:	92 42 90 03 ba 22 	mov	&0x0390,&0x22ba	
    4e54:	c2 93 52 24 	tst.b	&0x2452	
    4e58:	e6 27       	jz	$-50     	;abs 0x4e26
    4e5a:	b0 12 e6 4d 	call	#0x4de6	
    4e5e:	82 4f 7a 1c 	mov	r15,	&0x1c7a	
    4e62:	82 9f 90 1e 	cmp	r15,	&0x1e90	
    4e66:	df 27       	jz	$-64     	;abs 0x4e26
    4e68:	1e 42 86 1c 	mov	&0x1c86,r14	
    4e6c:	1c 42 90 03 	mov	&0x0390,r12	
    4e70:	0d 4e       	mov	r14,	r13	
    4e72:	5d 02       	rlam	#1,	r13	
    4e74:	1c 82 ba 22 	sub	&0x22ba,r12	
    4e78:	8d 4c dc 36 	mov	r12,	14044(r13);0x36dc(r13)
    4e7c:	1e 53       	inc	r14		
    4e7e:	82 4e 86 1c 	mov	r14,	&0x1c86	
    4e82:	82 4f 90 1e 	mov	r15,	&0x1e90	
    4e86:	92 42 90 03 ba 22 	mov	&0x0390,&0x22ba	
    4e8c:	3e 90 0a 00 	cmp	#10,	r14	;#0x000a
    4e90:	ca 2b       	jnc	$-106    	;abs 0x4e26
    4e92:	c2 43 52 24 	mov.b	#0,	&0x2452	;r3 As==00
    4e96:	03 43       	nop			
    4e98:	c6 3f       	jmp	$-114    	;abs 0x4e26
    4e9a:	03 43       	nop			
    4e9c:	3b 41       	pop	r11		
    4e9e:	30 41       	ret			

00004ea0 <TransformCounterC__0__Counter__get>:
    4ea0:	2b 15       	pushm	#3,	r11	
    4ea2:	09 42       	mov	r2,	r9	
    4ea4:	39 f2       	and	#8,	r9	;r2 As==11
    4ea6:	32 c2       	dint			
    4ea8:	03 43       	nop			
    4eaa:	1c 42 e0 20 	mov	&0x20e0,r12	
    4eae:	1d 42 e2 20 	mov	&0x20e2,r13	
    4eb2:	1f 42 50 03 	mov	&0x0350,r15	
    4eb6:	1e 42 40 03 	mov	&0x0340,r14	
    4eba:	5e f3       	and.b	#1,	r14	;r3 As==01
    4ebc:	04 24       	jz	$+10     	;abs 0x4ec6
    4ebe:	1c 53       	inc	r12		
    4ec0:	0d 63       	adc	r13		
    4ec2:	1f 42 50 03 	mov	&0x0350,r15	
    4ec6:	5f 0f       	rrum	#4,	r15	
    4ec8:	0a 4f       	mov	r15,	r10	
    4eca:	5a 03       	rrum	#1,	r10	
    4ecc:	0b 43       	clr	r11		
    4ece:	0e 4c       	mov	r12,	r14	
    4ed0:	0f 4d       	mov	r13,	r15	
    4ed2:	4f ec       	xor.b	r12,	r15	
    4ed4:	0f ec       	xor	r12,	r15	
    4ed6:	8f 10       	swpb	r15		
    4ed8:	4e 4e       	mov.b	r14,	r14	
    4eda:	8e 10       	swpb	r14		
    4edc:	0e 5e       	rla	r14		
    4ede:	0f 6f       	rlc	r15		
    4ee0:	0e 5e       	rla	r14		
    4ee2:	0f 6f       	rlc	r15		
    4ee4:	0e 5e       	rla	r14		
    4ee6:	0f 6f       	rlc	r15		
    4ee8:	0e da       	bis	r10,	r14	
    4eea:	0f db       	bis	r11,	r15	
    4eec:	09 93       	tst	r9		
    4eee:	01 24       	jz	$+4      	;abs 0x4ef2
    4ef0:	32 d2       	eint			
    4ef2:	29 17       	popm	#3,	r11	
    4ef4:	30 41       	ret			

00004ef6 <SchedulerBasicP__TaskBasic__postTask>:
    4ef6:	0e 42       	mov	r2,	r14	
    4ef8:	3e f2       	and	#8,	r14	;r2 As==11
    4efa:	32 c2       	dint			
    4efc:	03 43       	nop			
    4efe:	4d 4f       	mov.b	r15,	r13	
    4f00:	fd 93 9c 1e 	cmp.b	#-1,	7836(r13);r3 As==11, 0x1e9c(r13)
    4f04:	06 20       	jnz	$+14     	;abs 0x4f12
    4f06:	1d 43       	mov	#1,	r13	;r3 As==01
    4f08:	c2 9f d7 36 	cmp.b	r15,	&0x36d7	
    4f0c:	03 24       	jz	$+8      	;abs 0x4f14
    4f0e:	0d 43       	clr	r13		
    4f10:	01 3c       	jmp	$+4      	;abs 0x4f14
    4f12:	1d 43       	mov	#1,	r13	;r3 As==01
    4f14:	4d 93       	tst.b	r13		
    4f16:	0d 20       	jnz	$+28     	;abs 0x4f32
    4f18:	f2 93 4c 24 	cmp.b	#-1,	&0x244c	;r3 As==11
    4f1c:	03 20       	jnz	$+8      	;abs 0x4f24
    4f1e:	c2 4f 4c 24 	mov.b	r15,	&0x244c	
    4f22:	04 3c       	jmp	$+10     	;abs 0x4f2c
    4f24:	5d 42 d7 36 	mov.b	&0x36d7,r13	
    4f28:	cd 4f 9c 1e 	mov.b	r15,	7836(r13);0x1e9c(r13)
    4f2c:	c2 4f d7 36 	mov.b	r15,	&0x36d7	
    4f30:	06 3c       	jmp	$+14     	;abs 0x4f3e
    4f32:	3f 40 05 00 	mov	#5,	r15	;#0x0005
    4f36:	0e 93       	tst	r14		
    4f38:	04 24       	jz	$+10     	;abs 0x4f42
    4f3a:	32 d2       	eint			
    4f3c:	30 41       	ret			
    4f3e:	0f 43       	clr	r15		
    4f40:	fa 3f       	jmp	$-10     	;abs 0x4f36
    4f42:	30 41       	ret			

00004f44 <At45dbP__taskSuccess__postTask>:
    4f44:	7f 40 19 00 	mov.b	#25,	r15	;#0x0019
    4f48:	b0 12 f6 4e 	call	#0x4ef6	
    4f4c:	30 41       	ret			

00004f4e <CUSPBaseRecorderP__rssiLogRead__postTask>:
    4f4e:	7f 40 0e 00 	mov.b	#14,	r15	;#0x000e
    4f52:	b0 12 f6 4e 	call	#0x4ef6	
    4f56:	30 41       	ret			

00004f58 <CUSPBaseRecorderP__radioSendTask__postTask>:
    4f58:	7f 40 0d 00 	mov.b	#13,	r15	;#0x000d
    4f5c:	b0 12 f6 4e 	call	#0x4ef6	
    4f60:	30 41       	ret			

00004f62 <CUSPBaseRecorderP__sendConnection__postTask>:
    4f62:	7f 40 0c 00 	mov.b	#12,	r15	;#0x000c
    4f66:	b0 12 f6 4e 	call	#0x4ef6	
    4f6a:	30 41       	ret			

00004f6c <MessageBufferLayerP__0__sendTask__postTask>:
    4f6c:	7f 40 14 00 	mov.b	#20,	r15	;#0x0014
    4f70:	b0 12 f6 4e 	call	#0x4ef6	
    4f74:	30 41       	ret			

00004f76 <LowPowerListeningLayerP__0__transition__postTask>:
    4f76:	7f 40 12 00 	mov.b	#18,	r15	;#0x0012
    4f7a:	b0 12 f6 4e 	call	#0x4ef6	
    4f7e:	30 41       	ret			

00004f80 <LowPowerListeningLayerP__0__SplitControl__start>:
    4f80:	5f 42 92 1c 	mov.b	&0x1c92,r15	
    4f84:	6f 92       	cmp.b	#4,	r15	;r2 As==10
    4f86:	08 24       	jz	$+18     	;abs 0x4f98
    4f88:	4f 93       	tst.b	r15		
    4f8a:	09 20       	jnz	$+20     	;abs 0x4f9e
    4f8c:	e2 42 92 1c 	mov.b	#4,	&0x1c92	;r2 As==10
    4f90:	b0 12 76 4f 	call	#0x4f76	
    4f94:	0f 43       	clr	r15		
    4f96:	30 41       	ret			
    4f98:	3f 40 05 00 	mov	#5,	r15	;#0x0005
    4f9c:	30 41       	ret			
    4f9e:	3f 40 09 00 	mov	#9,	r15	;#0x0009
    4fa2:	30 41       	ret			

00004fa4 <CUSPBaseRecorderP__process_command__postTask>:
    4fa4:	7f 40 0b 00 	mov.b	#11,	r15	;#0x000b
    4fa8:	b0 12 f6 4e 	call	#0x4ef6	
    4fac:	30 41       	ret			

00004fae <SerialDispatcherP__0__ReceiveBytePacket__endPacket>:
    4fae:	c2 93 51 1c 	tst.b	&0x1c51	
    4fb2:	27 20       	jnz	$+80     	;abs 0x5002
    4fb4:	0f 93       	tst	r15		
    4fb6:	25 20       	jnz	$+76     	;abs 0x5002
    4fb8:	d2 43 51 1c 	mov.b	#1,	&0x1c51	;r3 As==01
    4fbc:	d2 42 0a 1c 50 1c 	mov.b	&0x1c0a,&0x1c50	
    4fc2:	d2 b3 5e 1c 	bit.b	#1,	&0x1c5e	;r3 As==01
    4fc6:	0f 6f       	rlc	r15		
    4fc8:	c2 4f 70 1e 	mov.b	r15,	&0x1e70	
    4fcc:	92 42 04 1c 4e 1c 	mov	&0x1c04,&0x1c4e	
    4fd2:	d2 42 5c 1c 4c 1c 	mov.b	&0x1c5c,&0x1c4c	
    4fd8:	5e 43       	mov.b	#1,	r14	;r3 As==01
    4fda:	5e c2 5e 1c 	bic.b	&0x1c5e,r14	
    4fde:	5f 42 5e 1c 	mov.b	&0x1c5e,r15	
    4fe2:	5f c3       	bic.b	#1,	r15	;r3 As==01
    4fe4:	4f de       	bis.b	r14,	r15	
    4fe6:	4e 4e       	mov.b	r14,	r14	
    4fe8:	5e 02       	rlam	#1,	r14	
    4fea:	92 4e 06 1c 04 1c 	mov	7174(r14),&0x1c04	;0x1c06(r14)
    4ff0:	7f f0 e7 ff 	and.b	#-25,	r15	;#0xffe7
    4ff4:	c2 4f 5e 1c 	mov.b	r15,	&0x1c5e	
    4ff8:	7f 40 22 00 	mov.b	#34,	r15	;#0x0022
    4ffc:	b0 12 f6 4e 	call	#0x4ef6	
    5000:	30 41       	ret			
    5002:	d2 b3 5e 1c 	bit.b	#1,	&0x1c5e	;r3 As==01
    5006:	0f 43       	clr	r15		
    5008:	0f 6f       	rlc	r15		
    500a:	5e 42 5e 1c 	mov.b	&0x1c5e,r14	
    500e:	4f 93       	tst.b	r15		
    5010:	02 24       	jz	$+6      	;abs 0x5016
    5012:	6e c2       	bic.b	#4,	r14	;r2 As==10
    5014:	01 3c       	jmp	$+4      	;abs 0x5018
    5016:	6e c3       	bic.b	#2,	r14	;r3 As==10
    5018:	c2 4e 5e 1c 	mov.b	r14,	&0x1c5e	
    501c:	30 41       	ret			

0000501e <HplMsp430GeneralIORenP__18__IO__makeOutput>:
    501e:	0f 42       	mov	r2,	r15	
    5020:	32 c2       	dint			
    5022:	03 43       	nop			
    5024:	e2 d2 24 02 	bis.b	#4,	&0x0224	;r2 As==10
    5028:	3f f2       	and	#8,	r15	;r2 As==11
    502a:	01 24       	jz	$+4      	;abs 0x502e
    502c:	32 d2       	eint			
    502e:	30 41       	ret			

00005030 <HplMsp430GeneralIORenP__18__IO__set>:
    5030:	0f 42       	mov	r2,	r15	
    5032:	32 c2       	dint			
    5034:	03 43       	nop			
    5036:	e2 d2 22 02 	bis.b	#4,	&0x0222	;r2 As==10
    503a:	3f f2       	and	#8,	r15	;r2 As==11
    503c:	01 24       	jz	$+4      	;abs 0x5040
    503e:	32 d2       	eint			
    5040:	30 41       	ret			

00005042 <HplMsp430GeneralIORenP__35__IO__clr>:
    5042:	0f 42       	mov	r2,	r15	
    5044:	32 c2       	dint			
    5046:	03 43       	nop			
    5048:	f2 c2 42 02 	bic.b	#8,	&0x0242	;r2 As==11
    504c:	3f f2       	and	#8,	r15	;r2 As==11
    504e:	01 24       	jz	$+4      	;abs 0x5052
    5050:	32 d2       	eint			
    5052:	30 41       	ret			

00005054 <HplMsp430GeneralIORenP__31__IO__set>:
    5054:	0f 42       	mov	r2,	r15	
    5056:	32 c2       	dint			
    5058:	03 43       	nop			
    505a:	f2 d0 80 ff 23 02 	bis.b	#-128,	&0x0223	;#0xff80
    5060:	3f f2       	and	#8,	r15	;r2 As==11
    5062:	01 24       	jz	$+4      	;abs 0x5066
    5064:	32 d2       	eint			
    5066:	30 41       	ret			

00005068 <HplMsp430GeneralIORenP__41__IO__set>:
    5068:	0f 42       	mov	r2,	r15	
    506a:	32 c2       	dint			
    506c:	03 43       	nop			
    506e:	e2 d3 43 02 	bis.b	#2,	&0x0243	;r3 As==10
    5072:	3f f2       	and	#8,	r15	;r2 As==11
    5074:	01 24       	jz	$+4      	;abs 0x5078
    5076:	32 d2       	eint			
    5078:	30 41       	ret			

0000507a <HplMsp430GeneralIORenP__42__IO__set>:
    507a:	0f 42       	mov	r2,	r15	
    507c:	32 c2       	dint			
    507e:	03 43       	nop			
    5080:	e2 d2 43 02 	bis.b	#4,	&0x0243	;r2 As==10
    5084:	3f f2       	and	#8,	r15	;r2 As==11
    5086:	01 24       	jz	$+4      	;abs 0x508a
    5088:	32 d2       	eint			
    508a:	30 41       	ret			

0000508c <HplMsp430GeneralIORenP__39__IO__set>:
    508c:	0f 42       	mov	r2,	r15	
    508e:	32 c2       	dint			
    5090:	03 43       	nop			
    5092:	f2 d0 80 ff 42 02 	bis.b	#-128,	&0x0242	;#0xff80
    5098:	3f f2       	and	#8,	r15	;r2 As==11
    509a:	01 24       	jz	$+4      	;abs 0x509e
    509c:	32 d2       	eint			
    509e:	30 41       	ret			

000050a0 <HplMsp430GeneralIORenP__39__IO__clr>:
    50a0:	0f 42       	mov	r2,	r15	
    50a2:	32 c2       	dint			
    50a4:	03 43       	nop			
    50a6:	f2 f0 7f 00 42 02 	and.b	#127,	&0x0242	;#0x007f
    50ac:	3f f2       	and	#8,	r15	;r2 As==11
    50ae:	01 24       	jz	$+4      	;abs 0x50b2
    50b0:	32 d2       	eint			
    50b2:	30 41       	ret			

000050b4 <HplMsp430GeneralIORenP__19__IO__makeOutput>:
    50b4:	0f 42       	mov	r2,	r15	
    50b6:	32 c2       	dint			
    50b8:	03 43       	nop			
    50ba:	f2 d2 24 02 	bis.b	#8,	&0x0224	;r2 As==11
    50be:	3f f2       	and	#8,	r15	;r2 As==11
    50c0:	01 24       	jz	$+4      	;abs 0x50c4
    50c2:	32 d2       	eint			
    50c4:	30 41       	ret			

000050c6 <HplMsp430GeneralIORenP__15__IO__makeOutput>:
    50c6:	0f 42       	mov	r2,	r15	
    50c8:	32 c2       	dint			
    50ca:	03 43       	nop			
    50cc:	f2 d0 80 ff 05 02 	bis.b	#-128,	&0x0205	;#0xff80
    50d2:	3f f2       	and	#8,	r15	;r2 As==11
    50d4:	01 24       	jz	$+4      	;abs 0x50d8
    50d6:	32 d2       	eint			
    50d8:	30 41       	ret			

000050da <Msp430UsciSpiP__1__unconfigure_>:
    50da:	d2 b3 ca 05 	bit.b	#1,	&0x05ca	;r3 As==01
    50de:	fd 23       	jnz	$-4      	;abs 0x50da
    50e0:	f2 f0 fc ff dc 05 	and.b	#-4,	&0x05dc	;#0xfffc
    50e6:	92 d3 c0 05 	bis	#1,	&0x05c0	;r3 As==01
    50ea:	b0 12 b4 50 	call	#0x50b4	
    50ee:	f2 c2 2a 02 	bic.b	#8,	&0x022a	;r2 As==11
    50f2:	f2 d0 10 00 24 02 	bis.b	#16,	&0x0224	;#0x0010
    50f8:	f2 f0 ef ff 2a 02 	and.b	#-17,	&0x022a	;#0xffef
    50fe:	b0 12 c6 50 	call	#0x50c6	
    5102:	f2 f0 7f 00 0b 02 	and.b	#127,	&0x020b	;#0x007f
    5108:	30 41       	ret			

0000510a <TimeSyncP__0__clearTable>:
    510a:	c2 43 38 20 	mov.b	#0,	&0x2038	;r3 As==00
    510e:	c2 43 42 20 	mov.b	#0,	&0x2042	;r3 As==00
    5112:	c2 43 4c 20 	mov.b	#0,	&0x204c	;r3 As==00
    5116:	c2 43 56 20 	mov.b	#0,	&0x2056	;r3 As==00
    511a:	c2 43 60 20 	mov.b	#0,	&0x2060	;r3 As==00
    511e:	0f 42       	mov	r2,	r15	
    5120:	32 c2       	dint			
    5122:	03 43       	nop			
    5124:	c2 43 24 20 	mov.b	#0,	&0x2024	;r3 As==00
    5128:	3f f2       	and	#8,	r15	;r2 As==11
    512a:	01 24       	jz	$+4      	;abs 0x512e
    512c:	32 d2       	eint			
    512e:	30 41       	ret			

00005130 <HplMsp430GeneralIORenP__25__IO__makeOutput>:
    5130:	0f 42       	mov	r2,	r15	
    5132:	32 c2       	dint			
    5134:	03 43       	nop			
    5136:	e2 d3 25 02 	bis.b	#2,	&0x0225	;r3 As==10
    513a:	3f f2       	and	#8,	r15	;r2 As==11
    513c:	01 24       	jz	$+4      	;abs 0x5140
    513e:	32 d2       	eint			
    5140:	30 41       	ret			

00005142 <HplMsp430GeneralIORenP__27__IO__makeOutput>:
    5142:	0f 42       	mov	r2,	r15	
    5144:	32 c2       	dint			
    5146:	03 43       	nop			
    5148:	f2 d2 25 02 	bis.b	#8,	&0x0225	;r2 As==11
    514c:	3f f2       	and	#8,	r15	;r2 As==11
    514e:	01 24       	jz	$+4      	;abs 0x5152
    5150:	32 d2       	eint			
    5152:	30 41       	ret			

00005154 <Msp430UsciSpiP__0__unconfigure_>:
    5154:	d2 b3 2a 06 	bit.b	#1,	&0x062a	;r3 As==01
    5158:	fd 23       	jnz	$-4      	;abs 0x5154
    515a:	f2 f0 fc ff 3c 06 	and.b	#-4,	&0x063c	;#0xfffc
    5160:	92 d3 20 06 	bis	#1,	&0x0620	;r3 As==01
    5164:	b0 12 30 51 	call	#0x5130	
    5168:	e2 c3 2b 02 	bic.b	#2,	&0x022b	;r3 As==10
    516c:	e2 d2 25 02 	bis.b	#4,	&0x0225	;r2 As==10
    5170:	e2 c2 2b 02 	bic.b	#4,	&0x022b	;r2 As==10
    5174:	b0 12 42 51 	call	#0x5142	
    5178:	f2 c2 2b 02 	bic.b	#8,	&0x022b	;r2 As==11
    517c:	30 41       	ret			

0000517e <ArbiterP__1__ResourceConfigure__unconfigure>:
    517e:	4f 93       	tst.b	r15		
    5180:	02 24       	jz	$+6      	;abs 0x5186
    5182:	5f 93       	cmp.b	#1,	r15	;r3 As==01
    5184:	02 20       	jnz	$+6      	;abs 0x518a
    5186:	b0 12 54 51 	call	#0x5154	
    518a:	30 41       	ret			

0000518c <HplMsp430GeneralIORenP__24__IO__clr>:
    518c:	0f 42       	mov	r2,	r15	
    518e:	32 c2       	dint			
    5190:	03 43       	nop			
    5192:	d2 c3 23 02 	bic.b	#1,	&0x0223	;r3 As==01
    5196:	3f f2       	and	#8,	r15	;r2 As==11
    5198:	01 24       	jz	$+4      	;abs 0x519c
    519a:	32 d2       	eint			
    519c:	30 41       	ret			

0000519e <HplMsp430GeneralIORenP__24__IO__set>:
    519e:	0f 42       	mov	r2,	r15	
    51a0:	32 c2       	dint			
    51a2:	03 43       	nop			
    51a4:	d2 d3 23 02 	bis.b	#1,	&0x0223	;r3 As==01
    51a8:	3f f2       	and	#8,	r15	;r2 As==11
    51aa:	01 24       	jz	$+4      	;abs 0x51ae
    51ac:	32 d2       	eint			
    51ae:	30 41       	ret			

000051b0 <HplMsp430GeneralIORenP__42__IO__clr>:
    51b0:	0f 42       	mov	r2,	r15	
    51b2:	32 c2       	dint			
    51b4:	03 43       	nop			
    51b6:	e2 c2 43 02 	bic.b	#4,	&0x0243	;r2 As==10
    51ba:	3f f2       	and	#8,	r15	;r2 As==11
    51bc:	01 24       	jz	$+4      	;abs 0x51c0
    51be:	32 d2       	eint			
    51c0:	30 41       	ret			

000051c2 <HplMsp430GeneralIORenP__41__IO__clr>:
    51c2:	0f 42       	mov	r2,	r15	
    51c4:	32 c2       	dint			
    51c6:	03 43       	nop			
    51c8:	e2 c3 43 02 	bic.b	#2,	&0x0243	;r3 As==10
    51cc:	3f f2       	and	#8,	r15	;r2 As==11
    51ce:	01 24       	jz	$+4      	;abs 0x51d2
    51d0:	32 d2       	eint			
    51d2:	30 41       	ret			

000051d4 <RandomMlcgC__Random__rand32>:
    51d4:	4b 15       	pushm	#5,	r11	
    51d6:	09 42       	mov	r2,	r9	
    51d8:	39 f2       	and	#8,	r9	;r2 As==11
    51da:	32 c2       	dint			
    51dc:	03 43       	nop			
    51de:	02 12       	push	r2		
    51e0:	32 c2       	dint			
    51e2:	03 43       	nop			
    51e4:	92 42 bc 1f d0 04 	mov	&0x1fbc,&0x04d0	
    51ea:	92 42 be 1f d2 04 	mov	&0x1fbe,&0x04d2	
    51f0:	b2 40 4e 83 e0 04 	mov	#-31922,&0x04e0	;#0x834e
    51f6:	82 43 e2 04 	mov	#0,	&0x04e2	;r3 As==00
    51fa:	1e 42 e4 04 	mov	&0x04e4,r14	
    51fe:	1f 42 e6 04 	mov	&0x04e6,r15	
    5202:	1a 42 e8 04 	mov	&0x04e8,r10	
    5206:	1b 42 ea 04 	mov	&0x04ea,r11	
    520a:	32 41       	pop	r2		
    520c:	07 4e       	mov	r14,	r7	
    520e:	08 4f       	mov	r15,	r8	
    5210:	0c 4a       	mov	r10,	r12	
    5212:	0d 4b       	mov	r11,	r13	
    5214:	0a 47       	mov	r7,	r10	
    5216:	0b 48       	mov	r8,	r11	
    5218:	12 c3       	clrc			
    521a:	0b 10       	rrc	r11		
    521c:	0a 10       	rrc	r10		
    521e:	0e 4a       	mov	r10,	r14	
    5220:	0f 4b       	mov	r11,	r15	
    5222:	0e 5c       	add	r12,	r14	
    5224:	0f 6d       	addc	r13,	r15	
    5226:	0f 93       	tst	r15		
    5228:	05 34       	jge	$+12     	;abs 0x5234
    522a:	3e f3       	and	#-1,	r14	;r3 As==11
    522c:	3f f0 ff 7f 	and	#32767,	r15	;#0x7fff
    5230:	1e 53       	inc	r14		
    5232:	0f 63       	adc	r15		
    5234:	82 4e bc 1f 	mov	r14,	&0x1fbc	
    5238:	82 4f be 1f 	mov	r15,	&0x1fbe	
    523c:	09 93       	tst	r9		
    523e:	01 24       	jz	$+4      	;abs 0x5242
    5240:	32 d2       	eint			
    5242:	47 17       	popm	#5,	r11	
    5244:	30 41       	ret			

00005246 <BusyWaitCounterC__0__BusyWait__wait>:
    5246:	0d 42       	mov	r2,	r13	
    5248:	3d f2       	and	#8,	r13	;r2 As==11
    524a:	32 c2       	dint			
    524c:	03 43       	nop			
    524e:	1e 42 90 03 	mov	&0x0390,r14	
    5252:	3f 90 01 80 	cmp	#-32767,r15	;#0x8001
    5256:	0a 28       	jnc	$+22     	;abs 0x526c
    5258:	3f 50 00 80 	add	#-32768,r15	;#0x8000
    525c:	1c 42 90 03 	mov	&0x0390,r12	
    5260:	0c 8e       	sub	r14,	r12	
    5262:	0f 9c       	cmp	r12,	r15	
    5264:	fb 2f       	jc	$-8      	;abs 0x525c
    5266:	0e 5f       	add	r15,	r14	
    5268:	3f 40 00 80 	mov	#-32768,r15	;#0x8000
    526c:	1c 42 90 03 	mov	&0x0390,r12	
    5270:	0c 8e       	sub	r14,	r12	
    5272:	0f 9c       	cmp	r12,	r15	
    5274:	fb 2f       	jc	$-8      	;abs 0x526c
    5276:	0d 93       	tst	r13		
    5278:	01 24       	jz	$+4      	;abs 0x527c
    527a:	32 d2       	eint			
    527c:	30 41       	ret			

0000527e <HplMsp430GeneralIORenP__18__IO__clr>:
    527e:	0f 42       	mov	r2,	r15	
    5280:	32 c2       	dint			
    5282:	03 43       	nop			
    5284:	e2 c2 22 02 	bic.b	#4,	&0x0222	;r2 As==10
    5288:	3f f2       	and	#8,	r15	;r2 As==11
    528a:	01 24       	jz	$+4      	;abs 0x528e
    528c:	32 d2       	eint			
    528e:	30 41       	ret			

00005290 <HplMsp430GeneralIORenP__35__IO__set>:
    5290:	0f 42       	mov	r2,	r15	
    5292:	32 c2       	dint			
    5294:	03 43       	nop			
    5296:	f2 d2 42 02 	bis.b	#8,	&0x0242	;r2 As==11
    529a:	3f f2       	and	#8,	r15	;r2 As==11
    529c:	01 24       	jz	$+4      	;abs 0x52a0
    529e:	32 d2       	eint			
    52a0:	30 41       	ret			

000052a2 <ActiveMessageAddressC__amAddress>:
    52a2:	0e 42       	mov	r2,	r14	
    52a4:	32 c2       	dint			
    52a6:	03 43       	nop			
    52a8:	1f 42 24 1c 	mov	&0x1c24,r15	
    52ac:	3e f2       	and	#8,	r14	;r2 As==11
    52ae:	01 24       	jz	$+4      	;abs 0x52b2
    52b0:	32 d2       	eint			
    52b2:	30 41       	ret			

000052b4 <TimeSyncMessageLayerP__0__AMPacket__isForMe>:
    52b4:	1b 15       	pushm	#2,	r11	
    52b6:	0a 4f       	mov	r15,	r10	
    52b8:	5b 4f 07 00 	mov.b	7(r15),	r11	;0x0007(r15)
    52bc:	8b 10       	swpb	r11		
    52be:	5f 4f 06 00 	mov.b	6(r15),	r15	;0x0006(r15)
    52c2:	0b df       	bis	r15,	r11	
    52c4:	b0 12 a2 52 	call	#0x52a2	
    52c8:	0b 9f       	cmp	r15,	r11	
    52ca:	05 24       	jz	$+12     	;abs 0x52d6
    52cc:	1f 43       	mov	#1,	r15	;r3 As==01
    52ce:	3b 93       	cmp	#-1,	r11	;r3 As==11
    52d0:	03 24       	jz	$+8      	;abs 0x52d8
    52d2:	0f 43       	clr	r15		
    52d4:	01 3c       	jmp	$+4      	;abs 0x52d8
    52d6:	1f 43       	mov	#1,	r15	;r3 As==01
    52d8:	4f 93       	tst.b	r15		
    52da:	05 24       	jz	$+12     	;abs 0x52e6
    52dc:	1f 43       	mov	#1,	r15	;r3 As==01
    52de:	fa 90 3d 00 0b 00 	cmp.b	#61,	11(r10)	;#0x003d, 0x000b(r10)
    52e4:	01 24       	jz	$+4      	;abs 0x52e8
    52e6:	0f 43       	clr	r15		
    52e8:	4f 4f       	mov.b	r15,	r15	
    52ea:	1a 17       	popm	#2,	r11	
    52ec:	30 41       	ret			

000052ee <RandomCollisionLayerP__0__getBackoff>:
    52ee:	1b 15       	pushm	#2,	r11	
    52f0:	0a 4f       	mov	r15,	r10	
    52f2:	0d 42       	mov	r2,	r13	
    52f4:	32 c2       	dint			
    52f6:	03 43       	nop			
    52f8:	1b 42 d2 22 	mov	&0x22d2,r11	
    52fc:	0f 4b       	mov	r11,	r15	
    52fe:	3f 50 11 01 	add	#273,	r15	;#0x0111
    5302:	82 4f d2 22 	mov	r15,	&0x22d2	
    5306:	3d f2       	and	#8,	r13	;r2 As==11
    5308:	01 24       	jz	$+4      	;abs 0x530c
    530a:	32 d2       	eint			
    530c:	7f 40 16 00 	mov.b	#22,	r15	;#0x0016
    5310:	b0 12 f6 4e 	call	#0x4ef6	
    5314:	0e 4a       	mov	r10,	r14	
    5316:	0f 4b       	mov	r11,	r15	
    5318:	b0 12 00 bd 	call	#0xbd00	
    531c:	3f 50 40 01 	add	#320,	r15	;#0x0140
    5320:	1a 17       	popm	#2,	r11	
    5322:	30 41       	ret			

00005324 <HplMsp430GeneralIORenP__28__IO__makeOutput>:
    5324:	0f 42       	mov	r2,	r15	
    5326:	32 c2       	dint			
    5328:	03 43       	nop			
    532a:	f2 d0 10 00 25 02 	bis.b	#16,	&0x0225	;#0x0010
    5330:	3f f2       	and	#8,	r15	;r2 As==11
    5332:	01 24       	jz	$+4      	;abs 0x5336
    5334:	32 d2       	eint			
    5336:	30 41       	ret			

00005338 <Msp430UsciUartP__0__unconfigure_>:
    5338:	d2 b3 0a 06 	bit.b	#1,	&0x060a	;r3 As==01
    533c:	fd 23       	jnz	$-4      	;abs 0x5338
    533e:	f2 f0 fc ff 1c 06 	and.b	#-4,	&0x061c	;#0xfffc
    5344:	92 d3 00 06 	bis	#1,	&0x0600	;r3 As==01
    5348:	f2 d0 20 00 25 02 	bis.b	#32,	&0x0225	;#0x0020
    534e:	f2 f0 df ff 2b 02 	and.b	#-33,	&0x022b	;#0xffdf
    5354:	b0 12 24 53 	call	#0x5324	
    5358:	f2 f0 ef ff 2b 02 	and.b	#-17,	&0x022b	;#0xffef
    535e:	30 41       	ret			

00005360 <HplMsp430GeneralIORenP__41__IO__toggle>:
    5360:	0f 42       	mov	r2,	r15	
    5362:	32 c2       	dint			
    5364:	03 43       	nop			
    5366:	e2 e3 43 02 	xor.b	#2,	&0x0243	;r3 As==10
    536a:	3f f2       	and	#8,	r15	;r2 As==11
    536c:	01 24       	jz	$+4      	;abs 0x5370
    536e:	32 d2       	eint			
    5370:	30 41       	ret			

00005372 <HplMsp430GeneralIORenP__42__IO__toggle>:
    5372:	0f 42       	mov	r2,	r15	
    5374:	32 c2       	dint			
    5376:	03 43       	nop			
    5378:	e2 e2 43 02 	xor.b	#4,	&0x0243	;r2 As==10
    537c:	3f f2       	and	#8,	r15	;r2 As==11
    537e:	01 24       	jz	$+4      	;abs 0x5382
    5380:	32 d2       	eint			
    5382:	30 41       	ret			

00005384 <HplMsp430GeneralIORenP__39__IO__toggle>:
    5384:	0f 42       	mov	r2,	r15	
    5386:	32 c2       	dint			
    5388:	03 43       	nop			
    538a:	f2 50 80 ff 42 02 	add.b	#-128,	&0x0242	;#0xff80
    5390:	3f f2       	and	#8,	r15	;r2 As==11
    5392:	01 24       	jz	$+4      	;abs 0x5396
    5394:	32 d2       	eint			
    5396:	30 41       	ret			

00005398 <SerialP__MaybeScheduleTx>:
    5398:	0b 12       	push	r11		
    539a:	0b 42       	mov	r2,	r11	
    539c:	3b f2       	and	#8,	r11	;r2 As==11
    539e:	32 c2       	dint			
    53a0:	03 43       	nop			
    53a2:	c2 93 13 34 	tst.b	&0x3413	
    53a6:	08 20       	jnz	$+18     	;abs 0x53b8
    53a8:	7f 40 1d 00 	mov.b	#29,	r15	;#0x001d
    53ac:	b0 12 f6 4e 	call	#0x4ef6	
    53b0:	0f 93       	tst	r15		
    53b2:	02 20       	jnz	$+6      	;abs 0x53b8
    53b4:	d2 43 13 34 	mov.b	#1,	&0x3413	;r3 As==01
    53b8:	0b 93       	tst	r11		
    53ba:	01 24       	jz	$+4      	;abs 0x53be
    53bc:	32 d2       	eint			
    53be:	3b 41       	pop	r11		
    53c0:	30 41       	ret			

000053c2 <TaskletC__Tasklet__suspend>:
    53c2:	0f 42       	mov	r2,	r15	
    53c4:	32 c2       	dint			
    53c6:	03 43       	nop			
    53c8:	d2 53 42 1f 	inc.b	&0x1f42	
    53cc:	3f f2       	and	#8,	r15	;r2 As==11
    53ce:	01 24       	jz	$+4      	;abs 0x53d2
    53d0:	32 d2       	eint			
    53d2:	30 41       	ret			

000053d4 <SerialP__ack_queue_is_empty>:
    53d4:	0e 42       	mov	r2,	r14	
    53d6:	32 c2       	dint			
    53d8:	03 43       	nop			
    53da:	5f 43       	mov.b	#1,	r15	;r3 As==01
    53dc:	d2 92 d3 20 d2 20 	cmp.b	&0x20d3,&0x20d2	
    53e2:	01 24       	jz	$+4      	;abs 0x53e6
    53e4:	4f 43       	clr.b	r15		
    53e6:	3e f2       	and	#8,	r14	;r2 As==11
    53e8:	01 24       	jz	$+4      	;abs 0x53ec
    53ea:	32 d2       	eint			
    53ec:	30 41       	ret			

000053ee <SerialP__SplitControl__start>:
    53ee:	0f 42       	mov	r2,	r15	
    53f0:	3f f2       	and	#8,	r15	;r2 As==11
    53f2:	32 c2       	dint			
    53f4:	03 43       	nop			
    53f6:	f2 90 0a 00 ca 22 	cmp.b	#10,	&0x22ca	;#0x000a
    53fc:	07 24       	jz	$+16     	;abs 0x540c
    53fe:	e2 92 60 1f 	cmp.b	#4,	&0x1f60	;r2 As==10
    5402:	04 24       	jz	$+10     	;abs 0x540c
    5404:	0f 93       	tst	r15		
    5406:	0b 24       	jz	$+24     	;abs 0x541e
    5408:	32 d2       	eint			
    540a:	09 3c       	jmp	$+20     	;abs 0x541e
    540c:	0f 93       	tst	r15		
    540e:	01 24       	jz	$+4      	;abs 0x5412
    5410:	32 d2       	eint			
    5412:	7f 40 1e 00 	mov.b	#30,	r15	;#0x001e
    5416:	b0 12 f6 4e 	call	#0x4ef6	
    541a:	0f 43       	clr	r15		
    541c:	30 41       	ret			
    541e:	3f 40 09 00 	mov	#9,	r15	;#0x0009
    5422:	30 41       	ret			

00005424 <TimeSyncP__0__is_synced.part.285>:
    5424:	1f 42 e8 1c 	mov	&0x1ce8,r15	
    5428:	6e 4f       	mov.b	@r15,	r14	
    542a:	8e 10       	swpb	r14		
    542c:	5f 4f 01 00 	mov.b	1(r15),	r15	;0x0001(r15)
    5430:	0e df       	bis	r15,	r14	
    5432:	1f 43       	mov	#1,	r15	;r3 As==01
    5434:	1e 92 44 1c 	cmp	&0x1c44,r14	
    5438:	01 20       	jnz	$+4      	;abs 0x543c
    543a:	0f 43       	clr	r15		
    543c:	30 41       	ret			

0000543e <ArbiterP__4__Resource__request>:
    543e:	0b 12       	push	r11		
    5440:	0e 42       	mov	r2,	r14	
    5442:	3e f2       	and	#8,	r14	;r2 As==11
    5444:	32 c2       	dint			
    5446:	03 43       	nop			
    5448:	c2 9f 0d 1c 	cmp.b	r15,	&0x1c0d	
    544c:	07 20       	jnz	$+16     	;abs 0x545c
    544e:	0e 93       	tst	r14		
    5450:	01 20       	jnz	$+4      	;abs 0x5454
    5452:	01 3c       	jmp	$+4      	;abs 0x5456
    5454:	32 d2       	eint			
    5456:	3f 40 05 00 	mov	#5,	r15	;#0x0005
    545a:	51 3c       	jmp	$+164    	;abs 0x54fe
    545c:	4d 4f       	mov.b	r15,	r13	
    545e:	fd 93 cc 32 	cmp.b	#-1,	13004(r13);r3 As==11, 0x32cc(r13)
    5462:	06 20       	jnz	$+14     	;abs 0x5470
    5464:	1d 43       	mov	#1,	r13	;r3 As==01
    5466:	c2 9f 0f 1c 	cmp.b	r15,	&0x1c0f	
    546a:	03 24       	jz	$+8      	;abs 0x5472
    546c:	0d 43       	clr	r13		
    546e:	01 3c       	jmp	$+4      	;abs 0x5472
    5470:	1d 43       	mov	#1,	r13	;r3 As==01
    5472:	4d 93       	tst.b	r13		
    5474:	ec 23       	jnz	$-38     	;abs 0x544e
    5476:	f2 93 10 1c 	cmp.b	#-1,	&0x1c10	;r3 As==11
    547a:	03 20       	jnz	$+8      	;abs 0x5482
    547c:	c2 4f 10 1c 	mov.b	r15,	&0x1c10	
    5480:	04 3c       	jmp	$+10     	;abs 0x548a
    5482:	5d 42 0f 1c 	mov.b	&0x1c0f,r13	
    5486:	cd 4f cc 32 	mov.b	r15,	13004(r13);0x32cc(r13)
    548a:	c2 4f 0f 1c 	mov.b	r15,	&0x1c0f	
    548e:	0e 93       	tst	r14		
    5490:	01 24       	jz	$+4      	;abs 0x5494
    5492:	32 d2       	eint			
    5494:	0b 42       	mov	r2,	r11	
    5496:	3b f2       	and	#8,	r11	;r2 As==11
    5498:	32 c2       	dint			
    549a:	03 43       	nop			
    549c:	c2 93 97 1c 	tst.b	&0x1c97	
    54a0:	06 24       	jz	$+14     	;abs 0x54ae
    54a2:	0b 93       	tst	r11		
    54a4:	01 20       	jnz	$+4      	;abs 0x54a8
    54a6:	01 3c       	jmp	$+4      	;abs 0x54aa
    54a8:	32 d2       	eint			
    54aa:	0f 43       	clr	r15		
    54ac:	28 3c       	jmp	$+82     	;abs 0x54fe
    54ae:	d2 43 97 1c 	mov.b	#1,	&0x1c97	;r3 As==01
    54b2:	b0 12 d4 4c 	call	#0x4cd4	
    54b6:	c2 4f 0d 1c 	mov.b	r15,	&0x1c0d	
    54ba:	0b 93       	tst	r11		
    54bc:	01 24       	jz	$+4      	;abs 0x54c0
    54be:	32 d2       	eint			
    54c0:	0b 42       	mov	r2,	r11	
    54c2:	3b f2       	and	#8,	r11	;r2 As==11
    54c4:	32 c2       	dint			
    54c6:	03 43       	nop			
    54c8:	e2 93 0e 1c 	cmp.b	#2,	&0x1c0e	;r3 As==10
    54cc:	ea 23       	jnz	$-42     	;abs 0x54a2
    54ce:	5f 42 97 1c 	mov.b	&0x1c97,r15	
    54d2:	4e 4f       	mov.b	r15,	r14	
    54d4:	7e 53       	add.b	#-1,	r14	;r3 As==11
    54d6:	6e 93       	cmp.b	#2,	r14	;r3 As==10
    54d8:	07 2c       	jc	$+16     	;abs 0x54e8
    54da:	e2 43 97 1c 	mov.b	#2,	&0x1c97	;r3 As==10
    54de:	7f 40 1c 00 	mov.b	#28,	r15	;#0x001c
    54e2:	b0 12 f6 4e 	call	#0x4ef6	
    54e6:	dd 3f       	jmp	$-68     	;abs 0x54a2
    54e8:	7f 90 03 00 	cmp.b	#3,	r15	;#0x0003
    54ec:	da 23       	jnz	$-74     	;abs 0x54a2
    54ee:	d2 42 0d 1c 0e 1c 	mov.b	&0x1c0d,&0x1c0e	
    54f4:	f2 43 0d 1c 	mov.b	#-1,	&0x1c0d	;r3 As==11
    54f8:	e2 42 97 1c 	mov.b	#4,	&0x1c97	;r2 As==10
    54fc:	d2 3f       	jmp	$-90     	;abs 0x54a2
    54fe:	3b 41       	pop	r11		
    5500:	30 41       	ret			

00005502 <BlockStorageP__newRequest>:
    5502:	4b 15       	pushm	#5,	r11	
    5504:	17 41 0e 00 	mov	14(r1),	r7	;0x000e(r1)
    5508:	18 41 10 00 	mov	16(r1),	r8	;0x0010(r1)
    550c:	49 4e       	mov.b	r14,	r9	
    550e:	0a 49       	mov	r9,	r10	
    5510:	5a 06       	rlam	#2,	r10	
    5512:	0b 49       	mov	r9,	r11	
    5514:	5b 0e       	rlam	#4,	r11	
    5516:	0b 8a       	sub	r10,	r11	
    5518:	cb 93 c4 20 	tst.b	8388(r11)	;0x20c4(r11)
    551c:	40 20       	jnz	$+130    	;abs 0x559e
    551e:	4e 93       	tst.b	r14		
    5520:	03 24       	jz	$+8      	;abs 0x5528
    5522:	0a 43       	clr	r10		
    5524:	0b 43       	clr	r11		
    5526:	02 3c       	jmp	$+6      	;abs 0x552c
    5528:	2a 42       	mov	#4,	r10	;r2 As==10
    552a:	0b 43       	clr	r11		
    552c:	02 12       	push	r2		
    552e:	32 c2       	dint			
    5530:	03 43       	nop			
    5532:	82 4a d4 04 	mov	r10,	&0x04d4	
    5536:	82 4b d6 04 	mov	r11,	&0x04d6	
    553a:	b2 40 10 02 e0 04 	mov	#528,	&0x04e0	;#0x0210
    5540:	82 43 e2 04 	mov	#0,	&0x04e2	;r3 As==00
    5544:	1a 42 ca 04 	mov	&0x04ca,r10	
    5548:	1b 42 cc 04 	mov	&0x04cc,r11	
    554c:	32 41       	pop	r2		
    554e:	0b 9d       	cmp	r13,	r11	
    5550:	29 28       	jnc	$+84     	;abs 0x55a4
    5552:	02 20       	jnz	$+6      	;abs 0x5558
    5554:	0a 9c       	cmp	r12,	r10	
    5556:	26 28       	jnc	$+78     	;abs 0x55a4
    5558:	0a 8c       	sub	r12,	r10	
    555a:	0b 7d       	subc	r13,	r11	
    555c:	0b 98       	cmp	r8,	r11	
    555e:	22 28       	jnc	$+70     	;abs 0x55a4
    5560:	02 20       	jnz	$+6      	;abs 0x5566
    5562:	0a 97       	cmp	r7,	r10	
    5564:	1f 28       	jnc	$+64     	;abs 0x55a4
    5566:	0a 49       	mov	r9,	r10	
    5568:	5a 06       	rlam	#2,	r10	
    556a:	0b 49       	mov	r9,	r11	
    556c:	5b 0e       	rlam	#4,	r11	
    556e:	0b 8a       	sub	r10,	r11	
    5570:	3b 50 c4 20 	add	#8388,	r11	;#0x20c4
    5574:	cb 4f 00 00 	mov.b	r15,	0(r11)	;0x0000(r11)
    5578:	8b 4c 04 00 	mov	r12,	4(r11)	;0x0004(r11)
    557c:	8b 4d 06 00 	mov	r13,	6(r11)	;0x0006(r11)
    5580:	0f 4b       	mov	r11,	r15	
    5582:	3f 52       	add	#8,	r15	;r2 As==11
    5584:	8f 47 00 00 	mov	r7,	0(r15)	;0x0000(r15)
    5588:	8f 48 02 00 	mov	r8,	2(r15)	;0x0002(r15)
    558c:	9b 41 0c 00 02 00 	mov	12(r1),	2(r11)	;0x000c(r1), 0x0002(r11)
    5592:	4e 93       	tst.b	r14		
    5594:	0a 20       	jnz	$+22     	;abs 0x55aa
    5596:	5f 43       	mov.b	#1,	r15	;r3 As==01
    5598:	b0 12 3e 54 	call	#0x543e	
    559c:	06 3c       	jmp	$+14     	;abs 0x55aa
    559e:	3f 40 05 00 	mov	#5,	r15	;#0x0005
    55a2:	04 3c       	jmp	$+10     	;abs 0x55ac
    55a4:	3f 40 06 00 	mov	#6,	r15	;#0x0006
    55a8:	01 3c       	jmp	$+4      	;abs 0x55ac
    55aa:	0f 43       	clr	r15		
    55ac:	47 17       	popm	#5,	r11	
    55ae:	30 41       	ret			

000055b0 <Msp430Adc12ImplP__SingleChannel__configureSingle>:
    55b0:	2b 15       	pushm	#3,	r11	
    55b2:	31 50 f0 ff 	add	#-16,	r1	;#0xfff0
    55b6:	0b 4e       	mov	r14,	r11	
    55b8:	0e 93       	tst	r14		
    55ba:	78 24       	jz	$+242    	;abs 0x56ac
    55bc:	09 42       	mov	r2,	r9	
    55be:	39 f2       	and	#8,	r9	;r2 As==11
    55c0:	32 c2       	dint			
    55c2:	03 43       	nop			
    55c4:	f2 b0 20 00 d0 20 	bit.b	#32,	&0x20d0	;#0x0020
    55ca:	04 24       	jz	$+10     	;abs 0x55d4
    55cc:	09 93       	tst	r9		
    55ce:	6b 24       	jz	$+216    	;abs 0x56a6
    55d0:	32 d2       	eint			
    55d2:	69 3c       	jmp	$+212    	;abs 0x56a6
    55d4:	c2 9f 02 1c 	cmp.b	r15,	&0x1c02	
    55d8:	61 20       	jnz	$+196    	;abs 0x569c
    55da:	81 43 0a 00 	mov	#0,	10(r1)	;r3 As==00, 0x000a(r1)
    55de:	5d 4e 01 00 	mov.b	1(r14),	r13	;0x0001(r14)
    55e2:	5d 06       	rlam	#2,	r13	
    55e4:	7d f0 18 00 	and.b	#24,	r13	;#0x0018
    55e8:	5f 41 0a 00 	mov.b	10(r1),	r15	;0x000a(r1)
    55ec:	7f f0 07 00 	and.b	#7,	r15	;#0x0007
    55f0:	5e 4e 01 00 	mov.b	1(r14),	r14	;0x0001(r14)
    55f4:	5e 06       	rlam	#2,	r14	
    55f6:	7e f0 e0 ff 	and.b	#-32,	r14	;#0xffe0
    55fa:	4f dd       	bis.b	r13,	r15	
    55fc:	4f de       	bis.b	r14,	r15	
    55fe:	c1 4f 0a 00 	mov.b	r15,	10(r1)	;0x000a(r1)
    5602:	e1 d3 0b 00 	bis.b	#2,	11(r1)	;r3 As==10, 0x000b(r1)
    5606:	6f 4b       	mov.b	@r11,	r15	
    5608:	5f 03       	rrum	#1,	r15	
    560a:	7f f0 70 00 	and.b	#112,	r15	;#0x0070
    560e:	6a 4b       	mov.b	@r11,	r10	
    5610:	7a f0 0f 00 	and.b	#15,	r10	;#0x000f
    5614:	4a df       	bis.b	r15,	r10	
    5616:	7a d0 80 ff 	bis.b	#-128,	r10	;#0xff80
    561a:	b0 12 90 4b 	call	#0x4b90	
    561e:	c1 4f 0c 00 	mov.b	r15,	12(r1)	;0x000c(r1)
    5622:	8f 10       	swpb	r15		
    5624:	c1 4f 0d 00 	mov.b	r15,	13(r1)	;0x000d(r1)
    5628:	91 41 0c 00 08 00 	mov	12(r1),	8(r1)	;0x000c(r1), 0x0008(r1)
    562e:	b1 d0 80 00 08 00 	bis	#128,	8(r1)	;#0x0080, 0x0008(r1)
    5634:	5e 4b 02 00 	mov.b	2(r11),	r14	;0x0002(r11)
    5638:	3e f0 0f 00 	and	#15,	r14	;#0x000f
    563c:	0d 4e       	mov	r14,	r13	
    563e:	8d 10       	swpb	r13		
    5640:	1f 41 08 00 	mov	8(r1),	r15	;0x0008(r1)
    5644:	3f f0 ff f0 	and	#-3841,	r15	;#0xf0ff
    5648:	0f dd       	bis	r13,	r15	
    564a:	81 4f 08 00 	mov	r15,	8(r1)	;0x0008(r1)
    564e:	0e 4d       	mov	r13,	r14	
    5650:	5e 0e       	rlam	#4,	r14	
    5652:	1f 41 08 00 	mov	8(r1),	r15	;0x0008(r1)
    5656:	3f f0 ff 0f 	and	#4095,	r15	;#0x0fff
    565a:	0f de       	bis	r14,	r15	
    565c:	81 4f 08 00 	mov	r15,	8(r1)	;0x0008(r1)
    5660:	d2 43 d0 20 	mov.b	#1,	&0x20d0	;r3 As==01
    5664:	91 41 08 00 04 00 	mov	8(r1),	4(r1)	;0x0008(r1), 0x0004(r1)
    566a:	1f 41 08 00 	mov	8(r1),	r15	;0x0008(r1)
    566e:	b0 12 74 4b 	call	#0x4b74	
    5672:	91 41 0a 00 06 00 	mov	10(r1),	6(r1)	;0x000a(r1), 0x0006(r1)
    5678:	91 41 0a 00 02 00 	mov	10(r1),	2(r1)	;0x000a(r1), 0x0002(r1)
    567e:	91 41 0a 00 00 00 	mov	10(r1),	0(r1)	;0x000a(r1), 0x0000(r1)
    5684:	a1 41 0e 00 	mov	@r1,	14(r1)	;0x000e(r1)
    5688:	a2 41 02 07 	mov	@r1,	&0x0702	
    568c:	4e 4a       	mov.b	r10,	r14	
    568e:	4f 43       	clr.b	r15		
    5690:	b0 12 82 4b 	call	#0x4b82	
    5694:	92 43 0c 07 	mov	#1,	&0x070c	;r3 As==01
    5698:	0f 43       	clr	r15		
    569a:	01 3c       	jmp	$+4      	;abs 0x569e
    569c:	3f 42       	mov	#8,	r15	;r2 As==11
    569e:	09 93       	tst	r9		
    56a0:	07 24       	jz	$+16     	;abs 0x56b0
    56a2:	32 d2       	eint			
    56a4:	05 3c       	jmp	$+12     	;abs 0x56b0
    56a6:	3f 40 05 00 	mov	#5,	r15	;#0x0005
    56aa:	02 3c       	jmp	$+6      	;abs 0x56b0
    56ac:	3f 40 06 00 	mov	#6,	r15	;#0x0006
    56b0:	31 50 10 00 	add	#16,	r1	;#0x0010
    56b4:	29 17       	popm	#3,	r11	
    56b6:	30 41       	ret			

000056b8 <SerialP__testOff>:
    56b8:	0e 42       	mov	r2,	r14	
    56ba:	3e f2       	and	#8,	r14	;r2 As==11
    56bc:	32 c2       	dint			
    56be:	03 43       	nop			
    56c0:	f2 90 0a 00 ca 22 	cmp.b	#10,	&0x22ca	;#0x000a
    56c6:	04 20       	jnz	$+10     	;abs 0x56d0
    56c8:	5f 43       	mov.b	#1,	r15	;r3 As==01
    56ca:	e2 92 60 1f 	cmp.b	#4,	&0x1f60	;r2 As==10
    56ce:	01 24       	jz	$+4      	;abs 0x56d2
    56d0:	4f 43       	clr.b	r15		
    56d2:	0e 93       	tst	r14		
    56d4:	01 24       	jz	$+4      	;abs 0x56d8
    56d6:	32 d2       	eint			
    56d8:	4f 93       	tst.b	r15		
    56da:	0d 24       	jz	$+28     	;abs 0x56f6
    56dc:	7f 40 1f 00 	mov.b	#31,	r15	;#0x001f
    56e0:	b0 12 f6 4e 	call	#0x4ef6	
    56e4:	0f 42       	mov	r2,	r15	
    56e6:	32 c2       	dint			
    56e8:	03 43       	nop			
    56ea:	c2 43 60 1c 	mov.b	#0,	&0x1c60	;r3 As==00
    56ee:	3f f2       	and	#8,	r15	;r2 As==11
    56f0:	08 24       	jz	$+18     	;abs 0x5702
    56f2:	32 d2       	eint			
    56f4:	30 41       	ret			
    56f6:	0f 42       	mov	r2,	r15	
    56f8:	32 c2       	dint			
    56fa:	03 43       	nop			
    56fc:	d2 43 60 1c 	mov.b	#1,	&0x1c60	;r3 As==01
    5700:	f6 3f       	jmp	$-18     	;abs 0x56ee
    5702:	30 41       	ret			

00005704 <SerialP__rx_state_machine>:
    5704:	1b 15       	pushm	#2,	r11	
    5706:	4b 4f       	mov.b	r15,	r11	
    5708:	4a 4e       	mov.b	r14,	r10	
    570a:	5f 42 60 1f 	mov.b	&0x1f60,r15	
    570e:	5f 93       	cmp.b	#1,	r15	;r3 As==01
    5710:	0c 24       	jz	$+26     	;abs 0x572a
    5712:	06 28       	jnc	$+14     	;abs 0x5720
    5714:	6f 93       	cmp.b	#2,	r15	;r3 As==10
    5716:	3a 24       	jz	$+118    	;abs 0x578c
    5718:	7f 90 03 00 	cmp.b	#3,	r15	;#0x0003
    571c:	e0 20       	jnz	$+450    	;abs 0x58de
    571e:	44 3c       	jmp	$+138    	;abs 0x57a8
    5720:	4b 93       	tst.b	r11		
    5722:	f0 24       	jz	$+482    	;abs 0x5904
    5724:	b0 12 d6 4b 	call	#0x4bd6	
    5728:	eb 3c       	jmp	$+472    	;abs 0x5900
    572a:	4b 93       	tst.b	r11		
    572c:	eb 20       	jnz	$+472    	;abs 0x5904
    572e:	1f 42 e6 20 	mov	&0x20e6,r15	
    5732:	b0 12 20 4c 	call	#0x4c20	
    5736:	82 4f e6 20 	mov	r15,	&0x20e6	
    573a:	e2 43 60 1f 	mov.b	#2,	&0x1f60	;r3 As==10
    573e:	c2 4a 35 24 	mov.b	r10,	&0x2435	
    5742:	7a 90 44 00 	cmp.b	#68,	r10	;#0x0044
    5746:	cb 20       	jnz	$+408    	;abs 0x58de
    5748:	d2 b3 5e 1c 	bit.b	#1,	&0x1c5e	;r3 As==01
    574c:	07 24       	jz	$+16     	;abs 0x575c
    574e:	e2 b2 5e 1c 	bit.b	#4,	&0x1c5e	;r2 As==10
    5752:	0f 43       	clr	r15		
    5754:	0f 6f       	rlc	r15		
    5756:	4f 93       	tst.b	r15		
    5758:	c2 20       	jnz	$+390    	;abs 0x58de
    575a:	07 3c       	jmp	$+16     	;abs 0x576a
    575c:	e2 b3 5e 1c 	bit.b	#2,	&0x1c5e	;r3 As==10
    5760:	0f 43       	clr	r15		
    5762:	0f 6f       	rlc	r15		
    5764:	4f 93       	tst.b	r15		
    5766:	bb 20       	jnz	$+376    	;abs 0x58de
    5768:	03 3c       	jmp	$+8      	;abs 0x5770
    576a:	e2 d2 5e 1c 	bis.b	#4,	&0x1c5e	;r2 As==10
    576e:	02 3c       	jmp	$+6      	;abs 0x5774
    5770:	e2 d3 5e 1c 	bis.b	#2,	&0x1c5e	;r3 As==10
    5774:	5f 42 5e 1c 	mov.b	&0x1c5e,r15	
    5778:	7f f0 e7 ff 	and.b	#-25,	r15	;#0xffe7
    577c:	7f d2       	bis.b	#8,	r15	;r2 As==11
    577e:	c2 4f 5e 1c 	mov.b	r15,	&0x1c5e	
    5782:	c2 43 5c 1c 	mov.b	#0,	&0x1c5c	;r3 As==00
    5786:	f2 43 0a 1c 	mov.b	#-1,	&0x1c0a	;r3 As==11
    578a:	bc 3c       	jmp	$+378    	;abs 0x5904
    578c:	4b 93       	tst.b	r11		
    578e:	a7 20       	jnz	$+336    	;abs 0x58de
    5790:	c2 4e 64 1f 	mov.b	r14,	&0x1f64	
    5794:	1f 42 e6 20 	mov	&0x20e6,r15	
    5798:	b0 12 20 4c 	call	#0x4c20	
    579c:	82 4f e6 20 	mov	r15,	&0x20e6	
    57a0:	f2 40 03 00 60 1f 	mov.b	#3,	&0x1f60	;#0x0003
    57a6:	ae 3c       	jmp	$+350    	;abs 0x5904
    57a8:	5f 42 24 23 	mov.b	&0x2324,r15	
    57ac:	7f 93       	cmp.b	#-1,	r15	;r3 As==11
    57ae:	97 24       	jz	$+304    	;abs 0x58de
    57b0:	4b 93       	tst.b	r11		
    57b2:	41 24       	jz	$+132    	;abs 0x5836
    57b4:	6f 93       	cmp.b	#2,	r15	;r3 As==10
    57b6:	93 28       	jnc	$+296    	;abs 0x58de
    57b8:	5f 42 fa 23 	mov.b	&0x23fa,r15	
    57bc:	4f 93       	tst.b	r15		
    57be:	02 24       	jz	$+6      	;abs 0x57c4
    57c0:	7f 53       	add.b	#-1,	r15	;r3 As==11
    57c2:	01 3c       	jmp	$+4      	;abs 0x57c6
    57c4:	6f 43       	mov.b	#2,	r15	;r3 As==10
    57c6:	4e 4f       	mov.b	r15,	r14	
    57c8:	5e 4e fc 23 	mov.b	9212(r14),r14	;0x23fc(r14)
    57cc:	8e 10       	swpb	r14		
    57ce:	4f 93       	tst.b	r15		
    57d0:	02 24       	jz	$+6      	;abs 0x57d6
    57d2:	7f 53       	add.b	#-1,	r15	;r3 As==11
    57d4:	01 3c       	jmp	$+4      	;abs 0x57d8
    57d6:	6f 43       	mov.b	#2,	r15	;r3 As==10
    57d8:	4f 4f       	mov.b	r15,	r15	
    57da:	5f 4f fc 23 	mov.b	9212(r15),r15	;0x23fc(r15)
    57de:	0f de       	bis	r14,	r15	
    57e0:	1f 92 e6 20 	cmp	&0x20e6,r15	
    57e4:	7c 20       	jnz	$+250    	;abs 0x58de
    57e6:	0f 43       	clr	r15		
    57e8:	b0 12 ae 4f 	call	#0x4fae	
    57ec:	5c 42 64 1f 	mov.b	&0x1f64,r12	
    57f0:	5e 42 d2 20 	mov.b	&0x20d2,r14	
    57f4:	5b 42 d3 20 	mov.b	&0x20d3,r11	
    57f8:	4f 4e       	mov.b	r14,	r15	
    57fa:	5f 53       	inc.b	r15		
    57fc:	7f 90 06 00 	cmp.b	#6,	r15	;#0x0006
    5800:	02 2c       	jc	$+6      	;abs 0x5806
    5802:	4d 4f       	mov.b	r15,	r13	
    5804:	01 3c       	jmp	$+4      	;abs 0x5808
    5806:	4d 43       	clr.b	r13		
    5808:	4d 9b       	cmp.b	r11,	r13	
    580a:	0d 24       	jz	$+28     	;abs 0x5826
    580c:	4e 4e       	mov.b	r14,	r14	
    580e:	ce 4c d4 20 	mov.b	r12,	8404(r14);0x20d4(r14)
    5812:	7f 90 06 00 	cmp.b	#6,	r15	;#0x0006
    5816:	03 2c       	jc	$+8      	;abs 0x581e
    5818:	c2 4f d2 20 	mov.b	r15,	&0x20d2	
    581c:	02 3c       	jmp	$+6      	;abs 0x5822
    581e:	c2 43 d2 20 	mov.b	#0,	&0x20d2	;r3 As==00
    5822:	b0 12 98 53 	call	#0x5398	
    5826:	b0 12 d6 4b 	call	#0x4bd6	
    582a:	e2 c3 4a 1c 	bic.b	#2,	&0x1c4a	;r3 As==10
    582e:	c2 93 60 1c 	tst.b	&0x1c60	
    5832:	68 24       	jz	$+210    	;abs 0x5904
    5834:	5e 3c       	jmp	$+190    	;abs 0x58f2
    5836:	6f 93       	cmp.b	#2,	r15	;r3 As==10
    5838:	41 28       	jnc	$+132    	;abs 0x58bc
    583a:	5f 42 fb 23 	mov.b	&0x23fb,r15	
    583e:	5e 4f fc 23 	mov.b	9212(r15),r14	;0x23fc(r15)
    5842:	5f 42 5e 1c 	mov.b	&0x1c5e,r15	
    5846:	5f 0b       	rrum	#3,	r15	
    5848:	3f f0 03 00 	and	#3,	r15	;#0x0003
    584c:	1f 93       	cmp	#1,	r15	;r3 As==01
    584e:	03 24       	jz	$+8      	;abs 0x5856
    5850:	2f 93       	cmp	#2,	r15	;r3 As==10
    5852:	20 20       	jnz	$+66     	;abs 0x5894
    5854:	13 3c       	jmp	$+40     	;abs 0x587c
    5856:	5f 42 5e 1c 	mov.b	&0x1c5e,r15	
    585a:	7f f0 e7 ff 	and.b	#-25,	r15	;#0xffe7
    585e:	7f d0 10 00 	bis.b	#16,	r15	;#0x0010
    5862:	c2 4f 5e 1c 	mov.b	r15,	&0x1c5e	
    5866:	4e 93       	tst.b	r14		
    5868:	02 24       	jz	$+6      	;abs 0x586e
    586a:	4f 43       	clr.b	r15		
    586c:	02 3c       	jmp	$+6      	;abs 0x5872
    586e:	7f 40 05 00 	mov.b	#5,	r15	;#0x0005
    5872:	c2 4f 5c 1c 	mov.b	r15,	&0x1c5c	
    5876:	c2 4e 0a 1c 	mov.b	r14,	&0x1c0a	
    587a:	0c 3c       	jmp	$+26     	;abs 0x5894
    587c:	5f 42 5c 1c 	mov.b	&0x1c5c,r15	
    5880:	7f 90 4a 00 	cmp.b	#74,	r15	;#0x004a
    5884:	07 2c       	jc	$+16     	;abs 0x5894
    5886:	4f 4f       	mov.b	r15,	r15	
    5888:	1f 52 04 1c 	add	&0x1c04,r15	
    588c:	cf 4e 00 00 	mov.b	r14,	0(r15)	;0x0000(r15)
    5890:	d2 53 5c 1c 	inc.b	&0x1c5c	
    5894:	5f 42 fb 23 	mov.b	&0x23fb,r15	
    5898:	4e 4f       	mov.b	r15,	r14	
    589a:	5e 4e fc 23 	mov.b	9212(r14),r14	;0x23fc(r14)
    589e:	5f 53       	inc.b	r15		
    58a0:	7f 90 03 00 	cmp.b	#3,	r15	;#0x0003
    58a4:	03 2c       	jc	$+8      	;abs 0x58ac
    58a6:	c2 4f fb 23 	mov.b	r15,	&0x23fb	
    58aa:	02 3c       	jmp	$+6      	;abs 0x58b0
    58ac:	c2 43 fb 23 	mov.b	#0,	&0x23fb	;r3 As==00
    58b0:	1f 42 e6 20 	mov	&0x20e6,r15	
    58b4:	b0 12 20 4c 	call	#0x4c20	
    58b8:	82 4f e6 20 	mov	r15,	&0x20e6	
    58bc:	5f 42 fa 23 	mov.b	&0x23fa,r15	
    58c0:	4e 4f       	mov.b	r15,	r14	
    58c2:	ce 4a fc 23 	mov.b	r10,	9212(r14);0x23fc(r14)
    58c6:	5f 53       	inc.b	r15		
    58c8:	7f 90 03 00 	cmp.b	#3,	r15	;#0x0003
    58cc:	03 2c       	jc	$+8      	;abs 0x58d4
    58ce:	c2 4f fa 23 	mov.b	r15,	&0x23fa	
    58d2:	02 3c       	jmp	$+6      	;abs 0x58d8
    58d4:	c2 43 fa 23 	mov.b	#0,	&0x23fa	;r3 As==00
    58d8:	d2 53 24 23 	inc.b	&0x2324	
    58dc:	13 3c       	jmp	$+40     	;abs 0x5904
    58de:	b0 12 d6 4b 	call	#0x4bd6	
    58e2:	e2 c3 4a 1c 	bic.b	#2,	&0x1c4a	;r3 As==10
    58e6:	1f 43       	mov	#1,	r15	;r3 As==01
    58e8:	b0 12 ae 4f 	call	#0x4fae	
    58ec:	c2 93 60 1c 	tst.b	&0x1c60	
    58f0:	05 24       	jz	$+12     	;abs 0x58fc
    58f2:	e2 42 60 1f 	mov.b	#4,	&0x1f60	;r2 As==10
    58f6:	b0 12 b8 56 	call	#0x56b8	
    58fa:	04 3c       	jmp	$+10     	;abs 0x5904
    58fc:	4b 93       	tst.b	r11		
    58fe:	02 24       	jz	$+6      	;abs 0x5904
    5900:	d2 43 60 1f 	mov.b	#1,	&0x1f60	;r3 As==01
    5904:	1a 17       	popm	#2,	r11	
    5906:	30 41       	ret			

00005908 <Msp430UsciSpiP__0__configure_>:
    5908:	0f 93       	tst	r15		
    590a:	37 24       	jz	$+112    	;abs 0x597a
    590c:	92 d3 20 06 	bis	#1,	&0x0620	;r3 As==01
    5910:	2e 4f       	mov	@r15,	r14	
    5912:	1e d3       	bis	#1,	r14	;r3 As==01
    5914:	82 4e 20 06 	mov	r14,	&0x0620	
    5918:	92 4f 02 00 26 06 	mov	2(r15),	&0x0626	;0x0002(r15)
    591e:	d2 4f 04 00 28 06 	mov.b	4(r15),	&0x0628	;0x0004(r15)
    5924:	b0 12 30 51 	call	#0x5130	
    5928:	0f 42       	mov	r2,	r15	
    592a:	32 c2       	dint			
    592c:	03 43       	nop			
    592e:	e2 d3 2b 02 	bis.b	#2,	&0x022b	;r3 As==10
    5932:	3f f2       	and	#8,	r15	;r2 As==11
    5934:	01 24       	jz	$+4      	;abs 0x5938
    5936:	32 d2       	eint			
    5938:	0f 42       	mov	r2,	r15	
    593a:	32 c2       	dint			
    593c:	03 43       	nop			
    593e:	e2 c2 25 02 	bic.b	#4,	&0x0225	;r2 As==10
    5942:	3f f2       	and	#8,	r15	;r2 As==11
    5944:	01 24       	jz	$+4      	;abs 0x5948
    5946:	32 d2       	eint			
    5948:	0f 42       	mov	r2,	r15	
    594a:	32 c2       	dint			
    594c:	03 43       	nop			
    594e:	e2 d2 2b 02 	bis.b	#4,	&0x022b	;r2 As==10
    5952:	3f f2       	and	#8,	r15	;r2 As==11
    5954:	01 24       	jz	$+4      	;abs 0x5958
    5956:	32 d2       	eint			
    5958:	b0 12 42 51 	call	#0x5142	
    595c:	0f 42       	mov	r2,	r15	
    595e:	32 c2       	dint			
    5960:	03 43       	nop			
    5962:	f2 d2 2b 02 	bis.b	#8,	&0x022b	;r2 As==11
    5966:	3f f2       	and	#8,	r15	;r2 As==11
    5968:	01 24       	jz	$+4      	;abs 0x596c
    596a:	32 d2       	eint			
    596c:	92 c3 20 06 	bic	#1,	&0x0620	;r3 As==01
    5970:	f2 f0 fc ff 3c 06 	and.b	#-4,	&0x063c	;#0xfffc
    5976:	0f 43       	clr	r15		
    5978:	30 41       	ret			
    597a:	1f 43       	mov	#1,	r15	;r3 As==01
    597c:	30 41       	ret			

0000597e <CUSPBaseRecorderP__LogRead__currentOffset>:
    597e:	f2 b2 88 23 	bit.b	#8,	&0x2388	;r2 As==11
    5982:	0f 43       	clr	r15		
    5984:	0f 6f       	rlc	r15		
    5986:	4f 93       	tst.b	r15		
    5988:	05 24       	jz	$+12     	;abs 0x5994
    598a:	1e 42 92 23 	mov	&0x2392,r14	
    598e:	1f 42 94 23 	mov	&0x2394,r15	
    5992:	30 41       	ret			
    5994:	0e 43       	clr	r14		
    5996:	0f 43       	clr	r15		
    5998:	30 41       	ret			

0000599a <ArbiterP__1__Resource__request.constprop.399>:
    599a:	0b 12       	push	r11		
    599c:	0f 42       	mov	r2,	r15	
    599e:	3f f2       	and	#8,	r15	;r2 As==11
    59a0:	32 c2       	dint			
    59a2:	03 43       	nop			
    59a4:	c2 93 32 1c 	tst.b	&0x1c32	
    59a8:	07 20       	jnz	$+16     	;abs 0x59b8
    59aa:	0f 93       	tst	r15		
    59ac:	01 20       	jnz	$+4      	;abs 0x59b0
    59ae:	01 3c       	jmp	$+4      	;abs 0x59b2
    59b0:	32 d2       	eint			
    59b2:	3f 40 05 00 	mov	#5,	r15	;#0x0005
    59b6:	4d 3c       	jmp	$+156    	;abs 0x5a52
    59b8:	1e 43       	mov	#1,	r14	;r3 As==01
    59ba:	f2 93 28 20 	cmp.b	#-1,	&0x2028	;r3 As==11
    59be:	04 20       	jnz	$+10     	;abs 0x59c8
    59c0:	c2 93 34 1c 	tst.b	&0x1c34	
    59c4:	01 24       	jz	$+4      	;abs 0x59c8
    59c6:	0e 43       	clr	r14		
    59c8:	4e 93       	tst.b	r14		
    59ca:	ef 23       	jnz	$-32     	;abs 0x59aa
    59cc:	f2 93 35 1c 	cmp.b	#-1,	&0x1c35	;r3 As==11
    59d0:	03 20       	jnz	$+8      	;abs 0x59d8
    59d2:	c2 43 35 1c 	mov.b	#0,	&0x1c35	;r3 As==00
    59d6:	04 3c       	jmp	$+10     	;abs 0x59e0
    59d8:	5e 42 34 1c 	mov.b	&0x1c34,r14	
    59dc:	ce 43 28 20 	mov.b	#0,	8232(r14);r3 As==00, 0x2028(r14)
    59e0:	c2 43 34 1c 	mov.b	#0,	&0x1c34	;r3 As==00
    59e4:	0f 93       	tst	r15		
    59e6:	01 24       	jz	$+4      	;abs 0x59ea
    59e8:	32 d2       	eint			
    59ea:	0b 42       	mov	r2,	r11	
    59ec:	3b f2       	and	#8,	r11	;r2 As==11
    59ee:	32 c2       	dint			
    59f0:	03 43       	nop			
    59f2:	c2 93 da 20 	tst.b	&0x20da	
    59f6:	06 24       	jz	$+14     	;abs 0x5a04
    59f8:	0b 93       	tst	r11		
    59fa:	01 20       	jnz	$+4      	;abs 0x59fe
    59fc:	01 3c       	jmp	$+4      	;abs 0x5a00
    59fe:	32 d2       	eint			
    5a00:	0f 43       	clr	r15		
    5a02:	27 3c       	jmp	$+80     	;abs 0x5a52
    5a04:	d2 43 da 20 	mov.b	#1,	&0x20da	;r3 As==01
    5a08:	b0 12 f6 4c 	call	#0x4cf6	
    5a0c:	c2 4f 32 1c 	mov.b	r15,	&0x1c32	
    5a10:	0b 93       	tst	r11		
    5a12:	01 24       	jz	$+4      	;abs 0x5a16
    5a14:	32 d2       	eint			
    5a16:	0b 42       	mov	r2,	r11	
    5a18:	3b f2       	and	#8,	r11	;r2 As==11
    5a1a:	32 c2       	dint			
    5a1c:	03 43       	nop			
    5a1e:	e2 93 33 1c 	cmp.b	#2,	&0x1c33	;r3 As==10
    5a22:	ea 23       	jnz	$-42     	;abs 0x59f8
    5a24:	5f 42 da 20 	mov.b	&0x20da,r15	
    5a28:	4e 4f       	mov.b	r15,	r14	
    5a2a:	7e 53       	add.b	#-1,	r14	;r3 As==11
    5a2c:	6e 93       	cmp.b	#2,	r14	;r3 As==10
    5a2e:	06 2c       	jc	$+14     	;abs 0x5a3c
    5a30:	e2 43 da 20 	mov.b	#2,	&0x20da	;r3 As==10
    5a34:	5f 43       	mov.b	#1,	r15	;r3 As==01
    5a36:	b0 12 f6 4e 	call	#0x4ef6	
    5a3a:	de 3f       	jmp	$-66     	;abs 0x59f8
    5a3c:	7f 90 03 00 	cmp.b	#3,	r15	;#0x0003
    5a40:	db 23       	jnz	$-72     	;abs 0x59f8
    5a42:	d2 42 32 1c 33 1c 	mov.b	&0x1c32,&0x1c33	
    5a48:	f2 43 32 1c 	mov.b	#-1,	&0x1c32	;r3 As==11
    5a4c:	e2 42 da 20 	mov.b	#4,	&0x20da	;r2 As==10
    5a50:	d3 3f       	jmp	$-88     	;abs 0x59f8
    5a52:	3b 41       	pop	r11		
    5a54:	30 41       	ret			

00005a56 <Msp430UsciUartP__0__configure_.constprop.406>:
    5a56:	92 d3 00 06 	bis	#1,	&0x0600	;r3 As==01
    5a5a:	1f 42 3e 1c 	mov	&0x1c3e,r15	
    5a5e:	1f d3       	bis	#1,	r15	;r3 As==01
    5a60:	82 4f 00 06 	mov	r15,	&0x0600	
    5a64:	92 42 40 1c 06 06 	mov	&0x1c40,&0x0606	
    5a6a:	d2 42 42 1c 08 06 	mov.b	&0x1c42,&0x0608	
    5a70:	0f 42       	mov	r2,	r15	
    5a72:	32 c2       	dint			
    5a74:	03 43       	nop			
    5a76:	f2 f0 df ff 25 02 	and.b	#-33,	&0x0225	;#0xffdf
    5a7c:	3f f2       	and	#8,	r15	;r2 As==11
    5a7e:	01 24       	jz	$+4      	;abs 0x5a82
    5a80:	32 d2       	eint			
    5a82:	0f 42       	mov	r2,	r15	
    5a84:	32 c2       	dint			
    5a86:	03 43       	nop			
    5a88:	f2 d0 20 00 2b 02 	bis.b	#32,	&0x022b	;#0x0020
    5a8e:	3f f2       	and	#8,	r15	;r2 As==11
    5a90:	01 24       	jz	$+4      	;abs 0x5a94
    5a92:	32 d2       	eint			
    5a94:	b0 12 24 53 	call	#0x5324	
    5a98:	0f 42       	mov	r2,	r15	
    5a9a:	32 c2       	dint			
    5a9c:	03 43       	nop			
    5a9e:	f2 d0 10 00 2b 02 	bis.b	#16,	&0x022b	;#0x0010
    5aa4:	3f f2       	and	#8,	r15	;r2 As==11
    5aa6:	01 24       	jz	$+4      	;abs 0x5aaa
    5aa8:	32 d2       	eint			
    5aaa:	92 c3 00 06 	bic	#1,	&0x0600	;r3 As==01
    5aae:	5f 42 1c 06 	mov.b	&0x061c,r15	
    5ab2:	7f f0 fc ff 	and.b	#-4,	r15	;#0xfffc
    5ab6:	5f d3       	bis.b	#1,	r15	;r3 As==01
    5ab8:	c2 4f 1c 06 	mov.b	r15,	&0x061c	
    5abc:	82 43 24 33 	mov	#0,	&0x3324	;r3 As==00
    5ac0:	82 43 ec 1c 	mov	#0,	&0x1cec	;r3 As==00
    5ac4:	0f 43       	clr	r15		
    5ac6:	30 41       	ret			

00005ac8 <LogStorageP__newRequest.constprop.411>:
    5ac8:	e2 d3 88 23 	bis.b	#2,	&0x2388	;r3 As==10
    5acc:	c2 93 80 23 	tst.b	&0x2380	
    5ad0:	0d 20       	jnz	$+28     	;abs 0x5aec
    5ad2:	c2 4f 80 23 	mov.b	r15,	&0x2380	
    5ad6:	82 4c 84 23 	mov	r12,	&0x2384	
    5ada:	82 4d 86 23 	mov	r13,	&0x2386	
    5ade:	82 4e 82 23 	mov	r14,	&0x2382	
    5ae2:	4f 43       	clr.b	r15		
    5ae4:	b0 12 3e 54 	call	#0x543e	
    5ae8:	0f 43       	clr	r15		
    5aea:	30 41       	ret			
    5aec:	3f 40 05 00 	mov	#5,	r15	;#0x0005
    5af0:	30 41       	ret			

00005af2 <LowPowerListeningLayerP__0__Send__send>:
    5af2:	0b 12       	push	r11		
    5af4:	0b 4f       	mov	r15,	r11	
    5af6:	5f 42 92 1c 	mov.b	&0x1c92,r15	
    5afa:	7f 90 0d 00 	cmp.b	#13,	r15	;#0x000d
    5afe:	03 24       	jz	$+8      	;abs 0x5b06
    5b00:	7f 90 17 00 	cmp.b	#23,	r15	;#0x0017
    5b04:	04 20       	jnz	$+10     	;abs 0x5b0e
    5b06:	e2 c3 46 21 	bic.b	#2,	&0x2146	;r3 As==10
    5b0a:	b0 12 76 4f 	call	#0x4f76	
    5b0e:	5e 42 92 1c 	mov.b	&0x1c92,r14	
    5b12:	7e 90 0a 00 	cmp.b	#10,	r14	;#0x000a
    5b16:	06 24       	jz	$+14     	;abs 0x5b24
    5b18:	7e 90 16 00 	cmp.b	#22,	r14	;#0x0016
    5b1c:	03 24       	jz	$+8      	;abs 0x5b24
    5b1e:	7e 90 17 00 	cmp.b	#23,	r14	;#0x0017
    5b22:	04 20       	jnz	$+10     	;abs 0x5b2c
    5b24:	f2 40 1e 00 92 1c 	mov.b	#30,	&0x1c92	;#0x001e
    5b2a:	1a 3c       	jmp	$+54     	;abs 0x5b60
    5b2c:	7e 90 0b 00 	cmp.b	#11,	r14	;#0x000b
    5b30:	04 20       	jnz	$+10     	;abs 0x5b3a
    5b32:	f2 40 1f 00 92 1c 	mov.b	#31,	&0x1c92	;#0x001f
    5b38:	13 3c       	jmp	$+40     	;abs 0x5b60
    5b3a:	7e 90 0c 00 	cmp.b	#12,	r14	;#0x000c
    5b3e:	06 24       	jz	$+14     	;abs 0x5b4c
    5b40:	7e 90 14 00 	cmp.b	#20,	r14	;#0x0014
    5b44:	03 24       	jz	$+8      	;abs 0x5b4c
    5b46:	7e 90 0d 00 	cmp.b	#13,	r14	;#0x000d
    5b4a:	04 20       	jnz	$+10     	;abs 0x5b54
    5b4c:	f2 40 20 00 92 1c 	mov.b	#32,	&0x1c92	;#0x0020
    5b52:	06 3c       	jmp	$+14     	;abs 0x5b60
    5b54:	7e 90 15 00 	cmp.b	#21,	r14	;#0x0015
    5b58:	1f 20       	jnz	$+64     	;abs 0x5b98
    5b5a:	f2 40 1d 00 92 1c 	mov.b	#29,	&0x1c92	;#0x001d
    5b60:	5f 4b 07 00 	mov.b	7(r11),	r15	;0x0007(r11)
    5b64:	8f 10       	swpb	r15		
    5b66:	5e 4b 06 00 	mov.b	6(r11),	r14	;0x0006(r11)
    5b6a:	0f de       	bis	r14,	r15	
    5b6c:	3f 93       	cmp	#-1,	r15	;r3 As==11
    5b6e:	0e 24       	jz	$+30     	;abs 0x5b8c
    5b70:	5f 4b 01 00 	mov.b	1(r11),	r15	;0x0001(r11)
    5b74:	7f d0 20 00 	bis.b	#32,	r15	;#0x0020
    5b78:	4f 4f       	mov.b	r15,	r15	
    5b7a:	5e 4b 02 00 	mov.b	2(r11),	r14	;0x0002(r11)
    5b7e:	8e 10       	swpb	r14		
    5b80:	0f de       	bis	r14,	r15	
    5b82:	cb 4f 01 00 	mov.b	r15,	1(r11)	;0x0001(r11)
    5b86:	8f 10       	swpb	r15		
    5b88:	cb 4f 02 00 	mov.b	r15,	2(r11)	;0x0002(r11)
    5b8c:	82 4b 10 34 	mov	r11,	&0x3410	
    5b90:	92 43 82 1c 	mov	#1,	&0x1c82	;r3 As==01
    5b94:	0f 43       	clr	r15		
    5b96:	02 3c       	jmp	$+6      	;abs 0x5b9c
    5b98:	3f 40 05 00 	mov	#5,	r15	;#0x0005
    5b9c:	3b 41       	pop	r11		
    5b9e:	30 41       	ret			

00005ba0 <SimpleArbiterP__0__Resource__release.constprop.420>:
    5ba0:	0b 12       	push	r11		
    5ba2:	0b 42       	mov	r2,	r11	
    5ba4:	3b f2       	and	#8,	r11	;r2 As==11
    5ba6:	32 c2       	dint			
    5ba8:	03 43       	nop			
    5baa:	e2 93 62 1c 	cmp.b	#2,	&0x1c62	;r3 As==10
    5bae:	21 20       	jnz	$+68     	;abs 0x5bf2
    5bb0:	c2 93 20 1c 	tst.b	&0x1c20	
    5bb4:	1e 20       	jnz	$+62     	;abs 0x5bf2
    5bb6:	5f 42 22 1c 	mov.b	&0x1c22,r15	
    5bba:	f2 43 20 1c 	mov.b	#-1,	&0x1c20	;r3 As==11
    5bbe:	7f 93       	cmp.b	#-1,	r15	;r3 As==11
    5bc0:	14 24       	jz	$+42     	;abs 0x5bea
    5bc2:	4e 4f       	mov.b	r15,	r14	
    5bc4:	5d 4e ea 1c 	mov.b	7402(r14),r13	;0x1cea(r14)
    5bc8:	c2 4d 22 1c 	mov.b	r13,	&0x1c22	
    5bcc:	7d 93       	cmp.b	#-1,	r13	;r3 As==11
    5bce:	02 20       	jnz	$+6      	;abs 0x5bd4
    5bd0:	f2 43 21 1c 	mov.b	#-1,	&0x1c21	;r3 As==11
    5bd4:	fe 43 ea 1c 	mov.b	#-1,	7402(r14);r3 As==11, 0x1cea(r14)
    5bd8:	c2 4f 43 1f 	mov.b	r15,	&0x1f43	
    5bdc:	d2 43 62 1c 	mov.b	#1,	&0x1c62	;r3 As==01
    5be0:	7f 40 11 00 	mov.b	#17,	r15	;#0x0011
    5be4:	b0 12 f6 4e 	call	#0x4ef6	
    5be8:	02 3c       	jmp	$+6      	;abs 0x5bee
    5bea:	c2 43 62 1c 	mov.b	#0,	&0x1c62	;r3 As==00
    5bee:	5f 43       	mov.b	#1,	r15	;r3 As==01
    5bf0:	01 3c       	jmp	$+4      	;abs 0x5bf4
    5bf2:	4f 43       	clr.b	r15		
    5bf4:	0b 93       	tst	r11		
    5bf6:	01 24       	jz	$+4      	;abs 0x5bfa
    5bf8:	32 d2       	eint			
    5bfa:	5f e3       	xor.b	#1,	r15	;r3 As==01
    5bfc:	1f f3       	and	#1,	r15	;r3 As==01
    5bfe:	3b 41       	pop	r11		
    5c00:	30 41       	ret			

00005c02 <Msp430UsciSpiP__1__configure_.constprop.452>:
    5c02:	92 d3 c0 05 	bis	#1,	&0x05c0	;r3 As==01
    5c06:	1f 42 38 1c 	mov	&0x1c38,r15	
    5c0a:	1f d3       	bis	#1,	r15	;r3 As==01
    5c0c:	82 4f c0 05 	mov	r15,	&0x05c0	
    5c10:	92 42 3a 1c c6 05 	mov	&0x1c3a,&0x05c6	
    5c16:	d2 42 3c 1c c8 05 	mov.b	&0x1c3c,&0x05c8	
    5c1c:	b0 12 b4 50 	call	#0x50b4	
    5c20:	0f 42       	mov	r2,	r15	
    5c22:	32 c2       	dint			
    5c24:	03 43       	nop			
    5c26:	f2 d2 2a 02 	bis.b	#8,	&0x022a	;r2 As==11
    5c2a:	3f f2       	and	#8,	r15	;r2 As==11
    5c2c:	01 24       	jz	$+4      	;abs 0x5c30
    5c2e:	32 d2       	eint			
    5c30:	0f 42       	mov	r2,	r15	
    5c32:	32 c2       	dint			
    5c34:	03 43       	nop			
    5c36:	f2 f0 ef ff 24 02 	and.b	#-17,	&0x0224	;#0xffef
    5c3c:	3f f2       	and	#8,	r15	;r2 As==11
    5c3e:	01 24       	jz	$+4      	;abs 0x5c42
    5c40:	32 d2       	eint			
    5c42:	0f 42       	mov	r2,	r15	
    5c44:	32 c2       	dint			
    5c46:	03 43       	nop			
    5c48:	f2 d0 10 00 2a 02 	bis.b	#16,	&0x022a	;#0x0010
    5c4e:	3f f2       	and	#8,	r15	;r2 As==11
    5c50:	01 24       	jz	$+4      	;abs 0x5c54
    5c52:	32 d2       	eint			
    5c54:	b0 12 c6 50 	call	#0x50c6	
    5c58:	0f 42       	mov	r2,	r15	
    5c5a:	32 c2       	dint			
    5c5c:	03 43       	nop			
    5c5e:	f2 d0 80 ff 0b 02 	bis.b	#-128,	&0x020b	;#0xff80
    5c64:	3f f2       	and	#8,	r15	;r2 As==11
    5c66:	01 24       	jz	$+4      	;abs 0x5c6a
    5c68:	32 d2       	eint			
    5c6a:	92 c3 c0 05 	bic	#1,	&0x05c0	;r3 As==01
    5c6e:	f2 f0 fc ff dc 05 	and.b	#-4,	&0x05dc	;#0xfffc
    5c74:	0f 43       	clr	r15		
    5c76:	30 41       	ret			

00005c78 <Msp430UsciUartP__0__UartStream__send.constprop.459>:
    5c78:	5f 42 2b 1c 	mov.b	&0x1c2b,r15	
    5c7c:	7f 93       	cmp.b	#-1,	r15	;r3 As==11
    5c7e:	1a 24       	jz	$+54     	;abs 0x5cb4
    5c80:	4f 93       	tst.b	r15		
    5c82:	1a 20       	jnz	$+54     	;abs 0x5cb8
    5c84:	d2 b3 0a 06 	bit.b	#1,	&0x060a	;r3 As==01
    5c88:	fd 23       	jnz	$-4      	;abs 0x5c84
    5c8a:	1f 43       	mov	#1,	r15	;r3 As==01
    5c8c:	82 93 ec 1c 	tst	&0x1cec	
    5c90:	04 20       	jnz	$+10     	;abs 0x5c9a
    5c92:	82 93 24 33 	tst	&0x3324	
    5c96:	01 20       	jnz	$+4      	;abs 0x5c9a
    5c98:	0f 43       	clr	r15		
    5c9a:	4f 93       	tst.b	r15		
    5c9c:	0d 20       	jnz	$+28     	;abs 0x5cb8
    5c9e:	b2 40 ca 1e ec 1c 	mov	#7882,	&0x1cec	;#0x1eca
    5ca4:	92 43 62 1f 	mov	#1,	&0x1f62	;r3 As==01
    5ca8:	82 43 26 20 	mov	#0,	&0x2026	;r3 As==00
    5cac:	e2 d3 1c 06 	bis.b	#2,	&0x061c	;r3 As==10
    5cb0:	0f 43       	clr	r15		
    5cb2:	30 41       	ret			
    5cb4:	2f 42       	mov	#4,	r15	;r2 As==10
    5cb6:	30 41       	ret			
    5cb8:	3f 40 05 00 	mov	#5,	r15	;#0x0005
    5cbc:	30 41       	ret			

00005cbe <BlockStorageP__BConfig__remap>:
    5cbe:	0b 12       	push	r11		
    5cc0:	0b 4e       	mov	r14,	r11	
    5cc2:	4f 93       	tst.b	r15		
    5cc4:	06 20       	jnz	$+14     	;abs 0x5cd2
    5cc6:	b0 12 ac 4b 	call	#0x4bac	
    5cca:	0f 93       	tst	r15		
    5ccc:	03 24       	jz	$+8      	;abs 0x5cd4
    5cce:	2b 52       	add	#4,	r11	;r2 As==10
    5cd0:	01 3c       	jmp	$+4      	;abs 0x5cd4
    5cd2:	0b 43       	clr	r11		
    5cd4:	0f 4b       	mov	r11,	r15	
    5cd6:	3b 41       	pop	r11		
    5cd8:	30 41       	ret			

00005cda <ArbiterP__2__Resource__release.constprop.385>:
    5cda:	0b 12       	push	r11		
    5cdc:	0b 42       	mov	r2,	r11	
    5cde:	3b f2       	and	#8,	r11	;r2 As==11
    5ce0:	32 c2       	dint			
    5ce2:	03 43       	nop			
    5ce4:	e2 92 37 20 	cmp.b	#4,	&0x2037	;r2 As==10
    5ce8:	1c 20       	jnz	$+58     	;abs 0x5d22
    5cea:	c2 93 2f 1c 	tst.b	&0x1c2f	
    5cee:	19 20       	jnz	$+52     	;abs 0x5d22
    5cf0:	f2 93 31 1c 	cmp.b	#-1,	&0x1c31	;r3 As==11
    5cf4:	05 20       	jnz	$+12     	;abs 0x5d00
    5cf6:	d2 43 2f 1c 	mov.b	#1,	&0x1c2f	;r3 As==01
    5cfa:	c2 43 37 20 	mov.b	#0,	&0x2037	;r3 As==00
    5cfe:	0b 3c       	jmp	$+24     	;abs 0x5d16
    5d00:	b0 12 4c 4c 	call	#0x4c4c	
    5d04:	c2 4f 2e 1c 	mov.b	r15,	&0x1c2e	
    5d08:	f2 43 2f 1c 	mov.b	#-1,	&0x1c2f	;r3 As==11
    5d0c:	e2 43 37 20 	mov.b	#2,	&0x2037	;r3 As==10
    5d10:	6f 43       	mov.b	#2,	r15	;r3 As==10
    5d12:	b0 12 f6 4e 	call	#0x4ef6	
    5d16:	b0 12 da 50 	call	#0x50da	
    5d1a:	0b 93       	tst	r11		
    5d1c:	06 24       	jz	$+14     	;abs 0x5d2a
    5d1e:	32 d2       	eint			
    5d20:	04 3c       	jmp	$+10     	;abs 0x5d2a
    5d22:	0b 93       	tst	r11		
    5d24:	04 24       	jz	$+10     	;abs 0x5d2e
    5d26:	32 d2       	eint			
    5d28:	02 3c       	jmp	$+6      	;abs 0x5d2e
    5d2a:	0f 43       	clr	r15		
    5d2c:	01 3c       	jmp	$+4      	;abs 0x5d30
    5d2e:	1f 43       	mov	#1,	r15	;r3 As==01
    5d30:	3b 41       	pop	r11		
    5d32:	30 41       	ret			

00005d34 <LogStorageP__firstVolumePage>:
    5d34:	c2 93 18 1c 	tst.b	&0x1c18	
    5d38:	02 24       	jz	$+6      	;abs 0x5d3e
    5d3a:	0f 43       	clr	r15		
    5d3c:	30 41       	ret			
    5d3e:	3f 42       	mov	#8,	r15	;r2 As==11
    5d40:	30 41       	ret			

00005d42 <SimpleArbiterP__1__Resource__release>:
    5d42:	3b 15       	pushm	#4,	r11	
    5d44:	0a 42       	mov	r2,	r10	
    5d46:	3a f2       	and	#8,	r10	;r2 As==11
    5d48:	32 c2       	dint			
    5d4a:	03 43       	nop			
    5d4c:	e2 93 46 1c 	cmp.b	#2,	&0x1c46	;r3 As==10
    5d50:	32 20       	jnz	$+102    	;abs 0x5db6
    5d52:	c2 9f 02 1c 	cmp.b	r15,	&0x1c02	
    5d56:	2f 20       	jnz	$+96     	;abs 0x5db6
    5d58:	c2 93 3c 21 	tst.b	&0x213c	
    5d5c:	33 20       	jnz	$+104    	;abs 0x5dc4
    5d5e:	f2 43 02 1c 	mov.b	#-1,	&0x1c02	;r3 As==11
    5d62:	c2 43 46 1c 	mov.b	#0,	&0x1c46	;r3 As==00
    5d66:	25 3c       	jmp	$+76     	;abs 0x5db2
    5d68:	3f 90 03 00 	cmp	#3,	r15	;#0x0003
    5d6c:	01 20       	jnz	$+4      	;abs 0x5d70
    5d6e:	0f 43       	clr	r15		
    5d70:	4e 4f       	mov.b	r15,	r14	
    5d72:	4d 4e       	mov.b	r14,	r13	
    5d74:	5d 0b       	rrum	#3,	r13	
    5d76:	58 4d 3c 21 	mov.b	8508(r13),r8	;0x213c(r13)
    5d7a:	4b 4f       	mov.b	r15,	r11	
    5d7c:	7b f0 07 00 	and.b	#7,	r11	;#0x0007
    5d80:	1c 43       	mov	#1,	r12	;r3 As==01
    5d82:	03 24       	jz	$+8      	;abs 0x5d8a
    5d84:	7b 53       	add.b	#-1,	r11	;r3 As==11
    5d86:	cb 18 0c 5c 	.rpt	r11
				addx	r12,	r12	
    5d8a:	48 bc       	bit.b	r12,	r8	
    5d8c:	06 24       	jz	$+14     	;abs 0x5d9a
    5d8e:	48 cc       	bic.b	r12,	r8	
    5d90:	cd 48 3c 21 	mov.b	r8,	8508(r13);0x213c(r13)
    5d94:	c2 4e 47 1c 	mov.b	r14,	&0x1c47	
    5d98:	04 3c       	jmp	$+10     	;abs 0x5da2
    5d9a:	0f 99       	cmp	r9,	r15	
    5d9c:	01 24       	jz	$+4      	;abs 0x5da0
    5d9e:	17 3c       	jmp	$+48     	;abs 0x5dce
    5da0:	7e 43       	mov.b	#-1,	r14	;r3 As==11
    5da2:	c2 4e 36 20 	mov.b	r14,	&0x2036	
    5da6:	d2 43 46 1c 	mov.b	#1,	&0x1c46	;r3 As==01
    5daa:	7f 40 29 00 	mov.b	#41,	r15	;#0x0029
    5dae:	b0 12 f6 4e 	call	#0x4ef6	
    5db2:	5f 43       	mov.b	#1,	r15	;r3 As==01
    5db4:	01 3c       	jmp	$+4      	;abs 0x5db8
    5db6:	4f 43       	clr.b	r15		
    5db8:	0a 93       	tst	r10		
    5dba:	01 24       	jz	$+4      	;abs 0x5dbe
    5dbc:	32 d2       	eint			
    5dbe:	5f e3       	xor.b	#1,	r15	;r3 As==01
    5dc0:	4f 4f       	mov.b	r15,	r15	
    5dc2:	07 3c       	jmp	$+16     	;abs 0x5dd2
    5dc4:	f2 43 02 1c 	mov.b	#-1,	&0x1c02	;r3 As==11
    5dc8:	59 42 47 1c 	mov.b	&0x1c47,r9	
    5dcc:	0f 49       	mov	r9,	r15	
    5dce:	1f 53       	inc	r15		
    5dd0:	cb 3f       	jmp	$-104    	;abs 0x5d68
    5dd2:	38 17       	popm	#4,	r11	
    5dd4:	30 41       	ret			

00005dd6 <Msp430RefVoltArbiterImplP__AdcResource__release>:
    5dd6:	5f 93       	cmp.b	#1,	r15	;r3 As==01
    5dd8:	05 24       	jz	$+12     	;abs 0x5de4
    5dda:	03 28       	jnc	$+8      	;abs 0x5de2
    5ddc:	6f 93       	cmp.b	#2,	r15	;r3 As==10
    5dde:	05 20       	jnz	$+12     	;abs 0x5dea
    5de0:	01 3c       	jmp	$+4      	;abs 0x5de4
    5de2:	4f 43       	clr.b	r15		
    5de4:	b0 12 42 5d 	call	#0x5d42	
    5de8:	30 41       	ret			
    5dea:	1f 43       	mov	#1,	r15	;r3 As==01
    5dec:	30 41       	ret			

00005dee <Msp430RefVoltArbiterImplP__ClientResource__release>:
    5dee:	0b 12       	push	r11		
    5df0:	4b 4f       	mov.b	r15,	r11	
    5df2:	c2 9f 01 1c 	cmp.b	r15,	&0x1c01	
    5df6:	04 20       	jnz	$+10     	;abs 0x5e00
    5df8:	7f 40 2a 00 	mov.b	#42,	r15	;#0x002a
    5dfc:	b0 12 f6 4e 	call	#0x4ef6	
    5e00:	4f 4b       	mov.b	r11,	r15	
    5e02:	b0 12 d6 5d 	call	#0x5dd6	
    5e06:	3b 41       	pop	r11		
    5e08:	30 41       	ret			

00005e0a <LogStorageP__lastVolumePage>:
    5e0a:	c2 93 18 1c 	tst.b	&0x1c18	
    5e0e:	03 20       	jnz	$+8      	;abs 0x5e16
    5e10:	3f 40 00 10 	mov	#4096,	r15	;#0x1000
    5e14:	30 41       	ret			
    5e16:	0f 43       	clr	r15		
    5e18:	30 41       	ret			

00005e1a <LogStorageP__setWritePage>:
    5e1a:	2b 15       	pushm	#3,	r11	
    5e1c:	0a 4f       	mov	r15,	r10	
    5e1e:	59 42 18 1c 	mov.b	&0x1c18,r9	
    5e22:	0f 49       	mov	r9,	r15	
    5e24:	5f 06       	rlam	#2,	r15	
    5e26:	0b 4f       	mov	r15,	r11	
    5e28:	5b 0a       	rlam	#3,	r11	
    5e2a:	0b 8f       	sub	r15,	r11	
    5e2c:	3b 50 88 23 	add	#9096,	r11	;#0x2388
    5e30:	eb b3 00 00 	bit.b	#2,	0(r11)	;r3 As==10, 0x0000(r11)
    5e34:	0f 43       	clr	r15		
    5e36:	0f 6f       	rlc	r15		
    5e38:	4f 93       	tst.b	r15		
    5e3a:	09 24       	jz	$+20     	;abs 0x5e4e
    5e3c:	b0 12 0a 5e 	call	#0x5e0a	
    5e40:	0a 9f       	cmp	r15,	r10	
    5e42:	05 20       	jnz	$+12     	;abs 0x5e4e
    5e44:	eb d2 00 00 	bis.b	#4,	0(r11)	;r2 As==10, 0x0000(r11)
    5e48:	b0 12 34 5d 	call	#0x5d34	
    5e4c:	0a 4f       	mov	r15,	r10	
    5e4e:	59 06       	rlam	#2,	r9	
    5e50:	0e 49       	mov	r9,	r14	
    5e52:	5e 0a       	rlam	#3,	r14	
    5e54:	0e 89       	sub	r9,	r14	
    5e56:	3e 50 80 23 	add	#9088,	r14	;#0x2380
    5e5a:	8e 4a 0e 00 	mov	r10,	14(r14)	;0x000e(r14)
    5e5e:	8e 43 10 00 	mov	#0,	16(r14)	;r3 As==00, 0x0010(r14)
    5e62:	29 17       	popm	#3,	r11	
    5e64:	30 41       	ret			

00005e66 <VirtualizeTimerC__0__Timer__startOneShot>:
    5e66:	2b 15       	pushm	#3,	r11	
    5e68:	49 4f       	mov.b	r15,	r9	
    5e6a:	0a 4d       	mov	r13,	r10	
    5e6c:	0b 4e       	mov	r14,	r11	
    5e6e:	b0 12 a0 4e 	call	#0x4ea0	
    5e72:	4c 49       	mov.b	r9,	r12	
    5e74:	0d 4c       	mov	r12,	r13	
    5e76:	5d 02       	rlam	#1,	r13	
    5e78:	5c 0a       	rlam	#3,	r12	
    5e7a:	0d 5c       	add	r12,	r13	
    5e7c:	3d 50 3e 21 	add	#8510,	r13	;#0x213e
    5e80:	8d 4e 00 00 	mov	r14,	0(r13)	;0x0000(r13)
    5e84:	8d 4f 02 00 	mov	r15,	2(r13)	;0x0002(r13)
    5e88:	8d 4a 04 00 	mov	r10,	4(r13)	;0x0004(r13)
    5e8c:	8d 4b 06 00 	mov	r11,	6(r13)	;0x0006(r13)
    5e90:	fd d0 03 00 08 00 	bis.b	#3,	8(r13)	;#0x0003, 0x0008(r13)
    5e96:	7f 40 05 00 	mov.b	#5,	r15	;#0x0005
    5e9a:	b0 12 f6 4e 	call	#0x4ef6	
    5e9e:	29 17       	popm	#3,	r11	
    5ea0:	30 41       	ret			

00005ea2 <HdlcTranslateC__SerialFrameComm__putDelimiter>:
    5ea2:	0f 42       	mov	r2,	r15	
    5ea4:	32 c2       	dint			
    5ea6:	03 43       	nop			
    5ea8:	d2 c3 4a 1c 	bic.b	#1,	&0x1c4a	;r3 As==01
    5eac:	f2 40 7e 00 ca 1e 	mov.b	#126,	&0x1eca	;#0x007e
    5eb2:	3f f2       	and	#8,	r15	;r2 As==11
    5eb4:	01 24       	jz	$+4      	;abs 0x5eb8
    5eb6:	32 d2       	eint			
    5eb8:	b0 12 78 5c 	call	#0x5c78	
    5ebc:	30 41       	ret			

00005ebe <HdlcTranslateC__SerialFrameComm__putData>:
    5ebe:	4e 4f       	mov.b	r15,	r14	
    5ec0:	7e 50 83 ff 	add.b	#-125,	r14	;#0xff83
    5ec4:	6e 93       	cmp.b	#2,	r14	;r3 As==10
    5ec6:	0a 2c       	jc	$+22     	;abs 0x5edc
    5ec8:	d2 d3 4a 1c 	bis.b	#1,	&0x1c4a	;r3 As==01
    5ecc:	7f e0 20 00 	xor.b	#32,	r15	;#0x0020
    5ed0:	c2 4f d6 22 	mov.b	r15,	&0x22d6	
    5ed4:	f2 40 7d 00 ca 1e 	mov.b	#125,	&0x1eca	;#0x007d
    5eda:	02 3c       	jmp	$+6      	;abs 0x5ee0
    5edc:	c2 4f ca 1e 	mov.b	r15,	&0x1eca	
    5ee0:	b0 12 78 5c 	call	#0x5c78	
    5ee4:	30 41       	ret			

00005ee6 <RF233DriverLayerP__readRegister>:
    5ee6:	0b 12       	push	r11		
    5ee8:	21 83       	decd	r1		
    5eea:	4b 4f       	mov.b	r15,	r11	
    5eec:	b0 12 7e 52 	call	#0x527e	
    5ef0:	4f 4b       	mov.b	r11,	r15	
    5ef2:	7f d0 80 ff 	bis.b	#-128,	r15	;#0xff80
    5ef6:	b0 12 e0 4a 	call	#0x4ae0	
    5efa:	b0 12 cc 4a 	call	#0x4acc	
    5efe:	4f 43       	clr.b	r15		
    5f00:	b0 12 e0 4a 	call	#0x4ae0	
    5f04:	b0 12 cc 4a 	call	#0x4acc	
    5f08:	81 4f 00 00 	mov	r15,	0(r1)	;0x0000(r1)
    5f0c:	b0 12 30 50 	call	#0x5030	
    5f10:	2f 41       	mov	@r1,	r15	
    5f12:	21 53       	incd	r1		
    5f14:	3b 41       	pop	r11		
    5f16:	30 41       	ret			

00005f18 <RF233DriverLayerP__writeRegister>:
    5f18:	1b 15       	pushm	#2,	r11	
    5f1a:	4a 4f       	mov.b	r15,	r10	
    5f1c:	4b 4e       	mov.b	r14,	r11	
    5f1e:	b0 12 7e 52 	call	#0x527e	
    5f22:	4f 4a       	mov.b	r10,	r15	
    5f24:	7f d0 c0 ff 	bis.b	#-64,	r15	;#0xffc0
    5f28:	b0 12 e0 4a 	call	#0x4ae0	
    5f2c:	b0 12 cc 4a 	call	#0x4acc	
    5f30:	4f 4b       	mov.b	r11,	r15	
    5f32:	b0 12 e0 4a 	call	#0x4ae0	
    5f36:	b0 12 cc 4a 	call	#0x4acc	
    5f3a:	b0 12 30 50 	call	#0x5030	
    5f3e:	1a 17       	popm	#2,	r11	
    5f40:	30 41       	ret			

00005f42 <CUSPBaseRecorderP__saveSensing>:
    5f42:	c2 4f 42 24 	mov.b	r15,	&0x2442	
    5f46:	d2 42 6f 1c 4a 24 	mov.b	&0x1c6f,&0x244a	
    5f4c:	5f 42 f4 23 	mov.b	&0x23f4,r15	
    5f50:	3f f0 07 00 	and	#7,	r15	;#0x0007
    5f54:	3f 90 03 00 	cmp	#3,	r15	;#0x0003
    5f58:	0e 38       	jl	$+30     	;abs 0x5f76
    5f5a:	03 12       	push	#0		;r3 As==00
    5f5c:	30 12 0c 00 	push	#12		;#0x000c
    5f60:	30 12 40 24 	push	#9280		;#0x2440
    5f64:	3c 40 06 00 	mov	#6,	r12	;#0x0006
    5f68:	0d 43       	clr	r13		
    5f6a:	4e 43       	clr.b	r14		
    5f6c:	5f 43       	mov.b	#1,	r15	;r3 As==01
    5f6e:	b0 12 02 55 	call	#0x5502	
    5f72:	31 50 06 00 	add	#6,	r1	;#0x0006
    5f76:	30 41       	ret			

00005f78 <Msp430Adc12ImplP__stopConversion>:
    5f78:	0b 12       	push	r11		
    5f7a:	f2 b0 40 00 d0 20 	bit.b	#64,	&0x20d0	;#0x0040
    5f80:	03 24       	jz	$+8      	;abs 0x5f88
    5f82:	b2 f0 cf ff c0 03 	and	#-49,	&0x03c0	;#0xffcf
    5f88:	4f 43       	clr.b	r15		
    5f8a:	b0 12 16 4c 	call	#0x4c16	
    5f8e:	7f f0 0f 00 	and.b	#15,	r15	;#0x000f
    5f92:	b0 12 8e 4d 	call	#0x4d8e	
    5f96:	f2 b0 10 00 d0 20 	bit.b	#16,	&0x20d0	;#0x0010
    5f9c:	13 20       	jnz	$+40     	;abs 0x5fc4
    5f9e:	b0 12 68 4d 	call	#0x4d68	
    5fa2:	82 43 0e 07 	mov	#0,	&0x070e	;r3 As==00
    5fa6:	82 43 0a 07 	mov	#0,	&0x070a	;r3 As==00
    5faa:	f2 f0 df ff d0 20 	and.b	#-33,	&0x20d0	;#0xffdf
    5fb0:	0e 3c       	jmp	$+30     	;abs 0x5fce
    5fb2:	4f 4b       	mov.b	r11,	r15	
    5fb4:	b0 12 16 4c 	call	#0x4c16	
    5fb8:	7f f0 0f 00 	and.b	#15,	r15	;#0x000f
    5fbc:	b0 12 8e 4d 	call	#0x4d8e	
    5fc0:	5b 53       	inc.b	r11		
    5fc2:	01 3c       	jmp	$+4      	;abs 0x5fc6
    5fc4:	5b 43       	mov.b	#1,	r11	;r3 As==01
    5fc6:	5b 92 44 1f 	cmp.b	&0x1f44,r11	
    5fca:	f3 2b       	jnc	$-24     	;abs 0x5fb2
    5fcc:	e8 3f       	jmp	$-46     	;abs 0x5f9e
    5fce:	3b 41       	pop	r11		
    5fd0:	30 41       	ret			

00005fd2 <HplAt45dbByteC__0__execCommand>:
    5fd2:	0b 12       	push	r11		
    5fd4:	1b 41 04 00 	mov	4(r1),	r11	;0x0004(r1)
    5fd8:	c2 4f 61 1c 	mov.b	r15,	&0x1c61	
    5fdc:	3f 40 2c 24 	mov	#9260,	r15	;#0x242c
    5fe0:	cf 4e 00 00 	mov.b	r14,	0(r15)	;0x0000(r15)
    5fe4:	0e 4c       	mov	r12,	r14	
    5fe6:	5e 0f       	rrum	#4,	r14	
    5fe8:	5e 03       	rrum	#1,	r14	
    5fea:	cf 4e 01 00 	mov.b	r14,	1(r15)	;0x0001(r15)
    5fee:	0e 4b       	mov	r11,	r14	
    5ff0:	8e 10       	swpb	r14		
    5ff2:	4c 4c       	mov.b	r12,	r12	
    5ff4:	5c 0a       	rlam	#3,	r12	
    5ff6:	4e dc       	bis.b	r12,	r14	
    5ff8:	cf 4e 02 00 	mov.b	r14,	2(r15)	;0x0002(r15)
    5ffc:	cf 4b 03 00 	mov.b	r11,	3(r15)	;0x0003(r15)
    6000:	92 41 08 00 be 22 	mov	8(r1),	&0x22be	;0x0008(r1)
    6006:	92 41 06 00 2e 20 	mov	6(r1),	&0x202e	;0x0006(r1)
    600c:	c2 4d d2 1f 	mov.b	r13,	&0x1fd2	
    6010:	b0 12 9a 59 	call	#0x599a	
    6014:	3b 41       	pop	r11		
    6016:	30 41       	ret			

00006018 <HplAt45dbByteC__0__HplAt45db__waitIdle>:
    6018:	f2 40 05 00 61 1c 	mov.b	#5,	&0x1c61	;#0x0005
    601e:	b0 12 9a 59 	call	#0x599a	
    6022:	30 41       	ret			

00006024 <At45dbP__flushBuffer>:
    6024:	c2 93 84 1c 	tst.b	&0x1c84	
    6028:	03 24       	jz	$+8      	;abs 0x6030
    602a:	b0 12 18 60 	call	#0x6018	
    602e:	30 41       	ret			
    6030:	5e 42 3b 21 	mov.b	&0x213b,r14	
    6034:	4f 4e       	mov.b	r14,	r15	
    6036:	5f 06       	rlam	#2,	r15	
    6038:	1c 4f cc 1e 	mov	7884(r15),r12	;0x1ecc(r15)
    603c:	ef b2 ce 1e 	bit.b	#4,	7886(r15);r2 As==10, 0x1ece(r15)
    6040:	0f 43       	clr	r15		
    6042:	0f 6f       	rlc	r15		
    6044:	4f 93       	tst.b	r15		
    6046:	05 24       	jz	$+12     	;abs 0x6052
    6048:	4e 93       	tst.b	r14		
    604a:	08 24       	jz	$+18     	;abs 0x605c
    604c:	7e 40 88 ff 	mov.b	#-120,	r14	;#0xff88
    6050:	0a 3c       	jmp	$+22     	;abs 0x6066
    6052:	4e 93       	tst.b	r14		
    6054:	06 24       	jz	$+14     	;abs 0x6062
    6056:	7e 40 83 ff 	mov.b	#-125,	r14	;#0xff83
    605a:	05 3c       	jmp	$+12     	;abs 0x6066
    605c:	7e 40 89 ff 	mov.b	#-119,	r14	;#0xff89
    6060:	02 3c       	jmp	$+6      	;abs 0x6066
    6062:	7e 40 86 ff 	mov.b	#-122,	r14	;#0xff86
    6066:	13 12       	push	#1		;r3 As==01
    6068:	03 12       	push	#0		;r3 As==00
    606a:	03 12       	push	#0		;r3 As==00
    606c:	4d 43       	clr.b	r13		
    606e:	7f 40 09 00 	mov.b	#9,	r15	;#0x0009
    6072:	b0 12 d2 5f 	call	#0x5fd2	
    6076:	31 50 06 00 	add	#6,	r1	;#0x0006
    607a:	30 41       	ret			

0000607c <At45dbP__checkBuffer>:
    607c:	0b 12       	push	r11		
    607e:	4b 4f       	mov.b	r15,	r11	
    6080:	c2 93 84 1c 	tst.b	&0x1c84	
    6084:	03 24       	jz	$+8      	;abs 0x608c
    6086:	b0 12 18 60 	call	#0x6018	
    608a:	17 3c       	jmp	$+48     	;abs 0x60ba
    608c:	4f 4f       	mov.b	r15,	r15	
    608e:	5f 06       	rlam	#2,	r15	
    6090:	1c 4f cc 1e 	mov	7884(r15),r12	;0x1ecc(r15)
    6094:	4b 93       	tst.b	r11		
    6096:	03 24       	jz	$+8      	;abs 0x609e
    6098:	7e 40 60 00 	mov.b	#96,	r14	;#0x0060
    609c:	02 3c       	jmp	$+6      	;abs 0x60a2
    609e:	7e 40 61 00 	mov.b	#97,	r14	;#0x0061
    60a2:	13 12       	push	#1		;r3 As==01
    60a4:	03 12       	push	#0		;r3 As==00
    60a6:	03 12       	push	#0		;r3 As==00
    60a8:	4d 43       	clr.b	r13		
    60aa:	7f 40 0a 00 	mov.b	#10,	r15	;#0x000a
    60ae:	b0 12 d2 5f 	call	#0x5fd2	
    60b2:	31 50 06 00 	add	#6,	r1	;#0x0006
    60b6:	c2 4b 39 21 	mov.b	r11,	&0x2139	
    60ba:	3b 41       	pop	r11		
    60bc:	30 41       	ret			

000060be <VirtualizeTimerC__0__Timer__startPeriodic>:
    60be:	2b 15       	pushm	#3,	r11	
    60c0:	49 4f       	mov.b	r15,	r9	
    60c2:	0a 4d       	mov	r13,	r10	
    60c4:	0b 4e       	mov	r14,	r11	
    60c6:	b0 12 a0 4e 	call	#0x4ea0	
    60ca:	4c 49       	mov.b	r9,	r12	
    60cc:	0d 4c       	mov	r12,	r13	
    60ce:	5d 02       	rlam	#1,	r13	
    60d0:	5c 0a       	rlam	#3,	r12	
    60d2:	0d 5c       	add	r12,	r13	
    60d4:	3d 50 3e 21 	add	#8510,	r13	;#0x213e
    60d8:	8d 4e 00 00 	mov	r14,	0(r13)	;0x0000(r13)
    60dc:	8d 4f 02 00 	mov	r15,	2(r13)	;0x0002(r13)
    60e0:	8d 4a 04 00 	mov	r10,	4(r13)	;0x0004(r13)
    60e4:	8d 4b 06 00 	mov	r11,	6(r13)	;0x0006(r13)
    60e8:	5f 4d 08 00 	mov.b	8(r13),	r15	;0x0008(r13)
    60ec:	5f c3       	bic.b	#1,	r15	;r3 As==01
    60ee:	6f d3       	bis.b	#2,	r15	;r3 As==10
    60f0:	cd 4f 08 00 	mov.b	r15,	8(r13)	;0x0008(r13)
    60f4:	7f 40 05 00 	mov.b	#5,	r15	;#0x0005
    60f8:	b0 12 f6 4e 	call	#0x4ef6	
    60fc:	29 17       	popm	#3,	r11	
    60fe:	30 41       	ret			

00006100 <BlinkP__Blink__start>:
    6100:	3d 40 fa 00 	mov	#250,	r13	;#0x00fa
    6104:	0e 43       	clr	r14		
    6106:	7f 40 13 00 	mov.b	#19,	r15	;#0x0013
    610a:	b0 12 be 60 	call	#0x60be	
    610e:	3d 40 f4 01 	mov	#500,	r13	;#0x01f4
    6112:	0e 43       	clr	r14		
    6114:	7f 40 14 00 	mov.b	#20,	r15	;#0x0014
    6118:	b0 12 be 60 	call	#0x60be	
    611c:	3d 40 e8 03 	mov	#1000,	r13	;#0x03e8
    6120:	0e 43       	clr	r14		
    6122:	7f 40 15 00 	mov.b	#21,	r15	;#0x0015
    6126:	b0 12 be 60 	call	#0x60be	
    612a:	0f 43       	clr	r15		
    612c:	30 41       	ret			

0000612e <TimeSyncP__0__GlobalTime__local2Global>:
    612e:	2b 15       	pushm	#3,	r11	
    6130:	09 4f       	mov	r15,	r9	
    6132:	2a 4f       	mov	@r15,	r10	
    6134:	1b 4f 02 00 	mov	2(r15),	r11	;0x0002(r15)
    6138:	0e 4a       	mov	r10,	r14	
    613a:	0f 4b       	mov	r11,	r15	
    613c:	1e 82 98 1c 	sub	&0x1c98,r14	
    6140:	1f 72 9a 1c 	subc	&0x1c9a,r15	
    6144:	b0 12 1a c0 	call	#0xc01a	
    6148:	1c 42 92 1e 	mov	&0x1e92,r12	
    614c:	1d 42 94 1e 	mov	&0x1e94,r13	
    6150:	b0 12 8c bd 	call	#0xbd8c	
    6154:	b0 12 be c0 	call	#0xc0be	
    6158:	1e 52 d4 1e 	add	&0x1ed4,r14	
    615c:	1f 62 d6 1e 	addc	&0x1ed6,r15	
    6160:	0c 4e       	mov	r14,	r12	
    6162:	0d 4f       	mov	r15,	r13	
    6164:	0c 5a       	add	r10,	r12	
    6166:	0d 6b       	addc	r11,	r13	
    6168:	89 4c 00 00 	mov	r12,	0(r9)	;0x0000(r9)
    616c:	89 4d 02 00 	mov	r13,	2(r9)	;0x0002(r9)
    6170:	e2 93 24 20 	cmp.b	#2,	&0x2024	;r3 As==10
    6174:	03 2c       	jc	$+8      	;abs 0x617c
    6176:	b0 12 24 54 	call	#0x5424	
    617a:	01 3c       	jmp	$+4      	;abs 0x617e
    617c:	0f 43       	clr	r15		
    617e:	29 17       	popm	#3,	r11	
    6180:	30 41       	ret			

00006182 <Ieee154PacketLayerP__0__Ieee154PacketLayer__requiresAckReply>:
    6182:	0b 12       	push	r11		
    6184:	5e 4f 02 00 	mov.b	2(r15),	r14	;0x0002(r15)
    6188:	8e 10       	swpb	r14		
    618a:	5d 4f 01 00 	mov.b	1(r15),	r13	;0x0001(r15)
    618e:	0e dd       	bis	r13,	r14	
    6190:	3e b0 20 00 	bit	#32,	r14	;#0x0020
    6194:	13 24       	jz	$+40     	;abs 0x61bc
    6196:	3e f0 47 cc 	and	#-13241,r14	;#0xcc47
    619a:	3e 90 41 88 	cmp	#-30655,r14	;#0x8841
    619e:	0e 20       	jnz	$+30     	;abs 0x61bc
    61a0:	5b 4f 07 00 	mov.b	7(r15),	r11	;0x0007(r15)
    61a4:	8b 10       	swpb	r11		
    61a6:	5f 4f 06 00 	mov.b	6(r15),	r15	;0x0006(r15)
    61aa:	0b df       	bis	r15,	r11	
    61ac:	b0 12 a2 52 	call	#0x52a2	
    61b0:	1e 43       	mov	#1,	r14	;r3 As==01
    61b2:	0b 9f       	cmp	r15,	r11	
    61b4:	01 24       	jz	$+4      	;abs 0x61b8
    61b6:	0e 43       	clr	r14		
    61b8:	0f 4e       	mov	r14,	r15	
    61ba:	01 3c       	jmp	$+4      	;abs 0x61be
    61bc:	0f 43       	clr	r15		
    61be:	4f 4f       	mov.b	r15,	r15	
    61c0:	3b 41       	pop	r11		
    61c2:	30 41       	ret			

000061c4 <ConfigStorageP__computeCrc>:
    61c4:	4f 93       	tst.b	r15		
    61c6:	03 24       	jz	$+8      	;abs 0x61ce
    61c8:	0c 43       	clr	r12		
    61ca:	0d 43       	clr	r13		
    61cc:	02 3c       	jmp	$+6      	;abs 0x61d2
    61ce:	2c 42       	mov	#4,	r12	;r2 As==10
    61d0:	0d 43       	clr	r13		
    61d2:	02 12       	push	r2		
    61d4:	32 c2       	dint			
    61d6:	03 43       	nop			
    61d8:	82 4c d4 04 	mov	r12,	&0x04d4	
    61dc:	82 4d d6 04 	mov	r13,	&0x04d6	
    61e0:	b2 40 10 02 e0 04 	mov	#528,	&0x04e0	;#0x0210
    61e6:	82 43 e2 04 	mov	#0,	&0x04e2	;r3 As==00
    61ea:	1c 42 ca 04 	mov	&0x04ca,r12	
    61ee:	1d 42 cc 04 	mov	&0x04cc,r13	
    61f2:	32 41       	pop	r2		
    61f4:	2c 83       	decd	r12		
    61f6:	0d 73       	sbc	r13		
    61f8:	1d 15       	pushm	#2,	r13	
    61fa:	03 12       	push	#0		;r3 As==00
    61fc:	2c 43       	mov	#2,	r12	;r3 As==10
    61fe:	0d 43       	clr	r13		
    6200:	4e 4f       	mov.b	r15,	r14	
    6202:	7f 40 05 00 	mov.b	#5,	r15	;#0x0005
    6206:	b0 12 02 55 	call	#0x5502	
    620a:	31 50 06 00 	add	#6,	r1	;#0x0006
    620e:	30 41       	ret			

00006210 <Msp430RefVoltGeneratorP__HplAdc12__getCtl0>:
    6210:	31 50 f6 ff 	add	#-10,	r1	;#0xfff6
    6214:	1f 42 00 07 	mov	&0x0700,r15	
    6218:	81 4f 04 00 	mov	r15,	4(r1)	;0x0004(r1)
    621c:	4f 4f       	mov.b	r15,	r15	
    621e:	5e 41 05 00 	mov.b	5(r1),	r14	;0x0005(r1)
    6222:	8e 10       	swpb	r14		
    6224:	0f de       	bis	r14,	r15	
    6226:	31 50 0a 00 	add	#10,	r1	;#0x000a
    622a:	30 41       	ret			

0000622c <Msp430RefVoltGeneratorP__switchOff>:
    622c:	0b 12       	push	r11		
    622e:	31 82       	sub	#8,	r1	;r2 As==11
    6230:	0b 42       	mov	r2,	r11	
    6232:	3b f2       	and	#8,	r11	;r2 As==11
    6234:	32 c2       	dint			
    6236:	03 43       	nop			
    6238:	1f 42 02 07 	mov	&0x0702,r15	
    623c:	5f f3       	and.b	#1,	r15	;r3 As==01
    623e:	04 24       	jz	$+10     	;abs 0x6248
    6240:	0b 93       	tst	r11		
    6242:	23 24       	jz	$+72     	;abs 0x628a
    6244:	32 d2       	eint			
    6246:	21 3c       	jmp	$+68     	;abs 0x628a
    6248:	b0 12 10 62 	call	#0x6210	
    624c:	c1 4f 06 00 	mov.b	r15,	6(r1)	;0x0006(r1)
    6250:	8f 10       	swpb	r15		
    6252:	c1 4f 07 00 	mov.b	r15,	7(r1)	;0x0007(r1)
    6256:	91 41 06 00 04 00 	mov	6(r1),	4(r1)	;0x0006(r1), 0x0004(r1)
    625c:	a1 c3 04 00 	bic	#2,	4(r1)	;r3 As==10, 0x0004(r1)
    6260:	91 41 04 00 02 00 	mov	4(r1),	2(r1)	;0x0004(r1), 0x0002(r1)
    6266:	1f 41 04 00 	mov	4(r1),	r15	;0x0004(r1)
    626a:	b0 12 74 4b 	call	#0x4b74	
    626e:	b1 f0 df ff 04 00 	and	#-33,	4(r1)	;#0xffdf, 0x0004(r1)
    6274:	91 41 04 00 00 00 	mov	4(r1),	0(r1)	;0x0004(r1), 0x0000(r1)
    627a:	2f 41       	mov	@r1,	r15	
    627c:	b0 12 74 4b 	call	#0x4b74	
    6280:	0b 93       	tst	r11		
    6282:	01 24       	jz	$+4      	;abs 0x6286
    6284:	32 d2       	eint			
    6286:	0f 43       	clr	r15		
    6288:	02 3c       	jmp	$+6      	;abs 0x628e
    628a:	3f 40 05 00 	mov	#5,	r15	;#0x0005
    628e:	31 52       	add	#8,	r1	;r2 As==11
    6290:	3b 41       	pop	r11		
    6292:	30 41       	ret			

00006294 <Msp430RefVoltGeneratorP__switchOn>:
    6294:	1b 15       	pushm	#2,	r11	
    6296:	31 82       	sub	#8,	r1	;r2 As==11
    6298:	4a 4f       	mov.b	r15,	r10	
    629a:	0b 42       	mov	r2,	r11	
    629c:	3b f2       	and	#8,	r11	;r2 As==11
    629e:	32 c2       	dint			
    62a0:	03 43       	nop			
    62a2:	1f 42 02 07 	mov	&0x0702,r15	
    62a6:	5f f3       	and.b	#1,	r15	;r3 As==01
    62a8:	04 24       	jz	$+10     	;abs 0x62b2
    62aa:	0b 93       	tst	r11		
    62ac:	2f 24       	jz	$+96     	;abs 0x630c
    62ae:	32 d2       	eint			
    62b0:	2d 3c       	jmp	$+92     	;abs 0x630c
    62b2:	b0 12 10 62 	call	#0x6210	
    62b6:	c1 4f 06 00 	mov.b	r15,	6(r1)	;0x0006(r1)
    62ba:	8f 10       	swpb	r15		
    62bc:	c1 4f 07 00 	mov.b	r15,	7(r1)	;0x0007(r1)
    62c0:	91 41 06 00 04 00 	mov	6(r1),	4(r1)	;0x0006(r1), 0x0004(r1)
    62c6:	a1 c3 04 00 	bic	#2,	4(r1)	;r3 As==10, 0x0004(r1)
    62ca:	91 41 04 00 02 00 	mov	4(r1),	2(r1)	;0x0004(r1), 0x0002(r1)
    62d0:	1f 41 04 00 	mov	4(r1),	r15	;0x0004(r1)
    62d4:	b0 12 74 4b 	call	#0x4b74	
    62d8:	b1 d0 20 00 04 00 	bis	#32,	4(r1)	;#0x0020, 0x0004(r1)
    62de:	4f 4a       	mov.b	r10,	r15	
    62e0:	7f 53       	add.b	#-1,	r15	;r3 As==11
    62e2:	1f f3       	and	#1,	r15	;r3 As==01
    62e4:	5f 0e       	rlam	#4,	r15	
    62e6:	5f 06       	rlam	#2,	r15	
    62e8:	1e 41 04 00 	mov	4(r1),	r14	;0x0004(r1)
    62ec:	3e f0 bf ff 	and	#-65,	r14	;#0xffbf
    62f0:	0e df       	bis	r15,	r14	
    62f2:	81 4e 04 00 	mov	r14,	4(r1)	;0x0004(r1)
    62f6:	91 41 04 00 00 00 	mov	4(r1),	0(r1)	;0x0004(r1), 0x0000(r1)
    62fc:	2f 41       	mov	@r1,	r15	
    62fe:	b0 12 74 4b 	call	#0x4b74	
    6302:	0b 93       	tst	r11		
    6304:	01 24       	jz	$+4      	;abs 0x6308
    6306:	32 d2       	eint			
    6308:	0f 43       	clr	r15		
    630a:	02 3c       	jmp	$+6      	;abs 0x6310
    630c:	3f 40 05 00 	mov	#5,	r15	;#0x0005
    6310:	31 52       	add	#8,	r1	;r2 As==11
    6312:	1a 17       	popm	#2,	r11	
    6314:	30 41       	ret			

00006316 <TransformCounterC__1__Counter__get>:
    6316:	4b 15       	pushm	#5,	r11	
    6318:	31 82       	sub	#8,	r1	;r2 As==11
    631a:	09 42       	mov	r2,	r9	
    631c:	39 f2       	and	#8,	r9	;r2 As==11
    631e:	32 c2       	dint			
    6320:	03 43       	nop			
    6322:	1a 42 ce 1f 	mov	&0x1fce,r10	
    6326:	1b 42 d0 1f 	mov	&0x1fd0,r11	
    632a:	0d 41       	mov	r1,	r13	
    632c:	0e 41       	mov	r1,	r14	
    632e:	2e 52       	add	#4,	r14	;r2 As==10
    6330:	0f 41       	mov	r1,	r15	
    6332:	3f 50 06 00 	add	#6,	r15	;#0x0006
    6336:	b0 12 e6 49 	call	#0x49e6	
    633a:	28 41       	mov	@r1,	r8	
    633c:	17 41 02 00 	mov	2(r1),	r7	;0x0002(r1)
    6340:	1f 42 40 03 	mov	&0x0340,r15	
    6344:	5f f3       	and.b	#1,	r15	;r3 As==01
    6346:	0d 24       	jz	$+28     	;abs 0x6362
    6348:	1a 53       	inc	r10		
    634a:	0b 63       	adc	r11		
    634c:	0d 41       	mov	r1,	r13	
    634e:	0e 41       	mov	r1,	r14	
    6350:	2e 52       	add	#4,	r14	;r2 As==10
    6352:	0f 41       	mov	r1,	r15	
    6354:	3f 50 06 00 	add	#6,	r15	;#0x0006
    6358:	b0 12 e6 49 	call	#0x49e6	
    635c:	28 41       	mov	@r1,	r8	
    635e:	17 41 02 00 	mov	2(r1),	r7	;0x0002(r1)
    6362:	0c 43       	clr	r12		
    6364:	0d 43       	clr	r13		
    6366:	0d 4a       	mov	r10,	r13	
    6368:	7f 40 05 00 	mov.b	#5,	r15	;#0x0005
    636c:	0c 5c       	rla	r12		
    636e:	0d 6d       	rlc	r13		
    6370:	7f 53       	add.b	#-1,	r15	;r3 As==11
    6372:	fc 23       	jnz	$-6      	;abs 0x636c
    6374:	0e 48       	mov	r8,	r14	
    6376:	0f 47       	mov	r7,	r15	
    6378:	8e 10       	swpb	r14		
    637a:	8f 10       	swpb	r15		
    637c:	4e ef       	xor.b	r15,	r14	
    637e:	0e ef       	xor	r15,	r14	
    6380:	4f 4f       	mov.b	r15,	r15	
    6382:	12 c3       	clrc			
    6384:	0f 10       	rrc	r15		
    6386:	0e 10       	rrc	r14		
    6388:	12 c3       	clrc			
    638a:	0f 10       	rrc	r15		
    638c:	0e 10       	rrc	r14		
    638e:	12 c3       	clrc			
    6390:	0f 10       	rrc	r15		
    6392:	0e 10       	rrc	r14		
    6394:	0e dc       	bis	r12,	r14	
    6396:	0f dd       	bis	r13,	r15	
    6398:	09 93       	tst	r9		
    639a:	01 24       	jz	$+4      	;abs 0x639e
    639c:	32 d2       	eint			
    639e:	31 52       	add	#8,	r1	;r2 As==11
    63a0:	47 17       	popm	#5,	r11	
    63a2:	30 41       	ret			

000063a4 <TimeSyncMessageLayerP__0__TimeSyncPacketMilli__eventTime>:
    63a4:	5b 15       	pushm	#6,	r11	
    63a6:	0b 4f       	mov	r15,	r11	
    63a8:	6f 4f       	mov.b	@r15,	r15	
    63aa:	7f 50 ee ff 	add.b	#-18,	r15	;#0xffee
    63ae:	4f 4f       	mov.b	r15,	r15	
    63b0:	0f 5b       	add	r11,	r15	
    63b2:	3f 50 0d 00 	add	#13,	r15	;#0x000d
    63b6:	b0 12 3a 4b 	call	#0x4b3a	
    63ba:	07 4e       	mov	r14,	r7	
    63bc:	06 4f       	mov	r15,	r6	
    63be:	18 4b 40 00 	mov	64(r11),r8	;0x0040(r11)
    63c2:	19 4b 42 00 	mov	66(r11),r9	;0x0042(r11)
    63c6:	b0 12 16 63 	call	#0x6316	
    63ca:	0a 4e       	mov	r14,	r10	
    63cc:	0b 4f       	mov	r15,	r11	
    63ce:	b0 12 a0 4e 	call	#0x4ea0	
    63d2:	0c 47       	mov	r7,	r12	
    63d4:	0d 46       	mov	r6,	r13	
    63d6:	8c 10       	swpb	r12		
    63d8:	8d 10       	swpb	r13		
    63da:	4c ed       	xor.b	r13,	r12	
    63dc:	0c ed       	xor	r13,	r12	
    63de:	8d 11       	sxt	r13		
    63e0:	0d 11       	rra	r13		
    63e2:	0c 10       	rrc	r12		
    63e4:	0d 11       	rra	r13		
    63e6:	0c 10       	rrc	r12		
    63e8:	0e 5c       	add	r12,	r14	
    63ea:	0f 6d       	addc	r13,	r15	
    63ec:	08 8a       	sub	r10,	r8	
    63ee:	09 7b       	subc	r11,	r9	
    63f0:	0a 48       	mov	r8,	r10	
    63f2:	0b 49       	mov	r9,	r11	
    63f4:	0a 48       	mov	r8,	r10	
    63f6:	8a 10       	swpb	r10		
    63f8:	8b 10       	swpb	r11		
    63fa:	4a eb       	xor.b	r11,	r10	
    63fc:	0a eb       	xor	r11,	r10	
    63fe:	8b 11       	sxt	r11		
    6400:	0b 11       	rra	r11		
    6402:	0a 10       	rrc	r10		
    6404:	0b 11       	rra	r11		
    6406:	0a 10       	rrc	r10		
    6408:	0e 5a       	add	r10,	r14	
    640a:	0f 6b       	addc	r11,	r15	
    640c:	56 17       	popm	#6,	r11	
    640e:	30 41       	ret			

00006410 <Msp430AlarmC__1__Alarm__startAt>:
    6410:	0b 12       	push	r11		
    6412:	0d 42       	mov	r2,	r13	
    6414:	3d f2       	and	#8,	r13	;r2 As==11
    6416:	32 c2       	dint			
    6418:	03 43       	nop			
    641a:	1c 42 90 03 	mov	&0x0390,r12	
    641e:	0b 4c       	mov	r12,	r11	
    6420:	0b 8f       	sub	r15,	r11	
    6422:	0b 9e       	cmp	r14,	r11	
    6424:	01 28       	jnc	$+4      	;abs 0x6428
    6426:	04 3c       	jmp	$+10     	;abs 0x6430
    6428:	0e 8b       	sub	r11,	r14	
    642a:	3e 90 03 00 	cmp	#3,	r14	;#0x0003
    642e:	06 2c       	jc	$+14     	;abs 0x643c
    6430:	1f 42 90 03 	mov	&0x0390,r15	
    6434:	2f 53       	incd	r15		
    6436:	82 4f 94 03 	mov	r15,	&0x0394	
    643a:	03 3c       	jmp	$+8      	;abs 0x6442
    643c:	0c 5e       	add	r14,	r12	
    643e:	82 4c 94 03 	mov	r12,	&0x0394	
    6442:	92 c3 84 03 	bic	#1,	&0x0384	;r3 As==01
    6446:	b2 d0 10 00 84 03 	bis	#16,	&0x0384	;#0x0010
    644c:	0d 93       	tst	r13		
    644e:	01 24       	jz	$+4      	;abs 0x6452
    6450:	32 d2       	eint			
    6452:	3b 41       	pop	r11		
    6454:	30 41       	ret			

00006456 <RandomCollisionLayerP__0__RadioAlarm__wait>:
    6456:	d2 43 6a 20 	mov.b	#1,	&0x206a	;r3 As==01
    645a:	d2 43 bc 22 	mov.b	#1,	&0x22bc	;r3 As==01
    645e:	1d 42 90 03 	mov	&0x0390,r13	
    6462:	0e 4f       	mov	r15,	r14	
    6464:	0f 4d       	mov	r13,	r15	
    6466:	b0 12 10 64 	call	#0x6410	
    646a:	30 41       	ret			

0000646c <TransformAlarmC__1__set_alarm>:
    646c:	1b 15       	pushm	#2,	r11	
    646e:	b0 12 a0 4e 	call	#0x4ea0	
    6472:	1a 42 7c 1c 	mov	&0x1c7c,r10	
    6476:	1b 42 7e 1c 	mov	&0x1c7e,r11	
    647a:	0c 4a       	mov	r10,	r12	
    647c:	0d 4b       	mov	r11,	r13	
    647e:	1c 52 48 1f 	add	&0x1f48,r12	
    6482:	1d 62 4a 1f 	addc	&0x1f4a,r13	
    6486:	0f 9b       	cmp	r11,	r15	
    6488:	09 28       	jnc	$+20     	;abs 0x649c
    648a:	02 20       	jnz	$+6      	;abs 0x6490
    648c:	0e 9a       	cmp	r10,	r14	
    648e:	06 28       	jnc	$+14     	;abs 0x649c
    6490:	0d 9b       	cmp	r11,	r13	
    6492:	10 28       	jnc	$+34     	;abs 0x64b4
    6494:	09 20       	jnz	$+20     	;abs 0x64a8
    6496:	0c 9a       	cmp	r10,	r12	
    6498:	0d 28       	jnc	$+28     	;abs 0x64b4
    649a:	06 3c       	jmp	$+14     	;abs 0x64a8
    649c:	0d 9b       	cmp	r11,	r13	
    649e:	04 28       	jnc	$+10     	;abs 0x64a8
    64a0:	0b 9d       	cmp	r13,	r11	
    64a2:	27 28       	jnc	$+80     	;abs 0x64f2
    64a4:	0c 9a       	cmp	r10,	r12	
    64a6:	25 2c       	jc	$+76     	;abs 0x64f2
    64a8:	0f 9d       	cmp	r13,	r15	
    64aa:	04 28       	jnc	$+10     	;abs 0x64b4
    64ac:	0d 9f       	cmp	r15,	r13	
    64ae:	21 28       	jnc	$+68     	;abs 0x64f2
    64b0:	0e 9c       	cmp	r12,	r14	
    64b2:	1f 2c       	jc	$+64     	;abs 0x64f2
    64b4:	0a 4c       	mov	r12,	r10	
    64b6:	0b 4d       	mov	r13,	r11	
    64b8:	0a 8e       	sub	r14,	r10	
    64ba:	0b 7f       	subc	r15,	r11	
    64bc:	0b 93       	tst	r11		
    64be:	03 20       	jnz	$+8      	;abs 0x64c6
    64c0:	3a 90 01 04 	cmp	#1025,	r10	;#0x0401
    64c4:	18 28       	jnc	$+50     	;abs 0x64f6
    64c6:	0c 4e       	mov	r14,	r12	
    64c8:	0d 4f       	mov	r15,	r13	
    64ca:	3c 50 00 04 	add	#1024,	r12	;#0x0400
    64ce:	0d 63       	adc	r13		
    64d0:	82 4c 7c 1c 	mov	r12,	&0x1c7c	
    64d4:	82 4d 7e 1c 	mov	r13,	&0x1c7e	
    64d8:	0c 4a       	mov	r10,	r12	
    64da:	0d 4b       	mov	r11,	r13	
    64dc:	3c 50 00 fc 	add	#-1024,	r12	;#0xfc00
    64e0:	3d 63       	addc	#-1,	r13	;r3 As==11
    64e2:	82 4c 48 1f 	mov	r12,	&0x1f48	
    64e6:	82 4d 4a 1f 	mov	r13,	&0x1f4a	
    64ea:	3a 40 00 04 	mov	#1024,	r10	;#0x0400
    64ee:	0b 43       	clr	r11		
    64f0:	0a 3c       	jmp	$+22     	;abs 0x6506
    64f2:	0a 43       	clr	r10		
    64f4:	0b 43       	clr	r11		
    64f6:	82 4c 7c 1c 	mov	r12,	&0x1c7c	
    64fa:	82 4d 7e 1c 	mov	r13,	&0x1c7e	
    64fe:	82 43 48 1f 	mov	#0,	&0x1f48	;r3 As==00
    6502:	82 43 4a 1f 	mov	#0,	&0x1f4a	;r3 As==00
    6506:	5a 0e       	rlam	#4,	r10	
    6508:	5a 02       	rlam	#1,	r10	
    650a:	1f 42 50 03 	mov	&0x0350,r15	
    650e:	5e 0e       	rlam	#4,	r14	
    6510:	5e 02       	rlam	#1,	r14	
    6512:	0d 4f       	mov	r15,	r13	
    6514:	0d 8e       	sub	r14,	r13	
    6516:	0d 9a       	cmp	r10,	r13	
    6518:	01 28       	jnc	$+4      	;abs 0x651c
    651a:	04 3c       	jmp	$+10     	;abs 0x6524
    651c:	0a 8d       	sub	r13,	r10	
    651e:	3a 90 03 00 	cmp	#3,	r10	;#0x0003
    6522:	06 2c       	jc	$+14     	;abs 0x6530
    6524:	1f 42 50 03 	mov	&0x0350,r15	
    6528:	2f 53       	incd	r15		
    652a:	82 4f 56 03 	mov	r15,	&0x0356	
    652e:	03 3c       	jmp	$+8      	;abs 0x6536
    6530:	0a 5f       	add	r15,	r10	
    6532:	82 4a 56 03 	mov	r10,	&0x0356	
    6536:	92 c3 46 03 	bic	#1,	&0x0346	;r3 As==01
    653a:	b2 d0 10 00 46 03 	bis	#16,	&0x0346	;#0x0010
    6540:	1a 17       	popm	#2,	r11	
    6542:	30 41       	ret			

00006544 <AdcStreamP__nextAlarm>:
    6544:	92 42 0a 34 7c 1c 	mov	&0x340a,&0x1c7c	
    654a:	92 42 0c 34 7e 1c 	mov	&0x340c,&0x1c7e	
    6550:	92 42 c0 22 48 1f 	mov	&0x22c0,&0x1f48	
    6556:	92 42 c2 22 4a 1f 	mov	&0x22c2,&0x1f4a	
    655c:	b0 12 6c 64 	call	#0x646c	
    6560:	92 52 c0 22 0a 34 	add	&0x22c0,&0x340a	
    6566:	92 62 c2 22 0c 34 	addc	&0x22c2,&0x340c	
    656c:	30 41       	ret			

0000656e <AdcStreamP__nextBuffer>:
    656e:	0b 12       	push	r11		
    6570:	0b 42       	mov	r2,	r11	
    6572:	3b f2       	and	#8,	r11	;r2 As==11
    6574:	32 c2       	dint			
    6576:	03 43       	nop			
    6578:	5d 42 00 1c 	mov.b	&0x1c00,r13	
    657c:	5d 02       	rlam	#1,	r13	
    657e:	0c 4d       	mov	r13,	r12	
    6580:	3c 50 6e 1e 	add	#7790,	r12	;#0x1e6e
    6584:	2e 4c       	mov	@r12,	r14	
    6586:	0e 93       	tst	r14		
    6588:	0a 20       	jnz	$+22     	;abs 0x659e
    658a:	8d 43 4e 24 	mov	#0,	9294(r13);r3 As==00, 0x244e(r13)
    658e:	7f 40 2b 00 	mov.b	#43,	r15	;#0x002b
    6592:	b0 12 f6 4e 	call	#0x4ef6	
    6596:	0b 93       	tst	r11		
    6598:	18 24       	jz	$+50     	;abs 0x65ca
    659a:	32 d2       	eint			
    659c:	16 3c       	jmp	$+46     	;abs 0x65ca
    659e:	9c 4e 02 00 00 00 	mov	2(r14),	0(r12)	;0x0002(r14), 0x0000(r12)
    65a4:	8e 93 02 00 	tst	2(r14)		;0x0002(r14)
    65a8:	02 20       	jnz	$+6      	;abs 0x65ae
    65aa:	8d 4c 4e 24 	mov	r12,	9294(r13);0x244e(r13)
    65ae:	a2 4e 22 23 	mov	@r14,	&0x2322	
    65b2:	82 4e 3e 24 	mov	r14,	&0x243e	
    65b6:	82 4e e6 1c 	mov	r14,	&0x1ce6	
    65ba:	4f 93       	tst.b	r15		
    65bc:	02 24       	jz	$+6      	;abs 0x65c2
    65be:	b0 12 44 65 	call	#0x6544	
    65c2:	0b 93       	tst	r11		
    65c4:	04 24       	jz	$+10     	;abs 0x65ce
    65c6:	32 d2       	eint			
    65c8:	02 3c       	jmp	$+6      	;abs 0x65ce
    65ca:	1f 43       	mov	#1,	r15	;r3 As==01
    65cc:	01 3c       	jmp	$+4      	;abs 0x65d0
    65ce:	0f 43       	clr	r15		
    65d0:	3b 41       	pop	r11		
    65d2:	30 41       	ret			

000065d4 <TransformAlarmC__0__set_alarm>:
    65d4:	1b 15       	pushm	#2,	r11	
    65d6:	b0 12 a0 4e 	call	#0x4ea0	
    65da:	1a 42 32 20 	mov	&0x2032,r10	
    65de:	1b 42 34 20 	mov	&0x2034,r11	
    65e2:	0c 4a       	mov	r10,	r12	
    65e4:	0d 4b       	mov	r11,	r13	
    65e6:	1c 52 20 20 	add	&0x2020,r12	
    65ea:	1d 62 22 20 	addc	&0x2022,r13	
    65ee:	0f 9b       	cmp	r11,	r15	
    65f0:	09 28       	jnc	$+20     	;abs 0x6604
    65f2:	02 20       	jnz	$+6      	;abs 0x65f8
    65f4:	0e 9a       	cmp	r10,	r14	
    65f6:	06 28       	jnc	$+14     	;abs 0x6604
    65f8:	0d 9b       	cmp	r11,	r13	
    65fa:	10 28       	jnc	$+34     	;abs 0x661c
    65fc:	09 20       	jnz	$+20     	;abs 0x6610
    65fe:	0c 9a       	cmp	r10,	r12	
    6600:	0d 28       	jnc	$+28     	;abs 0x661c
    6602:	06 3c       	jmp	$+14     	;abs 0x6610
    6604:	0d 9b       	cmp	r11,	r13	
    6606:	04 28       	jnc	$+10     	;abs 0x6610
    6608:	0b 9d       	cmp	r13,	r11	
    660a:	27 28       	jnc	$+80     	;abs 0x665a
    660c:	0c 9a       	cmp	r10,	r12	
    660e:	25 2c       	jc	$+76     	;abs 0x665a
    6610:	0f 9d       	cmp	r13,	r15	
    6612:	04 28       	jnc	$+10     	;abs 0x661c
    6614:	0d 9f       	cmp	r15,	r13	
    6616:	21 28       	jnc	$+68     	;abs 0x665a
    6618:	0e 9c       	cmp	r12,	r14	
    661a:	1f 2c       	jc	$+64     	;abs 0x665a
    661c:	0a 4c       	mov	r12,	r10	
    661e:	0b 4d       	mov	r13,	r11	
    6620:	0a 8e       	sub	r14,	r10	
    6622:	0b 7f       	subc	r15,	r11	
    6624:	0b 93       	tst	r11		
    6626:	03 20       	jnz	$+8      	;abs 0x662e
    6628:	3a 90 01 04 	cmp	#1025,	r10	;#0x0401
    662c:	18 28       	jnc	$+50     	;abs 0x665e
    662e:	0c 4e       	mov	r14,	r12	
    6630:	0d 4f       	mov	r15,	r13	
    6632:	3c 50 00 04 	add	#1024,	r12	;#0x0400
    6636:	0d 63       	adc	r13		
    6638:	82 4c 32 20 	mov	r12,	&0x2032	
    663c:	82 4d 34 20 	mov	r13,	&0x2034	
    6640:	0c 4a       	mov	r10,	r12	
    6642:	0d 4b       	mov	r11,	r13	
    6644:	3c 50 00 fc 	add	#-1024,	r12	;#0xfc00
    6648:	3d 63       	addc	#-1,	r13	;r3 As==11
    664a:	82 4c 20 20 	mov	r12,	&0x2020	
    664e:	82 4d 22 20 	mov	r13,	&0x2022	
    6652:	3a 40 00 04 	mov	#1024,	r10	;#0x0400
    6656:	0b 43       	clr	r11		
    6658:	0a 3c       	jmp	$+22     	;abs 0x666e
    665a:	0a 43       	clr	r10		
    665c:	0b 43       	clr	r11		
    665e:	82 4c 32 20 	mov	r12,	&0x2032	
    6662:	82 4d 34 20 	mov	r13,	&0x2034	
    6666:	82 43 20 20 	mov	#0,	&0x2020	;r3 As==00
    666a:	82 43 22 20 	mov	#0,	&0x2022	;r3 As==00
    666e:	5a 0e       	rlam	#4,	r10	
    6670:	5a 02       	rlam	#1,	r10	
    6672:	1f 42 50 03 	mov	&0x0350,r15	
    6676:	5e 0e       	rlam	#4,	r14	
    6678:	5e 02       	rlam	#1,	r14	
    667a:	0d 4f       	mov	r15,	r13	
    667c:	0d 8e       	sub	r14,	r13	
    667e:	0d 9a       	cmp	r10,	r13	
    6680:	01 28       	jnc	$+4      	;abs 0x6684
    6682:	04 3c       	jmp	$+10     	;abs 0x668c
    6684:	0a 8d       	sub	r13,	r10	
    6686:	3a 90 03 00 	cmp	#3,	r10	;#0x0003
    668a:	06 2c       	jc	$+14     	;abs 0x6698
    668c:	1f 42 50 03 	mov	&0x0350,r15	
    6690:	2f 53       	incd	r15		
    6692:	82 4f 52 03 	mov	r15,	&0x0352	
    6696:	03 3c       	jmp	$+8      	;abs 0x669e
    6698:	0a 5f       	add	r15,	r10	
    669a:	82 4a 52 03 	mov	r10,	&0x0352	
    669e:	92 c3 42 03 	bic	#1,	&0x0342	;r3 As==01
    66a2:	b2 d0 10 00 42 03 	bis	#16,	&0x0342	;#0x0010
    66a8:	1a 17       	popm	#2,	r11	
    66aa:	30 41       	ret			

000066ac <Msp430TimerCapComP__0__Event__fired>:
    66ac:	1f 42 42 03 	mov	&0x0342,r15	
    66b0:	8f 10       	swpb	r15		
    66b2:	5f f3       	and.b	#1,	r15	;r3 As==01
    66b4:	03 24       	jz	$+8      	;abs 0x66bc
    66b6:	1f 42 52 03 	mov	&0x0352,r15	
    66ba:	30 41       	ret			
    66bc:	b2 f0 ef ff 42 03 	and	#-17,	&0x0342	;#0xffef
    66c2:	82 93 20 20 	tst	&0x2020	
    66c6:	07 20       	jnz	$+16     	;abs 0x66d6
    66c8:	82 93 22 20 	tst	&0x2022	
    66cc:	04 20       	jnz	$+10     	;abs 0x66d6
    66ce:	6f 42       	mov.b	#4,	r15	;r2 As==10
    66d0:	b0 12 f6 4e 	call	#0x4ef6	
    66d4:	30 41       	ret			
    66d6:	b0 12 d4 65 	call	#0x65d4	
    66da:	30 41       	ret			

000066dc <Msp430TimerCapComP__1__Event__fired>:
    66dc:	31 82       	sub	#8,	r1	;r2 As==11
    66de:	1f 42 44 03 	mov	&0x0344,r15	
    66e2:	8f 10       	swpb	r15		
    66e4:	5f f3       	and.b	#1,	r15	;r3 As==01
    66e6:	03 24       	jz	$+8      	;abs 0x66ee
    66e8:	1f 42 54 03 	mov	&0x0354,r15	
    66ec:	3d 3c       	jmp	$+124    	;abs 0x6768
    66ee:	b2 f0 ef ff 44 03 	and	#-17,	&0x0344	;#0xffef
    66f4:	0d 41       	mov	r1,	r13	
    66f6:	0e 41       	mov	r1,	r14	
    66f8:	3e 50 06 00 	add	#6,	r14	;#0x0006
    66fc:	0f 41       	mov	r1,	r15	
    66fe:	2f 52       	add	#4,	r15	;r2 As==10
    6700:	b0 12 e6 49 	call	#0x49e6	
    6704:	1c 42 98 1e 	mov	&0x1e98,r12	
    6708:	1d 42 9a 1e 	mov	&0x1e9a,r13	
    670c:	2c 81       	sub	@r1,	r12	
    670e:	1d 71 02 00 	subc	2(r1),	r13	;0x0002(r1)
    6712:	0e 4c       	mov	r12,	r14	
    6714:	0f 4d       	mov	r13,	r15	
    6716:	0e 4c       	mov	r12,	r14	
    6718:	8e 10       	swpb	r14		
    671a:	8f 10       	swpb	r15		
    671c:	4e ef       	xor.b	r15,	r14	
    671e:	0e ef       	xor	r15,	r14	
    6720:	4f 4f       	mov.b	r15,	r15	
    6722:	12 c3       	clrc			
    6724:	0f 10       	rrc	r15		
    6726:	0e 10       	rrc	r14		
    6728:	12 c3       	clrc			
    672a:	0f 10       	rrc	r15		
    672c:	0e 10       	rrc	r14		
    672e:	12 c3       	clrc			
    6730:	0f 10       	rrc	r15		
    6732:	0e 10       	rrc	r14		
    6734:	1f 42 90 03 	mov	&0x0390,r15	
    6738:	0d 4f       	mov	r15,	r13	
    673a:	1d 81 06 00 	sub	6(r1),	r13	;0x0006(r1)
    673e:	0d 9e       	cmp	r14,	r13	
    6740:	01 28       	jnc	$+4      	;abs 0x6744
    6742:	04 3c       	jmp	$+10     	;abs 0x674c
    6744:	0e 8d       	sub	r13,	r14	
    6746:	3e 90 03 00 	cmp	#3,	r14	;#0x0003
    674a:	06 2c       	jc	$+14     	;abs 0x6758
    674c:	1f 42 90 03 	mov	&0x0390,r15	
    6750:	2f 53       	incd	r15		
    6752:	82 4f 96 03 	mov	r15,	&0x0396	
    6756:	03 3c       	jmp	$+8      	;abs 0x675e
    6758:	0e 5f       	add	r15,	r14	
    675a:	82 4e 96 03 	mov	r14,	&0x0396	
    675e:	92 c3 86 03 	bic	#1,	&0x0386	;r3 As==01
    6762:	b2 d0 10 00 86 03 	bis	#16,	&0x0386	;#0x0010
    6768:	31 52       	add	#8,	r1	;r2 As==11
    676a:	30 41       	ret			

0000676c <SimpleArbiterP__1__Resource__request>:
    676c:	0b 12       	push	r11		
    676e:	0b 42       	mov	r2,	r11	
    6770:	3b f2       	and	#8,	r11	;r2 As==11
    6772:	32 c2       	dint			
    6774:	03 43       	nop			
    6776:	c2 93 46 1c 	tst.b	&0x1c46	
    677a:	0c 20       	jnz	$+26     	;abs 0x6794
    677c:	d2 43 46 1c 	mov.b	#1,	&0x1c46	;r3 As==01
    6780:	c2 4f 36 20 	mov.b	r15,	&0x2036	
    6784:	7f 40 29 00 	mov.b	#41,	r15	;#0x0029
    6788:	b0 12 f6 4e 	call	#0x4ef6	
    678c:	0b 93       	tst	r11		
    678e:	1b 24       	jz	$+56     	;abs 0x67c6
    6790:	32 d2       	eint			
    6792:	19 3c       	jmp	$+52     	;abs 0x67c6
    6794:	4e 4f       	mov.b	r15,	r14	
    6796:	5e 0b       	rrum	#3,	r14	
    6798:	5c 4e 3c 21 	mov.b	8508(r14),r12	;0x213c(r14)
    679c:	7f f0 07 00 	and.b	#7,	r15	;#0x0007
    67a0:	1d 43       	mov	#1,	r13	;r3 As==01
    67a2:	03 24       	jz	$+8      	;abs 0x67aa
    67a4:	7f 53       	add.b	#-1,	r15	;r3 As==11
    67a6:	cf 18 0d 5d 	.rpt	r15
				addx	r13,	r13	
    67aa:	4d 4d       	mov.b	r13,	r13	
    67ac:	4d bc       	bit.b	r12,	r13	
    67ae:	05 20       	jnz	$+12     	;abs 0x67ba
    67b0:	4d dc       	bis.b	r12,	r13	
    67b2:	ce 4d 3c 21 	mov.b	r13,	8508(r14);0x213c(r14)
    67b6:	0f 43       	clr	r15		
    67b8:	02 3c       	jmp	$+6      	;abs 0x67be
    67ba:	3f 40 05 00 	mov	#5,	r15	;#0x0005
    67be:	0b 93       	tst	r11		
    67c0:	03 24       	jz	$+8      	;abs 0x67c8
    67c2:	32 d2       	eint			
    67c4:	01 3c       	jmp	$+4      	;abs 0x67c8
    67c6:	0f 43       	clr	r15		
    67c8:	3b 41       	pop	r11		
    67ca:	30 41       	ret			

000067cc <CUSPBaseRecorderP__startSensing>:
    67cc:	c2 43 6a 1c 	mov.b	#0,	&0x1c6a	;r3 As==00
    67d0:	c2 43 70 1c 	mov.b	#0,	&0x1c70	;r3 As==00
    67d4:	e2 c3 04 22 	bic.b	#2,	&0x2204	;r3 As==10
    67d8:	e2 c3 0e 22 	bic.b	#2,	&0x220e	;r3 As==10
    67dc:	e2 c3 18 22 	bic.b	#2,	&0x2218	;r3 As==10
    67e0:	d2 93 42 24 	cmp.b	#1,	&0x2442	;r3 As==01
    67e4:	26 24       	jz	$+78     	;abs 0x6832
    67e6:	b0 12 a0 50 	call	#0x50a0	
    67ea:	d2 43 76 1c 	mov.b	#1,	&0x1c76	;r3 As==01
    67ee:	92 93 44 1c 	cmp	#1,	&0x1c44	;r3 As==01
    67f2:	0a 20       	jnz	$+22     	;abs 0x6808
    67f4:	b0 12 d4 51 	call	#0x51d4	
    67f8:	3c 40 20 4e 	mov	#20000,	r12	;#0x4e20
    67fc:	0d 43       	clr	r13		
    67fe:	b0 12 36 bd 	call	#0xbd36	
    6802:	0d 4e       	mov	r14,	r13	
    6804:	0e 4f       	mov	r15,	r14	
    6806:	0c 3c       	jmp	$+26     	;abs 0x6820
    6808:	b0 12 d4 51 	call	#0x51d4	
    680c:	3c 40 20 4e 	mov	#20000,	r12	;#0x4e20
    6810:	0d 43       	clr	r13		
    6812:	b0 12 36 bd 	call	#0xbd36	
    6816:	0d 4e       	mov	r14,	r13	
    6818:	0e 4f       	mov	r15,	r14	
    681a:	3d 50 40 9c 	add	#-25536,r13	;#0x9c40
    681e:	0e 63       	adc	r14		
    6820:	7f 40 05 00 	mov.b	#5,	r15	;#0x0005
    6824:	b0 12 66 5e 	call	#0x5e66	
    6828:	5f 42 76 1c 	mov.b	&0x1c76,r15	
    682c:	b0 12 42 5f 	call	#0x5f42	
    6830:	30 41       	ret			
    6832:	d2 43 76 1c 	mov.b	#1,	&0x1c76	;r3 As==01
    6836:	30 41       	ret			

00006838 <Msp430RefVoltArbiterImplP__AdcResource__request>:
    6838:	5f 93       	cmp.b	#1,	r15	;r3 As==01
    683a:	05 24       	jz	$+12     	;abs 0x6846
    683c:	03 28       	jnc	$+8      	;abs 0x6844
    683e:	6f 93       	cmp.b	#2,	r15	;r3 As==10
    6840:	05 20       	jnz	$+12     	;abs 0x684c
    6842:	01 3c       	jmp	$+4      	;abs 0x6846
    6844:	4f 43       	clr.b	r15		
    6846:	b0 12 6c 67 	call	#0x676c	
    684a:	30 41       	ret			
    684c:	1f 43       	mov	#1,	r15	;r3 As==01
    684e:	30 41       	ret			

00006850 <TimeSyncMessageLayerP__0__SubAMSend__sendDone>:
    6850:	1b 15       	pushm	#2,	r11	
    6852:	0b 4f       	mov	r15,	r11	
    6854:	0a 4e       	mov	r14,	r10	
    6856:	6f 4f       	mov.b	@r15,	r15	
    6858:	7f 50 ee ff 	add.b	#-18,	r15	;#0xffee
    685c:	4f 4f       	mov.b	r15,	r15	
    685e:	0f 5b       	add	r11,	r15	
    6860:	5d 4f 0c 00 	mov.b	12(r15),r13	;0x000c(r15)
    6864:	7d 90 50 00 	cmp.b	#80,	r13	;#0x0050
    6868:	2d 24       	jz	$+92     	;abs 0x68c4
    686a:	7d 90 51 00 	cmp.b	#81,	r13	;#0x0051
    686e:	07 2c       	jc	$+16     	;abs 0x687e
    6870:	7d 90 06 00 	cmp.b	#6,	r13	;#0x0006
    6874:	0e 24       	jz	$+30     	;abs 0x6892
    6876:	7d 90 3e 00 	cmp.b	#62,	r13	;#0x003e
    687a:	5b 20       	jnz	$+184    	;abs 0x6932
    687c:	0d 3c       	jmp	$+28     	;abs 0x6898
    687e:	7d 90 80 ff 	cmp.b	#-128,	r13	;#0xff80
    6882:	3b 24       	jz	$+120    	;abs 0x68fa
    6884:	7d 90 90 ff 	cmp.b	#-112,	r13	;#0xff90
    6888:	3b 24       	jz	$+120    	;abs 0x6900
    688a:	7d 90 70 00 	cmp.b	#112,	r13	;#0x0070
    688e:	51 20       	jnz	$+164    	;abs 0x6932
    6890:	2b 3c       	jmp	$+88     	;abs 0x68e8
    6892:	c2 43 75 1c 	mov.b	#0,	&0x1c75	;r3 As==00
    6896:	4d 3c       	jmp	$+156    	;abs 0x6932
    6898:	3b 90 9c 1c 	cmp	#7324,	r11	;#0x1c9c
    689c:	4a 20       	jnz	$+150    	;abs 0x6932
    689e:	0e 93       	tst	r14		
    68a0:	0e 20       	jnz	$+30     	;abs 0x68be
    68a2:	d2 53 72 20 	inc.b	&0x2072	
    68a6:	1e 42 e8 1c 	mov	&0x1ce8,r14	
    68aa:	6f 4e       	mov.b	@r14,	r15	
    68ac:	8f 10       	swpb	r15		
    68ae:	5d 4e 01 00 	mov.b	1(r14),	r13	;0x0001(r14)
    68b2:	0f dd       	bis	r13,	r15	
    68b4:	1f 92 44 1c 	cmp	&0x1c44,r15	
    68b8:	02 20       	jnz	$+6      	;abs 0x68be
    68ba:	de 53 04 00 	inc.b	4(r14)		;0x0004(r14)
    68be:	e2 c3 71 1f 	bic.b	#2,	&0x1f71	;r3 As==10
    68c2:	37 3c       	jmp	$+112    	;abs 0x6932
    68c4:	c2 43 71 1c 	mov.b	#0,	&0x1c71	;r3 As==00
    68c8:	0e 93       	tst	r14		
    68ca:	0b 20       	jnz	$+24     	;abs 0x68e2
    68cc:	3f 40 cf 32 	mov	#13007,	r15	;#0x32cf
    68d0:	b0 12 b4 4c 	call	#0x4cb4	
    68d4:	c2 43 0d 33 	mov.b	#0,	&0x330d	;r3 As==00
    68d8:	c2 43 0e 33 	mov.b	#0,	&0x330e	;r3 As==00
    68dc:	c2 43 13 33 	mov.b	#0,	&0x3313	;r3 As==00
    68e0:	28 3c       	jmp	$+82     	;abs 0x6932
    68e2:	b0 12 62 4f 	call	#0x4f62	
    68e6:	25 3c       	jmp	$+76     	;abs 0x6932
    68e8:	c2 43 72 1c 	mov.b	#0,	&0x1c72	;r3 As==00
    68ec:	0e 93       	tst	r14		
    68ee:	21 24       	jz	$+68     	;abs 0x6932
    68f0:	7f 40 09 00 	mov.b	#9,	r15	;#0x0009
    68f4:	b0 12 f6 4e 	call	#0x4ef6	
    68f8:	1c 3c       	jmp	$+58     	;abs 0x6932
    68fa:	c2 43 73 1c 	mov.b	#0,	&0x1c73	;r3 As==00
    68fe:	19 3c       	jmp	$+52     	;abs 0x6932
    6900:	b0 12 8c 50 	call	#0x508c	
    6904:	0a 93       	tst	r10		
    6906:	13 20       	jnz	$+40     	;abs 0x692e
    6908:	0f 42       	mov	r2,	r15	
    690a:	3f f2       	and	#8,	r15	;r2 As==11
    690c:	32 c2       	dint			
    690e:	03 43       	nop			
    6910:	5e 42 04 34 	mov.b	&0x3404,r14	
    6914:	0d 4e       	mov	r14,	r13	
    6916:	5d 02       	rlam	#1,	r13	
    6918:	1b 9d de 1e 	cmp	7902(r13),r11	;0x1ede(r13)
    691c:	04 20       	jnz	$+10     	;abs 0x6926
    691e:	5e 0e       	rlam	#4,	r14	
    6920:	0e 8d       	sub	r13,	r14	
    6922:	ee 43 16 34 	mov.b	#2,	13334(r14);r3 As==10, 0x3416(r14)
    6926:	0f 93       	tst	r15		
    6928:	04 24       	jz	$+10     	;abs 0x6932
    692a:	32 d2       	eint			
    692c:	02 3c       	jmp	$+6      	;abs 0x6932
    692e:	b0 12 58 4f 	call	#0x4f58	
    6932:	1a 17       	popm	#2,	r11	
    6934:	30 41       	ret			

00006936 <CUSPBaseRecorderP__BatteryRead__readDone>:
    6936:	0f 93       	tst	r15		
    6938:	0c 20       	jnz	$+26     	;abs 0x6952
    693a:	0f 42       	mov	r2,	r15	
    693c:	32 c2       	dint			
    693e:	03 43       	nop			
    6940:	82 4e 26 1c 	mov	r14,	&0x1c26	
    6944:	3f f2       	and	#8,	r15	;r2 As==11
    6946:	01 24       	jz	$+4      	;abs 0x694a
    6948:	32 d2       	eint			
    694a:	7f 40 10 00 	mov.b	#16,	r15	;#0x0010
    694e:	b0 12 f6 4e 	call	#0x4ef6	
    6952:	30 41       	ret			

00006954 <ActiveMessageLayerP__0__AMSend__send>:
    6954:	3b 15       	pushm	#4,	r11	
    6956:	48 4f       	mov.b	r15,	r8	
    6958:	0a 4e       	mov	r14,	r10	
    695a:	0b 4d       	mov	r13,	r11	
    695c:	49 4c       	mov.b	r12,	r9	
    695e:	7c 90 33 00 	cmp.b	#51,	r12	;#0x0033
    6962:	6d 2c       	jc	$+220    	;abs 0x6a3e
    6964:	5d 4d 02 00 	mov.b	2(r13),	r13	;0x0002(r13)
    6968:	8d 10       	swpb	r13		
    696a:	5f 4b 01 00 	mov.b	1(r11),	r15	;0x0001(r11)
    696e:	0d df       	bis	r15,	r13	
    6970:	3d f0 47 cc 	and	#-13241,r13	;#0xcc47
    6974:	3d 90 41 88 	cmp	#-30655,r13	;#0x8841
    6978:	03 24       	jz	$+8      	;abs 0x6980
    697a:	0f 4b       	mov	r11,	r15	
    697c:	b0 12 b4 4c 	call	#0x4cb4	
    6980:	79 50 0d 00 	add.b	#13,	r9	;#0x000d
    6984:	cb 49 00 00 	mov.b	r9,	0(r11)	;0x0000(r11)
    6988:	b0 12 a2 52 	call	#0x52a2	
    698c:	cb 4f 08 00 	mov.b	r15,	8(r11)	;0x0008(r11)
    6990:	8f 10       	swpb	r15		
    6992:	cb 4f 09 00 	mov.b	r15,	9(r11)	;0x0009(r11)
    6996:	0d 42       	mov	r2,	r13	
    6998:	32 c2       	dint			
    699a:	03 43       	nop			
    699c:	5f 42 23 1c 	mov.b	&0x1c23,r15	
    69a0:	3d f2       	and	#8,	r13	;r2 As==11
    69a2:	01 24       	jz	$+4      	;abs 0x69a6
    69a4:	32 d2       	eint			
    69a6:	cb 4f 04 00 	mov.b	r15,	4(r11)	;0x0004(r11)
    69aa:	cb 43 05 00 	mov.b	#0,	5(r11)	;r3 As==00, 0x0005(r11)
    69ae:	cb 48 0b 00 	mov.b	r8,	11(r11)	;0x000b(r11)
    69b2:	cb 4a 06 00 	mov.b	r10,	6(r11)	;0x0006(r11)
    69b6:	8a 10       	swpb	r10		
    69b8:	cb 4a 07 00 	mov.b	r10,	7(r11)	;0x0007(r11)
    69bc:	0f 42       	mov	r2,	r15	
    69be:	3f f2       	and	#8,	r15	;r2 As==11
    69c0:	32 c2       	dint			
    69c2:	03 43       	nop			
    69c4:	c2 93 62 1c 	tst.b	&0x1c62	
    69c8:	08 20       	jnz	$+18     	;abs 0x69da
    69ca:	e2 43 62 1c 	mov.b	#2,	&0x1c62	;r3 As==10
    69ce:	c2 43 20 1c 	mov.b	#0,	&0x1c20	;r3 As==00
    69d2:	0f 93       	tst	r15		
    69d4:	41 24       	jz	$+132    	;abs 0x6a58
    69d6:	32 d2       	eint			
    69d8:	3f 3c       	jmp	$+128    	;abs 0x6a58
    69da:	0f 93       	tst	r15		
    69dc:	33 24       	jz	$+104    	;abs 0x6a44
    69de:	32 d2       	eint			
    69e0:	31 3c       	jmp	$+100    	;abs 0x6a44
    69e2:	b0 12 a0 5b 	call	#0x5ba0	
    69e6:	0f 4b       	mov	r11,	r15	
    69e8:	48 3c       	jmp	$+146    	;abs 0x6a7a
    69ea:	d2 43 62 1c 	mov.b	#1,	&0x1c62	;r3 As==01
    69ee:	c2 43 43 1f 	mov.b	#0,	&0x1f43	;r3 As==00
    69f2:	7f 40 11 00 	mov.b	#17,	r15	;#0x0011
    69f6:	b0 12 f6 4e 	call	#0x4ef6	
    69fa:	0b 93       	tst	r11		
    69fc:	3d 24       	jz	$+124    	;abs 0x6a78
    69fe:	32 d2       	eint			
    6a00:	3b 3c       	jmp	$+120    	;abs 0x6a78
    6a02:	1f 43       	mov	#1,	r15	;r3 As==01
    6a04:	f2 93 ea 1c 	cmp.b	#-1,	&0x1cea	;r3 As==11
    6a08:	04 20       	jnz	$+10     	;abs 0x6a12
    6a0a:	c2 93 21 1c 	tst.b	&0x1c21	
    6a0e:	01 24       	jz	$+4      	;abs 0x6a12
    6a10:	0f 43       	clr	r15		
    6a12:	4f 93       	tst.b	r15		
    6a14:	0e 20       	jnz	$+30     	;abs 0x6a32
    6a16:	f2 93 22 1c 	cmp.b	#-1,	&0x1c22	;r3 As==11
    6a1a:	03 20       	jnz	$+8      	;abs 0x6a22
    6a1c:	c2 43 22 1c 	mov.b	#0,	&0x1c22	;r3 As==00
    6a20:	04 3c       	jmp	$+10     	;abs 0x6a2a
    6a22:	5f 42 21 1c 	mov.b	&0x1c21,r15	
    6a26:	cf 43 ea 1c 	mov.b	#0,	7402(r15);r3 As==00, 0x1cea(r15)
    6a2a:	c2 43 21 1c 	mov.b	#0,	&0x1c21	;r3 As==00
    6a2e:	0f 43       	clr	r15		
    6a30:	02 3c       	jmp	$+6      	;abs 0x6a36
    6a32:	3f 40 05 00 	mov	#5,	r15	;#0x0005
    6a36:	0b 93       	tst	r11		
    6a38:	20 24       	jz	$+66     	;abs 0x6a7a
    6a3a:	32 d2       	eint			
    6a3c:	1e 3c       	jmp	$+62     	;abs 0x6a7a
    6a3e:	3f 40 06 00 	mov	#6,	r15	;#0x0006
    6a42:	1b 3c       	jmp	$+56     	;abs 0x6a7a
    6a44:	82 4b 46 1f 	mov	r11,	&0x1f46	
    6a48:	0b 42       	mov	r2,	r11	
    6a4a:	3b f2       	and	#8,	r11	;r2 As==11
    6a4c:	32 c2       	dint			
    6a4e:	03 43       	nop			
    6a50:	c2 93 62 1c 	tst.b	&0x1c62	
    6a54:	ca 27       	jz	$-106    	;abs 0x69ea
    6a56:	d5 3f       	jmp	$-84     	;abs 0x6a02
    6a58:	fb 40 3f 00 0a 00 	mov.b	#63,	10(r11)	;#0x003f, 0x000a(r11)
    6a5e:	5f 42 80 1c 	mov.b	&0x1c80,r15	
    6a62:	5f 53       	inc.b	r15		
    6a64:	c2 4f 80 1c 	mov.b	r15,	&0x1c80	
    6a68:	cb 4f 03 00 	mov.b	r15,	3(r11)	;0x0003(r11)
    6a6c:	0f 4b       	mov	r11,	r15	
    6a6e:	b0 12 f2 5a 	call	#0x5af2	
    6a72:	0b 4f       	mov	r15,	r11	
    6a74:	0f 93       	tst	r15		
    6a76:	b5 23       	jnz	$-148    	;abs 0x69e2
    6a78:	0f 43       	clr	r15		
    6a7a:	38 17       	popm	#4,	r11	
    6a7c:	30 41       	ret			

00006a7e <AMQueueImplP__0__tryToSend>:
    6a7e:	c2 43 03 1c 	mov.b	#0,	&0x1c03	;r3 As==00
    6a82:	82 93 de 20 	tst	&0x20de	
    6a86:	04 24       	jz	$+10     	;abs 0x6a90
    6a88:	5f 42 1c 33 	mov.b	&0x331c,r15	
    6a8c:	1f f3       	and	#1,	r15	;r3 As==01
    6a8e:	02 24       	jz	$+6      	;abs 0x6a94
    6a90:	d2 43 03 1c 	mov.b	#1,	&0x1c03	;r3 As==01
    6a94:	c2 93 03 1c 	tst.b	&0x1c03	
    6a98:	15 20       	jnz	$+44     	;abs 0x6ac4
    6a9a:	1d 42 de 20 	mov	&0x20de,r13	
    6a9e:	5f 4d 07 00 	mov.b	7(r13),	r15	;0x0007(r13)
    6aa2:	8f 10       	swpb	r15		
    6aa4:	5e 4d 06 00 	mov.b	6(r13),	r14	;0x0006(r13)
    6aa8:	6c 4d       	mov.b	@r13,	r12	
    6aaa:	7c 50 f3 ff 	add.b	#-13,	r12	;#0xfff3
    6aae:	0e df       	bis	r15,	r14	
    6ab0:	5f 4d 0b 00 	mov.b	11(r13),r15	;0x000b(r13)
    6ab4:	b0 12 54 69 	call	#0x6954	
    6ab8:	0f 93       	tst	r15		
    6aba:	04 24       	jz	$+10     	;abs 0x6ac4
    6abc:	7f 40 26 00 	mov.b	#38,	r15	;#0x0026
    6ac0:	b0 12 f6 4e 	call	#0x4ef6	
    6ac4:	30 41       	ret			

00006ac6 <AMQueueImplP__0__AMSend__sendDone.isra.343>:
    6ac6:	0b 12       	push	r11		
    6ac8:	21 83       	decd	r1		
    6aca:	c2 93 03 1c 	tst.b	&0x1c03	
    6ace:	0e 20       	jnz	$+30     	;abs 0x6aec
    6ad0:	1b 42 de 20 	mov	&0x20de,r11	
    6ad4:	0b 9f       	cmp	r15,	r11	
    6ad6:	0a 20       	jnz	$+22     	;abs 0x6aec
    6ad8:	82 43 de 20 	mov	#0,	&0x20de	;r3 As==00
    6adc:	81 4e 00 00 	mov	r14,	0(r1)	;0x0000(r1)
    6ae0:	b0 12 7e 6a 	call	#0x6a7e	
    6ae4:	2e 41       	mov	@r1,	r14	
    6ae6:	0f 4b       	mov	r11,	r15	
    6ae8:	b0 12 50 68 	call	#0x6850	
    6aec:	21 53       	incd	r1		
    6aee:	3b 41       	pop	r11		
    6af0:	30 41       	ret			

00006af2 <TimeSyncMessageLayerP__0__TimeSyncAMSendMilli__send>:
    6af2:	2b 15       	pushm	#3,	r11	
    6af4:	37 15       	pushm	#4,	r7	
    6af6:	44 4f       	mov.b	r15,	r4	
    6af8:	05 4e       	mov	r14,	r5	
    6afa:	07 4d       	mov	r13,	r7	
    6afc:	46 4c       	mov.b	r12,	r6	
    6afe:	b0 12 a0 4e 	call	#0x4ea0	
    6b02:	1c 41 10 00 	mov	16(r1),	r12	;0x0010(r1)
    6b06:	1d 41 12 00 	mov	18(r1),	r13	;0x0012(r1)
    6b0a:	0c 8e       	sub	r14,	r12	
    6b0c:	0d 7f       	subc	r15,	r13	
    6b0e:	0a 4c       	mov	r12,	r10	
    6b10:	0b 4d       	mov	r13,	r11	
    6b12:	4b ec       	xor.b	r12,	r11	
    6b14:	0b ec       	xor	r12,	r11	
    6b16:	8b 10       	swpb	r11		
    6b18:	4a 4a       	mov.b	r10,	r10	
    6b1a:	8a 10       	swpb	r10		
    6b1c:	0a 5a       	rla	r10		
    6b1e:	0b 6b       	rlc	r11		
    6b20:	0a 5a       	rla	r10		
    6b22:	0b 6b       	rlc	r11		
    6b24:	b0 12 16 63 	call	#0x6316	
    6b28:	49 46       	mov.b	r6,	r9	
    6b2a:	39 50 0c 00 	add	#12,	r9	;#0x000c
    6b2e:	09 57       	add	r7,	r9	
    6b30:	c9 44 00 00 	mov.b	r4,	0(r9)	;0x0000(r9)
    6b34:	0d 4e       	mov	r14,	r13	
    6b36:	0e 4f       	mov	r15,	r14	
    6b38:	0d 5a       	add	r10,	r13	
    6b3a:	0e 6b       	addc	r11,	r14	
    6b3c:	0f 49       	mov	r9,	r15	
    6b3e:	1f 53       	inc	r15		
    6b40:	b0 12 0e 4b 	call	#0x4b0e	
    6b44:	f7 d0 10 00 44 00 	bis.b	#16,	68(r7)	;#0x0010, 0x0044(r7)
    6b4a:	1f 47 3e 00 	mov	62(r7),	r15	;0x003e(r7)
    6b4e:	0f 93       	tst	r15		
    6b50:	08 20       	jnz	$+18     	;abs 0x6b62
    6b52:	1f 42 1c 1c 	mov	&0x1c1c,r15	
    6b56:	2f 93       	cmp	#2,	r15	;r3 As==10
    6b58:	01 2c       	jc	$+4      	;abs 0x6b5c
    6b5a:	0f 43       	clr	r15		
    6b5c:	87 4f 3e 00 	mov	r15,	62(r7)	;0x003e(r7)
    6b60:	05 3c       	jmp	$+12     	;abs 0x6b6c
    6b62:	3f 90 03 00 	cmp	#3,	r15	;#0x0003
    6b66:	02 20       	jnz	$+6      	;abs 0x6b6c
    6b68:	87 43 3e 00 	mov	#0,	62(r7)	;r3 As==00, 0x003e(r7)
    6b6c:	c7 45 06 00 	mov.b	r5,	6(r7)	;0x0006(r7)
    6b70:	0f 45       	mov	r5,	r15	
    6b72:	8f 10       	swpb	r15		
    6b74:	4f 4f       	mov.b	r15,	r15	
    6b76:	c7 4f 07 00 	mov.b	r15,	7(r7)	;0x0007(r7)
    6b7a:	f7 40 3d 00 0b 00 	mov.b	#61,	11(r7)	;#0x003d, 0x000b(r7)
    6b80:	82 93 de 20 	tst	&0x20de	
    6b84:	23 20       	jnz	$+72     	;abs 0x6bcc
    6b86:	82 47 de 20 	mov	r7,	&0x20de	
    6b8a:	4d 46       	mov.b	r6,	r13	
    6b8c:	7d 50 12 00 	add.b	#18,	r13	;#0x0012
    6b90:	c7 4d 00 00 	mov.b	r13,	0(r7)	;0x0000(r7)
    6b94:	c2 93 03 1c 	tst.b	&0x1c03	
    6b98:	02 20       	jnz	$+6      	;abs 0x6b9e
    6b9a:	0f 43       	clr	r15		
    6b9c:	19 3c       	jmp	$+52     	;abs 0x6bd0
    6b9e:	c2 43 03 1c 	mov.b	#0,	&0x1c03	;r3 As==00
    6ba2:	4f 4f       	mov.b	r15,	r15	
    6ba4:	8f 10       	swpb	r15		
    6ba6:	0e 45       	mov	r5,	r14	
    6ba8:	3e f0 ff 00 	and	#255,	r14	;#0x00ff
    6bac:	4c 46       	mov.b	r6,	r12	
    6bae:	7c 50 05 00 	add.b	#5,	r12	;#0x0005
    6bb2:	0d 47       	mov	r7,	r13	
    6bb4:	0e df       	bis	r15,	r14	
    6bb6:	7f 40 3d 00 	mov.b	#61,	r15	;#0x003d
    6bba:	b0 12 54 69 	call	#0x6954	
    6bbe:	0f 93       	tst	r15		
    6bc0:	ec 27       	jz	$-38     	;abs 0x6b9a
    6bc2:	d2 43 03 1c 	mov.b	#1,	&0x1c03	;r3 As==01
    6bc6:	82 43 de 20 	mov	#0,	&0x20de	;r3 As==00
    6bca:	02 3c       	jmp	$+6      	;abs 0x6bd0
    6bcc:	3f 40 05 00 	mov	#5,	r15	;#0x0005
    6bd0:	34 17       	popm	#4,	r7	
    6bd2:	29 17       	popm	#3,	r11	
    6bd4:	30 41       	ret			

00006bd6 <CUSPBaseRecorderP__Config__readDone.isra.308>:
    6bd6:	0c 93       	tst	r12		
    6bd8:	48 20       	jnz	$+146    	;abs 0x6c6a
    6bda:	0e 4f       	mov	r15,	r14	
    6bdc:	3f 40 40 24 	mov	#9280,	r15	;#0x2440
    6be0:	b0 12 10 c6 	call	#0xc610	
    6be4:	b2 92 40 24 	cmp	#8,	&0x2440	;r2 As==11
    6be8:	1b 20       	jnz	$+56     	;abs 0x6c20
    6bea:	c2 93 42 24 	tst.b	&0x2442	
    6bee:	10 24       	jz	$+34     	;abs 0x6c10
    6bf0:	d2 43 76 1c 	mov.b	#1,	&0x1c76	;r3 As==01
    6bf4:	b0 12 d4 51 	call	#0x51d4	
    6bf8:	3c 40 20 4e 	mov	#20000,	r12	;#0x4e20
    6bfc:	0d 43       	clr	r13		
    6bfe:	b0 12 36 bd 	call	#0xbd36	
    6c02:	0d 4e       	mov	r14,	r13	
    6c04:	0e 4f       	mov	r15,	r14	
    6c06:	7f 40 05 00 	mov.b	#5,	r15	;#0x0005
    6c0a:	b0 12 66 5e 	call	#0x5e66	
    6c0e:	02 3c       	jmp	$+6      	;abs 0x6c14
    6c10:	c2 43 76 1c 	mov.b	#0,	&0x1c76	;r3 As==00
    6c14:	d2 42 4a 24 6f 1c 	mov.b	&0x244a,&0x1c6f	
    6c1a:	92 53 48 24 	inc	&0x2448	
    6c1e:	0e 3c       	jmp	$+30     	;abs 0x6c3c
    6c20:	b0 12 b0 51 	call	#0x51b0	
    6c24:	b2 42 40 24 	mov	#8,	&0x2440	;r2 As==11
    6c28:	c2 43 42 24 	mov.b	#0,	&0x2442	;r3 As==00
    6c2c:	82 43 44 24 	mov	#0,	&0x2444	;r3 As==00
    6c30:	82 43 46 24 	mov	#0,	&0x2446	;r3 As==00
    6c34:	82 43 48 24 	mov	#0,	&0x2448	;r3 As==00
    6c38:	c2 43 4a 24 	mov.b	#0,	&0x244a	;r3 As==00
    6c3c:	b0 12 c2 51 	call	#0x51c2	
    6c40:	5f 42 f4 23 	mov.b	&0x23f4,r15	
    6c44:	3f f0 07 00 	and	#7,	r15	;#0x0007
    6c48:	3f 90 03 00 	cmp	#3,	r15	;#0x0003
    6c4c:	0e 38       	jl	$+30     	;abs 0x6c6a
    6c4e:	03 12       	push	#0		;r3 As==00
    6c50:	30 12 0c 00 	push	#12		;#0x000c
    6c54:	30 12 40 24 	push	#9280		;#0x2440
    6c58:	3c 40 06 00 	mov	#6,	r12	;#0x0006
    6c5c:	0d 43       	clr	r13		
    6c5e:	4e 43       	clr.b	r14		
    6c60:	5f 43       	mov.b	#1,	r15	;r3 As==01
    6c62:	b0 12 02 55 	call	#0x5502	
    6c66:	31 50 06 00 	add	#6,	r1	;#0x0006
    6c6a:	30 41       	ret			

00006c6c <ConfigStorageP__setFlip>:
    6c6c:	4d 4f       	mov.b	r15,	r13	
    6c6e:	5d 0b       	rrum	#3,	r13	
    6c70:	7f f0 07 00 	and.b	#7,	r15	;#0x0007
    6c74:	4e 93       	tst.b	r14		
    6c76:	09 24       	jz	$+20     	;abs 0x6c8a
    6c78:	1e 43       	mov	#1,	r14	;r3 As==01
    6c7a:	4f 93       	tst.b	r15		
    6c7c:	03 24       	jz	$+8      	;abs 0x6c84
    6c7e:	7f 53       	add.b	#-1,	r15	;r3 As==11
    6c80:	cf 18 0e 5e 	.rpt	r15
				addx	r14,	r14	
    6c84:	cd de 71 1e 	bis.b	r14,	7793(r13);0x1e71(r13)
    6c88:	30 41       	ret			
    6c8a:	1e 43       	mov	#1,	r14	;r3 As==01
    6c8c:	4f 93       	tst.b	r15		
    6c8e:	03 24       	jz	$+8      	;abs 0x6c96
    6c90:	7f 53       	add.b	#-1,	r15	;r3 As==11
    6c92:	cf 18 0e 5e 	.rpt	r15
				addx	r14,	r14	
    6c96:	cd ce 71 1e 	bic.b	r14,	7793(r13);0x1e71(r13)
    6c9a:	30 41       	ret			

00006c9c <ConfigStorageP__flip>:
    6c9c:	0b 12       	push	r11		
    6c9e:	4b 4f       	mov.b	r15,	r11	
    6ca0:	b0 12 ac 4b 	call	#0x4bac	
    6ca4:	5e 43       	mov.b	#1,	r14	;r3 As==01
    6ca6:	4f 93       	tst.b	r15		
    6ca8:	01 24       	jz	$+4      	;abs 0x6cac
    6caa:	4e 43       	clr.b	r14		
    6cac:	4f 4b       	mov.b	r11,	r15	
    6cae:	b0 12 6c 6c 	call	#0x6c6c	
    6cb2:	3b 41       	pop	r11		
    6cb4:	30 41       	ret			

00006cb6 <ConfigStorageP__commitSyncDone>:
    6cb6:	1b 15       	pushm	#2,	r11	
    6cb8:	4b 4f       	mov.b	r15,	r11	
    6cba:	4d 4f       	mov.b	r15,	r13	
    6cbc:	5d 02       	rlam	#1,	r13	
    6cbe:	3d 50 f4 23 	add	#9204,	r13	;#0x23f4
    6cc2:	6c 4d       	mov.b	@r13,	r12	
    6cc4:	4a 4c       	mov.b	r12,	r10	
    6cc6:	7a c2       	bic.b	#8,	r10	;r2 As==11
    6cc8:	cd 4a 00 00 	mov.b	r10,	0(r13)	;0x0000(r13)
    6ccc:	0e 93       	tst	r14		
    6cce:	07 20       	jnz	$+16     	;abs 0x6cde
    6cd0:	7c f0 f0 ff 	and.b	#-16,	r12	;#0xfff0
    6cd4:	7c d0 03 00 	bis.b	#3,	r12	;#0x0003
    6cd8:	cd 4c 00 00 	mov.b	r12,	0(r13)	;0x0000(r13)
    6cdc:	02 3c       	jmp	$+6      	;abs 0x6ce2
    6cde:	b0 12 9c 6c 	call	#0x6c9c	
    6ce2:	4b 93       	tst.b	r11		
    6ce4:	02 20       	jnz	$+6      	;abs 0x6cea
    6ce6:	b0 12 68 50 	call	#0x5068	
    6cea:	1a 17       	popm	#2,	r11	
    6cec:	30 41       	ret			

00006cee <ConfigStorageP__ConfigStorage__commit.constprop.434>:
    6cee:	0b 12       	push	r11		
    6cf0:	5f 42 f4 23 	mov.b	&0x23f4,r15	
    6cf4:	7f f0 07 00 	and.b	#7,	r15	;#0x0007
    6cf8:	4e 4f       	mov.b	r15,	r14	
    6cfa:	3e 90 03 00 	cmp	#3,	r14	;#0x0003
    6cfe:	3b 38       	jl	$+120    	;abs 0x6d76
    6d00:	7f 90 03 00 	cmp.b	#3,	r15	;#0x0003
    6d04:	0d 20       	jnz	$+28     	;abs 0x6d20
    6d06:	03 12       	push	#0		;r3 As==00
    6d08:	13 12       	push	#1		;r3 As==01
    6d0a:	03 12       	push	#0		;r3 As==00
    6d0c:	0c 43       	clr	r12		
    6d0e:	0d 43       	clr	r13		
    6d10:	4e 43       	clr.b	r14		
    6d12:	7f 40 05 00 	mov.b	#5,	r15	;#0x0005
    6d16:	b0 12 02 55 	call	#0x5502	
    6d1a:	31 50 06 00 	add	#6,	r1	;#0x0006
    6d1e:	2c 3c       	jmp	$+90     	;abs 0x6d78
    6d20:	4f 43       	clr.b	r15		
    6d22:	b0 12 9c 6c 	call	#0x6c9c	
    6d26:	3f 40 72 23 	mov	#9074,	r15	;#0x2372
    6d2a:	b0 12 3a 4b 	call	#0x4b3a	
    6d2e:	0d 4e       	mov	r14,	r13	
    6d30:	0e 4f       	mov	r15,	r14	
    6d32:	1d 53       	inc	r13		
    6d34:	0e 63       	adc	r14		
    6d36:	3f 40 72 23 	mov	#9074,	r15	;#0x2372
    6d3a:	b0 12 0e 4b 	call	#0x4b0e	
    6d3e:	3b 40 72 23 	mov	#9074,	r11	;#0x2372
    6d42:	0f 43       	clr	r15		
    6d44:	7e 4b       	mov.b	@r11+,	r14	
    6d46:	b0 12 20 4c 	call	#0x4c20	
    6d4a:	3b 90 76 23 	cmp	#9078,	r11	;#0x2376
    6d4e:	fa 23       	jnz	$-10     	;abs 0x6d44
    6d50:	03 12       	push	#0		;r3 As==00
    6d52:	30 12 3a 08 	push	#2106		;#0x083a
    6d56:	0f 12       	push	r15		
    6d58:	3c 40 06 00 	mov	#6,	r12	;#0x0006
    6d5c:	0d 43       	clr	r13		
    6d5e:	4e 43       	clr.b	r14		
    6d60:	7f 40 05 00 	mov.b	#5,	r15	;#0x0005
    6d64:	b0 12 02 55 	call	#0x5502	
    6d68:	31 50 06 00 	add	#6,	r1	;#0x0006
    6d6c:	0f 93       	tst	r15		
    6d6e:	04 20       	jnz	$+10     	;abs 0x6d78
    6d70:	f2 d2 f4 23 	bis.b	#8,	&0x23f4	;r2 As==11
    6d74:	01 3c       	jmp	$+4      	;abs 0x6d78
    6d76:	2f 42       	mov	#4,	r15	;r2 As==10
    6d78:	3b 41       	pop	r11		
    6d7a:	30 41       	ret			

00006d7c <Msp430Adc12ImplP__SingleChannel__getData>:
    6d7c:	0b 12       	push	r11		
    6d7e:	0b 42       	mov	r2,	r11	
    6d80:	3b f2       	and	#8,	r11	;r2 As==11
    6d82:	32 c2       	dint			
    6d84:	03 43       	nop			
    6d86:	5e 42 02 1c 	mov.b	&0x1c02,r14	
    6d8a:	4e 9f       	cmp.b	r15,	r14	
    6d8c:	79 20       	jnz	$+244    	;abs 0x6e80
    6d8e:	5f 42 d0 20 	mov.b	&0x20d0,r15	
    6d92:	7f b2       	bit.b	#8,	r15	;r2 As==11
    6d94:	07 24       	jz	$+16     	;abs 0x6da4
    6d96:	82 93 70 20 	tst	&0x2070	
    6d9a:	04 20       	jnz	$+10     	;abs 0x6da4
    6d9c:	0b 93       	tst	r11		
    6d9e:	74 24       	jz	$+234    	;abs 0x6e88
    6da0:	32 d2       	eint			
    6da2:	72 3c       	jmp	$+230    	;abs 0x6e88
    6da4:	7f b0 20 00 	bit.b	#32,	r15	;#0x0020
    6da8:	04 24       	jz	$+10     	;abs 0x6db2
    6daa:	0b 93       	tst	r11		
    6dac:	70 24       	jz	$+226    	;abs 0x6e8e
    6dae:	32 d2       	eint			
    6db0:	6e 3c       	jmp	$+222    	;abs 0x6e8e
    6db2:	7f d0 20 00 	bis.b	#32,	r15	;#0x0020
    6db6:	c2 4f d0 20 	mov.b	r15,	&0x20d0	
    6dba:	c2 4e 8f 1c 	mov.b	r14,	&0x1c8f	
    6dbe:	4f 43       	clr.b	r15		
    6dc0:	b0 12 16 4c 	call	#0x4c16	
    6dc4:	7f f0 0f 00 	and.b	#15,	r15	;#0x000f
    6dc8:	7f 92       	cmp.b	#8,	r15	;r2 As==11
    6dca:	3d 2c       	jc	$+124    	;abs 0x6e46
    6dcc:	4f 4f       	mov.b	r15,	r15	
    6dce:	5f 02       	rlam	#1,	r15	
    6dd0:	10 4f f8 cd 	br	-12808(r15)	;0xcdf8(r15)
    6dd4:	d2 d3 4b 02 	bis.b	#1,	&0x024b	;r3 As==01
    6dd8:	5f 42 45 02 	mov.b	&0x0245,r15	
    6ddc:	5f c3       	bic.b	#1,	r15	;r3 As==01
    6dde:	31 3c       	jmp	$+100    	;abs 0x6e42
    6de0:	e2 d3 4b 02 	bis.b	#2,	&0x024b	;r3 As==10
    6de4:	5f 42 45 02 	mov.b	&0x0245,r15	
    6de8:	6f c3       	bic.b	#2,	r15	;r3 As==10
    6dea:	2b 3c       	jmp	$+88     	;abs 0x6e42
    6dec:	e2 d2 4b 02 	bis.b	#4,	&0x024b	;r2 As==10
    6df0:	5f 42 45 02 	mov.b	&0x0245,r15	
    6df4:	6f c2       	bic.b	#4,	r15	;r2 As==10
    6df6:	25 3c       	jmp	$+76     	;abs 0x6e42
    6df8:	f2 d2 4b 02 	bis.b	#8,	&0x024b	;r2 As==11
    6dfc:	5f 42 45 02 	mov.b	&0x0245,r15	
    6e00:	7f c2       	bic.b	#8,	r15	;r2 As==11
    6e02:	1f 3c       	jmp	$+64     	;abs 0x6e42
    6e04:	f2 d0 10 00 4b 02 	bis.b	#16,	&0x024b	;#0x0010
    6e0a:	5f 42 45 02 	mov.b	&0x0245,r15	
    6e0e:	7f f0 ef ff 	and.b	#-17,	r15	;#0xffef
    6e12:	17 3c       	jmp	$+48     	;abs 0x6e42
    6e14:	f2 d0 20 00 4b 02 	bis.b	#32,	&0x024b	;#0x0020
    6e1a:	5f 42 45 02 	mov.b	&0x0245,r15	
    6e1e:	7f f0 df ff 	and.b	#-33,	r15	;#0xffdf
    6e22:	0f 3c       	jmp	$+32     	;abs 0x6e42
    6e24:	f2 d0 40 00 4b 02 	bis.b	#64,	&0x024b	;#0x0040
    6e2a:	5f 42 45 02 	mov.b	&0x0245,r15	
    6e2e:	7f f0 bf ff 	and.b	#-65,	r15	;#0xffbf
    6e32:	07 3c       	jmp	$+16     	;abs 0x6e42
    6e34:	f2 d0 80 ff 4b 02 	bis.b	#-128,	&0x024b	;#0xff80
    6e3a:	5f 42 45 02 	mov.b	&0x0245,r15	
    6e3e:	7f f0 7f 00 	and.b	#127,	r15	;#0x007f
    6e42:	c2 4f 45 02 	mov.b	r15,	&0x0245	
    6e46:	b2 d0 10 00 00 07 	bis	#16,	&0x0700	;#0x0010
    6e4c:	b2 d0 03 00 00 07 	bis	#3,	&0x0700	;#0x0003
    6e52:	f2 b0 40 00 d0 20 	bit.b	#64,	&0x20d0	;#0x0040
    6e58:	0f 24       	jz	$+32     	;abs 0x6e78
    6e5a:	82 43 c4 03 	mov	#0,	&0x03c4	;r3 As==00
    6e5e:	a2 42 c4 03 	mov	#4,	&0x03c4	;r2 As==10
    6e62:	b2 40 e0 00 c4 03 	mov	#224,	&0x03c4	;#0x00e0
    6e68:	1f 42 c0 03 	mov	&0x03c0,r15	
    6e6c:	3f f0 cf ff 	and	#-49,	r15	;#0xffcf
    6e70:	3f d0 10 00 	bis	#16,	r15	;#0x0010
    6e74:	82 4f c0 03 	mov	r15,	&0x03c0	
    6e78:	0b 93       	tst	r11		
    6e7a:	0c 24       	jz	$+26     	;abs 0x6e94
    6e7c:	32 d2       	eint			
    6e7e:	0a 3c       	jmp	$+22     	;abs 0x6e94
    6e80:	0b 93       	tst	r11		
    6e82:	0a 24       	jz	$+22     	;abs 0x6e98
    6e84:	32 d2       	eint			
    6e86:	08 3c       	jmp	$+18     	;abs 0x6e98
    6e88:	3f 40 06 00 	mov	#6,	r15	;#0x0006
    6e8c:	06 3c       	jmp	$+14     	;abs 0x6e9a
    6e8e:	3f 40 05 00 	mov	#5,	r15	;#0x0005
    6e92:	03 3c       	jmp	$+8      	;abs 0x6e9a
    6e94:	0f 43       	clr	r15		
    6e96:	01 3c       	jmp	$+4      	;abs 0x6e9a
    6e98:	1f 43       	mov	#1,	r15	;r3 As==01
    6e9a:	3b 41       	pop	r11		
    6e9c:	30 41       	ret			

00006e9e <AdcStreamP__sampleSingle>:
    6e9e:	c2 93 00 1c 	tst.b	&0x1c00	
    6ea2:	03 20       	jnz	$+8      	;abs 0x6eaa
    6ea4:	5f 43       	mov.b	#1,	r15	;r3 As==01
    6ea6:	b0 12 7c 6d 	call	#0x6d7c	
    6eaa:	30 41       	ret			

00006eac <Msp430TimerCapComP__2__Event__fired>:
    6eac:	1f 42 46 03 	mov	&0x0346,r15	
    6eb0:	8f 10       	swpb	r15		
    6eb2:	5f f3       	and.b	#1,	r15	;r3 As==01
    6eb4:	03 24       	jz	$+8      	;abs 0x6ebc
    6eb6:	1f 42 56 03 	mov	&0x0356,r15	
    6eba:	30 41       	ret			
    6ebc:	b2 f0 ef ff 46 03 	and	#-17,	&0x0346	;#0xffef
    6ec2:	82 93 48 1f 	tst	&0x1f48	
    6ec6:	06 20       	jnz	$+14     	;abs 0x6ed4
    6ec8:	82 93 4a 1f 	tst	&0x1f4a	
    6ecc:	03 20       	jnz	$+8      	;abs 0x6ed4
    6ece:	b0 12 9e 6e 	call	#0x6e9e	
    6ed2:	30 41       	ret			
    6ed4:	b0 12 6c 64 	call	#0x646c	
    6ed8:	30 41       	ret			

00006eda <ArbiterP__2__ResourceDefaultOwner__release>:
    6eda:	0b 12       	push	r11		
    6edc:	0b 42       	mov	r2,	r11	
    6ede:	3b f2       	and	#8,	r11	;r2 As==11
    6ee0:	32 c2       	dint			
    6ee2:	03 43       	nop			
    6ee4:	d2 93 2f 1c 	cmp.b	#1,	&0x1c2f	;r3 As==01
    6ee8:	1c 20       	jnz	$+58     	;abs 0x6f22
    6eea:	5f 42 37 20 	mov.b	&0x2037,r15	
    6eee:	4e 4f       	mov.b	r15,	r14	
    6ef0:	7e 53       	add.b	#-1,	r14	;r3 As==11
    6ef2:	6e 93       	cmp.b	#2,	r14	;r3 As==10
    6ef4:	0b 2c       	jc	$+24     	;abs 0x6f0c
    6ef6:	e2 43 37 20 	mov.b	#2,	&0x2037	;r3 As==10
    6efa:	6f 43       	mov.b	#2,	r15	;r3 As==10
    6efc:	b0 12 f6 4e 	call	#0x4ef6	
    6f00:	0b 93       	tst	r11		
    6f02:	01 20       	jnz	$+4      	;abs 0x6f06
    6f04:	01 3c       	jmp	$+4      	;abs 0x6f08
    6f06:	32 d2       	eint			
    6f08:	0f 43       	clr	r15		
    6f0a:	0f 3c       	jmp	$+32     	;abs 0x6f2a
    6f0c:	7f 90 03 00 	cmp.b	#3,	r15	;#0x0003
    6f10:	08 20       	jnz	$+18     	;abs 0x6f22
    6f12:	d2 42 2e 1c 2f 1c 	mov.b	&0x1c2e,&0x1c2f	
    6f18:	f2 43 2e 1c 	mov.b	#-1,	&0x1c2e	;r3 As==11
    6f1c:	e2 42 37 20 	mov.b	#4,	&0x2037	;r2 As==10
    6f20:	ef 3f       	jmp	$-32     	;abs 0x6f00
    6f22:	0b 93       	tst	r11		
    6f24:	01 24       	jz	$+4      	;abs 0x6f28
    6f26:	32 d2       	eint			
    6f28:	1f 43       	mov	#1,	r15	;r3 As==01
    6f2a:	3b 41       	pop	r11		
    6f2c:	30 41       	ret			

00006f2e <ArbiterP__2__Resource__immediateRequest.constprop.451>:
    6f2e:	0f 42       	mov	r2,	r15	
    6f30:	3f f2       	and	#8,	r15	;r2 As==11
    6f32:	32 c2       	dint			
    6f34:	03 43       	nop			
    6f36:	c2 93 37 20 	tst.b	&0x2037	
    6f3a:	06 24       	jz	$+14     	;abs 0x6f48
    6f3c:	0f 93       	tst	r15		
    6f3e:	01 20       	jnz	$+4      	;abs 0x6f42
    6f40:	01 3c       	jmp	$+4      	;abs 0x6f44
    6f42:	32 d2       	eint			
    6f44:	1f 43       	mov	#1,	r15	;r3 As==01
    6f46:	30 41       	ret			
    6f48:	f2 40 03 00 37 20 	mov.b	#3,	&0x2037	;#0x0003
    6f4e:	c2 43 2e 1c 	mov.b	#0,	&0x1c2e	;r3 As==00
    6f52:	0f 93       	tst	r15		
    6f54:	01 24       	jz	$+4      	;abs 0x6f58
    6f56:	32 d2       	eint			
    6f58:	b0 12 da 6e 	call	#0x6eda	
    6f5c:	c2 93 2f 1c 	tst.b	&0x1c2f	
    6f60:	04 20       	jnz	$+10     	;abs 0x6f6a
    6f62:	b0 12 02 5c 	call	#0x5c02	
    6f66:	0f 43       	clr	r15		
    6f68:	30 41       	ret			
    6f6a:	0f 42       	mov	r2,	r15	
    6f6c:	32 c2       	dint			
    6f6e:	03 43       	nop			
    6f70:	c2 43 37 20 	mov.b	#0,	&0x2037	;r3 As==00
    6f74:	3f f2       	and	#8,	r15	;r2 As==11
    6f76:	e2 3f       	jmp	$-58     	;abs 0x6f3c

00006f78 <RF233DriverLayerP__isSpiAcquired>:
    6f78:	0b 12       	push	r11		
    6f7a:	0f 42       	mov	r2,	r15	
    6f7c:	3f f2       	and	#8,	r15	;r2 As==11
    6f7e:	32 c2       	dint			
    6f80:	03 43       	nop			
    6f82:	c2 93 2f 1c 	tst.b	&0x1c2f	
    6f86:	04 20       	jnz	$+10     	;abs 0x6f90
    6f88:	1e 43       	mov	#1,	r14	;r3 As==01
    6f8a:	e2 92 37 20 	cmp.b	#4,	&0x2037	;r2 As==10
    6f8e:	01 24       	jz	$+4      	;abs 0x6f92
    6f90:	0e 43       	clr	r14		
    6f92:	4e 4e       	mov.b	r14,	r14	
    6f94:	0f 93       	tst	r15		
    6f96:	01 24       	jz	$+4      	;abs 0x6f9a
    6f98:	32 d2       	eint			
    6f9a:	4e 93       	tst.b	r14		
    6f9c:	45 20       	jnz	$+140    	;abs 0x7028
    6f9e:	b0 12 2e 6f 	call	#0x6f2e	
    6fa2:	0f 93       	tst	r15		
    6fa4:	05 20       	jnz	$+12     	;abs 0x6fb0
    6fa6:	b0 12 1e 50 	call	#0x501e	
    6faa:	b0 12 30 50 	call	#0x5030	
    6fae:	3c 3c       	jmp	$+122    	;abs 0x7028
    6fb0:	0f 42       	mov	r2,	r15	
    6fb2:	3f f2       	and	#8,	r15	;r2 As==11
    6fb4:	32 c2       	dint			
    6fb6:	03 43       	nop			
    6fb8:	c2 93 2e 1c 	tst.b	&0x1c2e	
    6fbc:	05 20       	jnz	$+12     	;abs 0x6fc8
    6fbe:	0f 93       	tst	r15		
    6fc0:	01 20       	jnz	$+4      	;abs 0x6fc4
    6fc2:	30 3c       	jmp	$+98     	;abs 0x7024
    6fc4:	32 d2       	eint			
    6fc6:	2e 3c       	jmp	$+94     	;abs 0x7024
    6fc8:	1e 43       	mov	#1,	r14	;r3 As==01
    6fca:	f2 93 ce 32 	cmp.b	#-1,	&0x32ce	;r3 As==11
    6fce:	04 20       	jnz	$+10     	;abs 0x6fd8
    6fd0:	c2 93 30 1c 	tst.b	&0x1c30	
    6fd4:	01 24       	jz	$+4      	;abs 0x6fd8
    6fd6:	0e 43       	clr	r14		
    6fd8:	4e 93       	tst.b	r14		
    6fda:	f1 23       	jnz	$-28     	;abs 0x6fbe
    6fdc:	f2 93 31 1c 	cmp.b	#-1,	&0x1c31	;r3 As==11
    6fe0:	03 20       	jnz	$+8      	;abs 0x6fe8
    6fe2:	c2 43 31 1c 	mov.b	#0,	&0x1c31	;r3 As==00
    6fe6:	04 3c       	jmp	$+10     	;abs 0x6ff0
    6fe8:	5e 42 30 1c 	mov.b	&0x1c30,r14	
    6fec:	ce 43 ce 32 	mov.b	#0,	13006(r14);r3 As==00, 0x32ce(r14)
    6ff0:	c2 43 30 1c 	mov.b	#0,	&0x1c30	;r3 As==00
    6ff4:	0f 93       	tst	r15		
    6ff6:	01 24       	jz	$+4      	;abs 0x6ffa
    6ff8:	32 d2       	eint			
    6ffa:	0b 42       	mov	r2,	r11	
    6ffc:	3b f2       	and	#8,	r11	;r2 As==11
    6ffe:	32 c2       	dint			
    7000:	03 43       	nop			
    7002:	c2 93 37 20 	tst.b	&0x2037	
    7006:	03 24       	jz	$+8      	;abs 0x700e
    7008:	0b 93       	tst	r11		
    700a:	0c 24       	jz	$+26     	;abs 0x7024
    700c:	db 3f       	jmp	$-72     	;abs 0x6fc4
    700e:	d2 43 37 20 	mov.b	#1,	&0x2037	;r3 As==01
    7012:	b0 12 4c 4c 	call	#0x4c4c	
    7016:	c2 4f 2e 1c 	mov.b	r15,	&0x1c2e	
    701a:	0b 93       	tst	r11		
    701c:	01 24       	jz	$+4      	;abs 0x7020
    701e:	32 d2       	eint			
    7020:	b0 12 da 6e 	call	#0x6eda	
    7024:	4f 43       	clr.b	r15		
    7026:	01 3c       	jmp	$+4      	;abs 0x702a
    7028:	5f 43       	mov.b	#1,	r15	;r3 As==01
    702a:	3b 41       	pop	r11		
    702c:	30 41       	ret			

0000702e <RF233DriverLayerP__RadioSend__send>:
    702e:	7b 15       	pushm	#8,	r11	
    7030:	21 82       	sub	#4,	r1	;r2 As==10
    7032:	09 4f       	mov	r15,	r9	
    7034:	c2 93 9c 23 	tst.b	&0x239c	
    7038:	01 24       	jz	$+4      	;abs 0x703c
    703a:	5b 3c       	jmp	$+184    	;abs 0x70f2
    703c:	f2 90 05 00 f2 36 	cmp.b	#5,	&0x36f2	;#0x0005
    7042:	57 20       	jnz	$+176    	;abs 0x70f2
    7044:	b0 12 78 6f 	call	#0x6f78	
    7048:	4f 93       	tst.b	r15		
    704a:	53 24       	jz	$+168    	;abs 0x70f2
    704c:	c2 93 78 1c 	tst.b	&0x1c78	
    7050:	50 20       	jnz	$+162    	;abs 0x70f2
    7052:	e9 b2 44 00 	bit.b	#4,	68(r9)	;r2 As==10, 0x0044(r9)
    7056:	05 24       	jz	$+12     	;abs 0x7062
    7058:	5e 49 48 00 	mov.b	72(r9),	r14	;0x0048(r9)
    705c:	7e f0 0f 00 	and.b	#15,	r14	;#0x000f
    7060:	02 3c       	jmp	$+6      	;abs 0x7066
    7062:	7e 40 0f 00 	mov.b	#15,	r14	;#0x000f
    7066:	5e 92 53 24 	cmp.b	&0x2453,r14	
    706a:	08 24       	jz	$+18     	;abs 0x707c
    706c:	c2 4e 53 24 	mov.b	r14,	&0x2453	
    7070:	7e d0 20 00 	bis.b	#32,	r14	;#0x0020
    7074:	7f 40 05 00 	mov.b	#5,	r15	;#0x0005
    7078:	b0 12 18 5f 	call	#0x5f18	
    707c:	5f 49 02 00 	mov.b	2(r9),	r15	;0x0002(r9)
    7080:	8f 10       	swpb	r15		
    7082:	5e 49 01 00 	mov.b	1(r9),	r14	;0x0001(r9)
    7086:	0f de       	bis	r14,	r15	
    7088:	3f f0 47 cc 	and	#-13241,r15	;#0xcc47
    708c:	3f 90 41 88 	cmp	#-30655,r15	;#0x8841
    7090:	0f 24       	jz	$+32     	;abs 0x70b0
    7092:	7e 40 09 00 	mov.b	#9,	r14	;#0x0009
    7096:	6f 43       	mov.b	#2,	r15	;r3 As==10
    7098:	b0 12 18 5f 	call	#0x5f18	
    709c:	b0 12 16 63 	call	#0x6316	
    70a0:	0a 4e       	mov	r14,	r10	
    70a2:	0b 4f       	mov	r15,	r11	
    70a4:	f9 b0 10 00 44 00 	bit.b	#16,	68(r9)	;#0x0010, 0x0044(r9)
    70aa:	11 20       	jnz	$+36     	;abs 0x70ce
    70ac:	08 43       	clr	r8		
    70ae:	14 3c       	jmp	$+42     	;abs 0x70d8
    70b0:	7f 40 06 00 	mov.b	#6,	r15	;#0x0006
    70b4:	b0 12 e6 5e 	call	#0x5ee6	
    70b8:	3f f0 1f 00 	and	#31,	r15	;#0x001f
    70bc:	5e 42 24 22 	mov.b	&0x2224,r14	
    70c0:	5d 42 3c 24 	mov.b	&0x243c,r13	
    70c4:	0e 5d       	add	r13,	r14	
    70c6:	5e 09       	rram	#3,	r14	
    70c8:	0e 9f       	cmp	r15,	r14	
    70ca:	13 38       	jl	$+40     	;abs 0x70f2
    70cc:	e2 3f       	jmp	$-58     	;abs 0x7092
    70ce:	68 49       	mov.b	@r9,	r8	
    70d0:	78 50 fb ff 	add.b	#-5,	r8	;#0xfffb
    70d4:	48 48       	mov.b	r8,	r8	
    70d6:	08 59       	add	r9,	r8	
    70d8:	5f 43       	mov.b	#1,	r15	;r3 As==01
    70da:	b0 12 e6 5e 	call	#0x5ee6	
    70de:	7f f0 1f 00 	and.b	#31,	r15	;#0x001f
    70e2:	7f 90 09 00 	cmp.b	#9,	r15	;#0x0009
    70e6:	08 24       	jz	$+18     	;abs 0x70f8
    70e8:	7e 40 06 00 	mov.b	#6,	r14	;#0x0006
    70ec:	6f 43       	mov.b	#2,	r15	;r3 As==10
    70ee:	b0 12 18 5f 	call	#0x5f18	
    70f2:	3f 40 05 00 	mov	#5,	r15	;#0x0005
    70f6:	7e 3c       	jmp	$+254    	;abs 0x71f4
    70f8:	07 42       	mov	r2,	r7	
    70fa:	32 c2       	dint			
    70fc:	03 43       	nop			
    70fe:	b0 12 90 52 	call	#0x5290	
    7102:	14 42 90 03 	mov	&0x0390,r4	
    7106:	37 f2       	and	#8,	r7	;r2 As==11
    7108:	01 24       	jz	$+4      	;abs 0x710c
    710a:	32 d2       	eint			
    710c:	b0 12 42 50 	call	#0x5042	
    7110:	b0 12 7e 52 	call	#0x527e	
    7114:	7f 40 60 00 	mov.b	#96,	r15	;#0x0060
    7118:	b0 12 e0 4a 	call	#0x4ae0	
    711c:	05 49       	mov	r9,	r5	
    711e:	15 53       	inc	r5		
    7120:	66 49       	mov.b	@r9,	r6	
    7122:	b0 12 cc 4a 	call	#0x4acc	
    7126:	4f 46       	mov.b	r6,	r15	
    7128:	b0 12 e0 4a 	call	#0x4ae0	
    712c:	66 83       	decd.b	r6		
    712e:	76 90 07 00 	cmp.b	#7,	r6	;#0x0007
    7132:	03 28       	jnc	$+8      	;abs 0x713a
    7134:	77 40 07 00 	mov.b	#7,	r7	;#0x0007
    7138:	01 3c       	jmp	$+4      	;abs 0x713c
    713a:	47 46       	mov.b	r6,	r7	
    713c:	46 87       	sub.b	r7,	r6	
    713e:	c1 46 00 00 	mov.b	r6,	0(r1)	;0x0000(r1)
    7142:	06 45       	mov	r5,	r6	
    7144:	4f 47       	mov.b	r7,	r15	
    7146:	4f 55       	add.b	r5,	r15	
    7148:	c1 4f 02 00 	mov.b	r15,	2(r1)	;0x0002(r1)
    714c:	f1 46 01 00 	mov.b	@r6+,	1(r1)	;0x0001(r1)
    7150:	b0 12 cc 4a 	call	#0x4acc	
    7154:	5f 41 01 00 	mov.b	1(r1),	r15	;0x0001(r1)
    7158:	b0 12 e0 4a 	call	#0x4ae0	
    715c:	c1 96 02 00 	cmp.b	r6,	2(r1)	;0x0002(r1)
    7160:	f5 23       	jnz	$-20     	;abs 0x714c
    7162:	4e 47       	mov.b	r7,	r14	
    7164:	7e 53       	add.b	#-1,	r14	;r3 As==11
    7166:	47 4e       	mov.b	r14,	r7	
    7168:	17 53       	inc	r7		
    716a:	07 55       	add	r5,	r7	
    716c:	0e 44       	mov	r4,	r14	
    716e:	3e 50 b0 00 	add	#176,	r14	;#0x00b0
    7172:	0e 8a       	sub	r10,	r14	
    7174:	0c 4e       	mov	r14,	r12	
    7176:	8e 10       	swpb	r14		
    7178:	8e 11       	sxt	r14		
    717a:	8e 10       	swpb	r14		
    717c:	8e 11       	sxt	r14		
    717e:	0d 4e       	mov	r14,	r13	
    7180:	0a 5c       	add	r12,	r10	
    7182:	0b 6d       	addc	r13,	r11	
    7184:	08 93       	tst	r8		
    7186:	0a 24       	jz	$+22     	;abs 0x719c
    7188:	0f 48       	mov	r8,	r15	
    718a:	b0 12 3a 4b 	call	#0x4b3a	
    718e:	0d 4e       	mov	r14,	r13	
    7190:	0e 4f       	mov	r15,	r14	
    7192:	0d 8a       	sub	r10,	r13	
    7194:	0e 7b       	subc	r11,	r14	
    7196:	0f 48       	mov	r8,	r15	
    7198:	b0 12 0e 4b 	call	#0x4b0e	
    719c:	66 41       	mov.b	@r1,	r6	
    719e:	46 57       	add.b	r7,	r6	
    71a0:	06 3c       	jmp	$+14     	;abs 0x71ae
    71a2:	75 47       	mov.b	@r7+,	r5	
    71a4:	b0 12 cc 4a 	call	#0x4acc	
    71a8:	4f 45       	mov.b	r5,	r15	
    71aa:	b0 12 e0 4a 	call	#0x4ae0	
    71ae:	46 97       	cmp.b	r7,	r6	
    71b0:	f8 23       	jnz	$-14     	;abs 0x71a2
    71b2:	b0 12 cc 4a 	call	#0x4acc	
    71b6:	b0 12 30 50 	call	#0x5030	
    71ba:	7e 40 06 00 	mov.b	#6,	r14	;#0x0006
    71be:	6f 43       	mov.b	#2,	r15	;r3 As==10
    71c0:	b0 12 18 5f 	call	#0x5f18	
    71c4:	08 93       	tst	r8		
    71c6:	0a 24       	jz	$+22     	;abs 0x71dc
    71c8:	0f 48       	mov	r8,	r15	
    71ca:	b0 12 3a 4b 	call	#0x4b3a	
    71ce:	0d 4e       	mov	r14,	r13	
    71d0:	0e 4f       	mov	r15,	r14	
    71d2:	0d 5a       	add	r10,	r13	
    71d4:	0e 6b       	addc	r11,	r14	
    71d6:	0f 48       	mov	r8,	r15	
    71d8:	b0 12 0e 4b 	call	#0x4b0e	
    71dc:	e9 d3 44 00 	bis.b	#2,	68(r9)	;r3 As==10, 0x0044(r9)
    71e0:	89 4a 40 00 	mov	r10,	64(r9)	;0x0040(r9)
    71e4:	89 4b 42 00 	mov	r11,	66(r9)	;0x0042(r9)
    71e8:	f2 40 06 00 f2 36 	mov.b	#6,	&0x36f2	;#0x0006
    71ee:	e2 42 9c 23 	mov.b	#4,	&0x239c	;r2 As==10
    71f2:	0f 43       	clr	r15		
    71f4:	21 52       	add	#4,	r1	;r2 As==10
    71f6:	74 17       	popm	#8,	r11	
    71f8:	30 41       	ret			

000071fa <TaskletC__doit>:
    71fa:	7b 15       	pushm	#8,	r11	
    71fc:	21 83       	decd	r1		
    71fe:	c2 93 78 1c 	tst.b	&0x1c78	
    7202:	d5 24       	jz	$+428    	;abs 0x73ae
    7204:	b0 12 78 6f 	call	#0x6f78	
    7208:	4f 93       	tst.b	r15		
    720a:	d1 24       	jz	$+420    	;abs 0x73ae
    720c:	0f 42       	mov	r2,	r15	
    720e:	32 c2       	dint			
    7210:	03 43       	nop			
    7212:	17 42 c8 22 	mov	&0x22c8,r7	
    7216:	3f f2       	and	#8,	r15	;r2 As==11
    7218:	01 24       	jz	$+4      	;abs 0x721c
    721a:	32 d2       	eint			
    721c:	c2 43 78 1c 	mov.b	#0,	&0x1c78	;r3 As==00
    7220:	7f 40 0f 00 	mov.b	#15,	r15	;#0x000f
    7224:	b0 12 e6 5e 	call	#0x5ee6	
    7228:	49 4f       	mov.b	r15,	r9	
    722a:	48 4f       	mov.b	r15,	r8	
    722c:	78 f2       	and.b	#8,	r8	;r2 As==11
    722e:	1b 24       	jz	$+56     	;abs 0x7266
    7230:	7f 92       	cmp.b	#8,	r15	;r2 As==11
    7232:	06 24       	jz	$+14     	;abs 0x7240
    7234:	7f 90 0c 00 	cmp.b	#12,	r15	;#0x000c
    7238:	12 20       	jnz	$+38     	;abs 0x725e
    723a:	c2 93 9c 23 	tst.b	&0x239c	
    723e:	0f 20       	jnz	$+32     	;abs 0x725e
    7240:	7f 40 07 00 	mov.b	#7,	r15	;#0x0007
    7244:	b0 12 e6 5e 	call	#0x5ee6	
    7248:	1e 42 0e 34 	mov	&0x340e,r14	
    724c:	5d 4e 44 00 	mov.b	68(r14),r13	;0x0044(r14)
    7250:	6d c2       	bic.b	#4,	r13	;r2 As==10
    7252:	7d d2       	bis.b	#8,	r13	;r2 As==11
    7254:	ce 4d 44 00 	mov.b	r13,	68(r14)	;0x0044(r14)
    7258:	ce 4f 48 00 	mov.b	r15,	72(r14)	;0x0048(r14)
    725c:	04 3c       	jmp	$+10     	;abs 0x7266
    725e:	1f 42 0e 34 	mov	&0x340e,r15	
    7262:	ff c2 44 00 	bic.b	#8,	68(r15)	;r2 As==11, 0x0044(r15)
    7266:	5f 42 9c 23 	mov.b	&0x239c,r15	
    726a:	7f 90 03 00 	cmp.b	#3,	r15	;#0x0003
    726e:	03 24       	jz	$+8      	;abs 0x7276
    7270:	7f 90 07 00 	cmp.b	#7,	r15	;#0x0007
    7274:	05 20       	jnz	$+12     	;abs 0x7280
    7276:	f2 40 05 00 f2 36 	mov.b	#5,	&0x36f2	;#0x0005
    727c:	f2 42 9c 23 	mov.b	#8,	&0x239c	;r2 As==11
    7280:	69 b2       	bit.b	#4,	r9	;r2 As==10
    7282:	35 24       	jz	$+108    	;abs 0x72ee
    7284:	f2 90 06 00 9c 23 	cmp.b	#6,	&0x239c	;#0x0006
    728a:	02 20       	jnz	$+6      	;abs 0x7290
    728c:	c2 43 9c 23 	mov.b	#0,	&0x239c	;r3 As==00
    7290:	c2 93 9c 23 	tst.b	&0x239c	
    7294:	2c 20       	jnz	$+90     	;abs 0x72ee
    7296:	69 92       	cmp.b	#4,	r9	;r2 As==10
    7298:	02 24       	jz	$+6      	;abs 0x729e
    729a:	80 00 be 79 	bra	#0x079be	
    729e:	7f 40 06 00 	mov.b	#6,	r15	;#0x0006
    72a2:	b0 12 e6 5e 	call	#0x5ee6	
    72a6:	5e 42 3c 24 	mov.b	&0x243c,r14	
    72aa:	4d 4e       	mov.b	r14,	r13	
    72ac:	5d 07       	rrum	#2,	r13	
    72ae:	4e 8d       	sub.b	r13,	r14	
    72b0:	7f f0 1f 00 	and.b	#31,	r15	;#0x001f
    72b4:	4e 5f       	add.b	r15,	r14	
    72b6:	c2 4e 3c 24 	mov.b	r14,	&0x243c	
    72ba:	b0 12 16 63 	call	#0x6316	
    72be:	0d 47       	mov	r7,	r13	
    72c0:	3d 82       	sub	#8,	r13	;r2 As==11
    72c2:	0d 8e       	sub	r14,	r13	
    72c4:	0a 4d       	mov	r13,	r10	
    72c6:	8d 10       	swpb	r13		
    72c8:	8d 11       	sxt	r13		
    72ca:	8d 10       	swpb	r13		
    72cc:	8d 11       	sxt	r13		
    72ce:	0b 4d       	mov	r13,	r11	
    72d0:	1d 42 0e 34 	mov	&0x340e,r13	
    72d4:	ed d3 44 00 	bis.b	#2,	68(r13)	;r3 As==10, 0x0044(r13)
    72d8:	06 4a       	mov	r10,	r6	
    72da:	07 4b       	mov	r11,	r7	
    72dc:	06 5e       	add	r14,	r6	
    72de:	07 6f       	addc	r15,	r7	
    72e0:	8d 46 40 00 	mov	r6,	64(r13)	;0x0040(r13)
    72e4:	8d 47 42 00 	mov	r7,	66(r13)	;0x0042(r13)
    72e8:	f2 40 05 00 9c 23 	mov.b	#5,	&0x239c	;#0x0005
    72ee:	48 93       	tst.b	r8		
    72f0:	5e 24       	jz	$+190    	;abs 0x73ae
    72f2:	5f 42 9c 23 	mov.b	&0x239c,r15	
    72f6:	6f 92       	cmp.b	#4,	r15	;r2 As==10
    72f8:	46 20       	jnz	$+142    	;abs 0x7386
    72fa:	f2 40 05 00 f2 36 	mov.b	#5,	&0x36f2	;#0x0005
    7300:	c2 43 9c 23 	mov.b	#0,	&0x239c	;r3 As==00
    7304:	f2 90 03 00 8e 1e 	cmp.b	#3,	&0x1e8e	;#0x0003
    730a:	03 20       	jnz	$+8      	;abs 0x7312
    730c:	c2 43 8e 1e 	mov.b	#0,	&0x1e8e	;r3 As==00
    7310:	4e 3c       	jmp	$+158    	;abs 0x73ae
    7312:	1e 42 d8 36 	mov	&0x36d8,r14	
    7316:	5f 4e 02 00 	mov.b	2(r14),	r15	;0x0002(r14)
    731a:	8f 10       	swpb	r15		
    731c:	5d 4e 01 00 	mov.b	1(r14),	r13	;0x0001(r14)
    7320:	0f dd       	bis	r13,	r15	
    7322:	3f b0 20 00 	bit	#32,	r15	;#0x0020
    7326:	11 24       	jz	$+36     	;abs 0x734a
    7328:	3f f0 47 cc 	and	#-13241,r15	;#0xcc47
    732c:	3f 90 41 88 	cmp	#-30655,r15	;#0x8841
    7330:	0c 20       	jnz	$+26     	;abs 0x734a
    7332:	5f 4e 07 00 	mov.b	7(r14),	r15	;0x0007(r14)
    7336:	8f 10       	swpb	r15		
    7338:	5e 4e 06 00 	mov.b	6(r14),	r14	;0x0006(r14)
    733c:	0f de       	bis	r14,	r15	
    733e:	1e 43       	mov	#1,	r14	;r3 As==01
    7340:	3f 93       	cmp	#-1,	r15	;r3 As==11
    7342:	01 20       	jnz	$+4      	;abs 0x7346
    7344:	0e 43       	clr	r14		
    7346:	0f 4e       	mov	r14,	r15	
    7348:	01 3c       	jmp	$+4      	;abs 0x734c
    734a:	0f 43       	clr	r15		
    734c:	4f 93       	tst.b	r15		
    734e:	10 24       	jz	$+34     	;abs 0x7370
    7350:	c2 93 bc 22 	tst.b	&0x22bc	
    7354:	0d 20       	jnz	$+28     	;abs 0x7370
    7356:	e2 43 6a 20 	mov.b	#2,	&0x206a	;r3 As==10
    735a:	d2 43 bc 22 	mov.b	#1,	&0x22bc	;r3 As==01
    735e:	1f 42 90 03 	mov	&0x0390,r15	
    7362:	3e 40 e8 03 	mov	#1000,	r14	;#0x03e8
    7366:	b0 12 10 64 	call	#0x6410	
    736a:	e2 43 8e 1e 	mov.b	#2,	&0x1e8e	;r3 As==10
    736e:	1f 3c       	jmp	$+64     	;abs 0x73ae
    7370:	c2 43 8e 1e 	mov.b	#0,	&0x1e8e	;r3 As==00
    7374:	c2 43 5e 1f 	mov.b	#0,	&0x1f5e	;r3 As==00
    7378:	82 43 20 33 	mov	#0,	&0x3320	;r3 As==00
    737c:	e2 42 5d 1f 	mov.b	#4,	&0x1f5d	;r2 As==10
    7380:	b0 12 6c 4f 	call	#0x4f6c	
    7384:	14 3c       	jmp	$+42     	;abs 0x73ae
    7386:	7f 90 05 00 	cmp.b	#5,	r15	;#0x0005
    738a:	11 20       	jnz	$+36     	;abs 0x73ae
    738c:	7f 40 06 00 	mov.b	#6,	r15	;#0x0006
    7390:	b0 12 e6 5e 	call	#0x5ee6	
    7394:	5e 42 24 22 	mov.b	&0x2224,r14	
    7398:	4d 4e       	mov.b	r14,	r13	
    739a:	5d 07       	rrum	#2,	r13	
    739c:	4e 8d       	sub.b	r13,	r14	
    739e:	7f f0 1f 00 	and.b	#31,	r15	;#0x001f
    73a2:	4e 5f       	add.b	r15,	r14	
    73a4:	c2 4e 24 22 	mov.b	r14,	&0x2224	
    73a8:	f2 40 09 00 9c 23 	mov.b	#9,	&0x239c	;#0x0009
    73ae:	5f 42 9c 23 	mov.b	&0x239c,r15	
    73b2:	4f 93       	tst.b	r15		
    73b4:	02 20       	jnz	$+6      	;abs 0x73ba
    73b6:	80 00 5a 78 	bra	#0x0785a	
    73ba:	7f 90 09 00 	cmp.b	#9,	r15	;#0x0009
    73be:	02 24       	jz	$+6      	;abs 0x73c4
    73c0:	80 00 06 77 	bra	#0x07706	
    73c4:	b0 12 7e 52 	call	#0x527e	
    73c8:	7f 40 20 00 	mov.b	#32,	r15	;#0x0020
    73cc:	b0 12 e0 4a 	call	#0x4ae0	
    73d0:	b0 12 cc 4a 	call	#0x4acc	
    73d4:	4f 43       	clr.b	r15		
    73d6:	b0 12 e0 4a 	call	#0x4ae0	
    73da:	b0 12 cc 4a 	call	#0x4acc	
    73de:	49 4f       	mov.b	r15,	r9	
    73e0:	7f 90 03 00 	cmp.b	#3,	r15	;#0x0003
    73e4:	83 28       	jnc	$+264    	;abs 0x74ec
    73e6:	4f 4f       	mov.b	r15,	r15	
    73e8:	3f 90 40 00 	cmp	#64,	r15	;#0x0040
    73ec:	7f 34       	jge	$+256    	;abs 0x74ec
    73ee:	4f 43       	clr.b	r15		
    73f0:	b0 12 e0 4a 	call	#0x4ae0	
    73f4:	1f 42 0e 34 	mov	&0x340e,r15	
    73f8:	05 4f       	mov	r15,	r5	
    73fa:	15 53       	inc	r5		
    73fc:	cf 49 00 00 	mov.b	r9,	0(r15)	;0x0000(r15)
    7400:	46 49       	mov.b	r9,	r6	
    7402:	66 83       	decd.b	r6		
    7404:	76 90 07 00 	cmp.b	#7,	r6	;#0x0007
    7408:	03 28       	jnc	$+8      	;abs 0x7410
    740a:	77 40 07 00 	mov.b	#7,	r7	;#0x0007
    740e:	01 3c       	jmp	$+4      	;abs 0x7412
    7410:	47 46       	mov.b	r6,	r7	
    7412:	08 45       	mov	r5,	r8	
    7414:	09 43       	clr	r9		
    7416:	4d 47       	mov.b	r7,	r13	
    7418:	4d 55       	add.b	r5,	r13	
    741a:	c1 4d 00 00 	mov.b	r13,	0(r1)	;0x0000(r1)
    741e:	b0 12 cc 4a 	call	#0x4acc	
    7422:	44 4f       	mov.b	r15,	r4	
    7424:	4f 43       	clr.b	r15		
    7426:	b0 12 e0 4a 	call	#0x4ae0	
    742a:	c8 44 00 00 	mov.b	r4,	0(r8)	;0x0000(r8)
    742e:	18 53       	inc	r8		
    7430:	4e 44       	mov.b	r4,	r14	
    7432:	0f 49       	mov	r9,	r15	
    7434:	b0 12 ec 4a 	call	#0x4aec	
    7438:	09 4f       	mov	r15,	r9	
    743a:	c1 98 00 00 	cmp.b	r8,	0(r1)	;0x0000(r1)
    743e:	ef 23       	jnz	$-32     	;abs 0x741e
    7440:	48 47       	mov.b	r7,	r8	
    7442:	78 53       	add.b	#-1,	r8	;r3 As==11
    7444:	48 48       	mov.b	r8,	r8	
    7446:	18 53       	inc	r8		
    7448:	08 55       	add	r5,	r8	
    744a:	1f 42 0e 34 	mov	&0x340e,r15	
    744e:	5e 4f 02 00 	mov.b	2(r15),	r14	;0x0002(r15)
    7452:	8e 10       	swpb	r14		
    7454:	5f 4f 01 00 	mov.b	1(r15),	r15	;0x0001(r15)
    7458:	0e df       	bis	r15,	r14	
    745a:	3e f0 07 00 	and	#7,	r14	;#0x0007
    745e:	2e 93       	cmp	#2,	r14	;r3 As==10
    7460:	04 20       	jnz	$+10     	;abs 0x746a
    7462:	e2 93 8e 1e 	cmp.b	#2,	&0x1e8e	;r3 As==10
    7466:	40 20       	jnz	$+130    	;abs 0x74e8
    7468:	0e 3c       	jmp	$+30     	;abs 0x7486
    746a:	0e 42       	mov	r2,	r14	
    746c:	32 c2       	dint			
    746e:	03 43       	nop			
    7470:	5f 43       	mov.b	#1,	r15	;r3 As==01
    7472:	f2 90 03 00 a2 23 	cmp.b	#3,	&0x23a2	;#0x0003
    7478:	01 28       	jnc	$+4      	;abs 0x747c
    747a:	4f 43       	clr.b	r15		
    747c:	3e f2       	and	#8,	r14	;r2 As==11
    747e:	01 24       	jz	$+4      	;abs 0x7482
    7480:	32 d2       	eint			
    7482:	4f 93       	tst.b	r15		
    7484:	31 24       	jz	$+100    	;abs 0x74e8
    7486:	46 87       	sub.b	r7,	r6	
    7488:	47 46       	mov.b	r6,	r7	
    748a:	47 58       	add.b	r8,	r7	
    748c:	0e 3c       	jmp	$+30     	;abs 0x74aa
    748e:	b0 12 cc 4a 	call	#0x4acc	
    7492:	46 4f       	mov.b	r15,	r6	
    7494:	4f 43       	clr.b	r15		
    7496:	b0 12 e0 4a 	call	#0x4ae0	
    749a:	c8 46 00 00 	mov.b	r6,	0(r8)	;0x0000(r8)
    749e:	18 53       	inc	r8		
    74a0:	4e 46       	mov.b	r6,	r14	
    74a2:	0f 49       	mov	r9,	r15	
    74a4:	b0 12 ec 4a 	call	#0x4aec	
    74a8:	09 4f       	mov	r15,	r9	
    74aa:	47 98       	cmp.b	r8,	r7	
    74ac:	f0 23       	jnz	$-30     	;abs 0x748e
    74ae:	b0 12 cc 4a 	call	#0x4acc	
    74b2:	48 4f       	mov.b	r15,	r8	
    74b4:	4f 43       	clr.b	r15		
    74b6:	b0 12 e0 4a 	call	#0x4ae0	
    74ba:	4e 48       	mov.b	r8,	r14	
    74bc:	0f 49       	mov	r9,	r15	
    74be:	b0 12 ec 4a 	call	#0x4aec	
    74c2:	09 4f       	mov	r15,	r9	
    74c4:	b0 12 cc 4a 	call	#0x4acc	
    74c8:	48 4f       	mov.b	r15,	r8	
    74ca:	4f 43       	clr.b	r15		
    74cc:	b0 12 e0 4a 	call	#0x4ae0	
    74d0:	4e 48       	mov.b	r8,	r14	
    74d2:	0f 49       	mov	r9,	r15	
    74d4:	b0 12 ec 4a 	call	#0x4aec	
    74d8:	09 4f       	mov	r15,	r9	
    74da:	b0 12 cc 4a 	call	#0x4acc	
    74de:	1e 42 0e 34 	mov	&0x340e,r14	
    74e2:	ce 4f 46 00 	mov.b	r15,	70(r14)	;0x0046(r14)
    74e6:	03 3c       	jmp	$+8      	;abs 0x74ee
    74e8:	b0 12 cc 4a 	call	#0x4acc	
    74ec:	19 43       	mov	#1,	r9	;r3 As==01
    74ee:	b0 12 30 50 	call	#0x5030	
    74f2:	f2 40 05 00 f2 36 	mov.b	#5,	&0x36f2	;#0x0005
    74f8:	c2 43 9c 23 	mov.b	#0,	&0x239c	;r3 As==00
    74fc:	09 93       	tst	r9		
    74fe:	02 24       	jz	$+6      	;abs 0x7504
    7500:	80 00 48 78 	bra	#0x07848	
    7504:	19 42 0e 34 	mov	&0x340e,r9	
    7508:	5f 49 02 00 	mov.b	2(r9),	r15	;0x0002(r9)
    750c:	8f 10       	swpb	r15		
    750e:	5e 49 01 00 	mov.b	1(r9),	r14	;0x0001(r9)
    7512:	0f de       	bis	r14,	r15	
    7514:	3f f0 07 00 	and	#7,	r15	;#0x0007
    7518:	2f 93       	cmp	#2,	r15	;r3 As==10
    751a:	1f 20       	jnz	$+64     	;abs 0x755a
    751c:	e2 93 8e 1e 	cmp.b	#2,	&0x1e8e	;r3 As==10
    7520:	02 24       	jz	$+6      	;abs 0x7526
    7522:	80 00 00 77 	bra	#0x07700	
    7526:	1f 42 d8 36 	mov	&0x36d8,r15	
    752a:	d9 9f 03 00 03 00 	cmp.b	3(r15),	3(r9)	;0x0003(r15), 0x0003(r9)
    7530:	02 24       	jz	$+6      	;abs 0x7536
    7532:	80 00 00 77 	bra	#0x07700	
    7536:	b2 f0 ef ff 84 03 	and	#-17,	&0x0384	;#0xffef
    753c:	c2 43 bc 22 	mov.b	#0,	&0x22bc	;r3 As==00
    7540:	df d3 44 00 	bis.b	#1,	68(r15)	;r3 As==01, 0x0044(r15)
    7544:	c2 43 8e 1e 	mov.b	#0,	&0x1e8e	;r3 As==00
    7548:	c2 43 5e 1f 	mov.b	#0,	&0x1f5e	;r3 As==00
    754c:	82 43 20 33 	mov	#0,	&0x3320	;r3 As==00
    7550:	e2 42 5d 1f 	mov.b	#4,	&0x1f5d	;r2 As==10
    7554:	b0 12 6c 4f 	call	#0x4f6c	
    7558:	d3 3c       	jmp	$+424    	;abs 0x7700
    755a:	c2 93 8e 1e 	tst.b	&0x1e8e	
    755e:	18 20       	jnz	$+50     	;abs 0x7590
    7560:	0f 49       	mov	r9,	r15	
    7562:	b0 12 82 61 	call	#0x6182	
    7566:	4f 93       	tst.b	r15		
    7568:	13 24       	jz	$+40     	;abs 0x7590
    756a:	f2 40 05 00 78 20 	mov.b	#5,	&0x2078	;#0x0005
    7570:	e2 43 79 20 	mov.b	#2,	&0x2079	;r3 As==10
    7574:	c2 43 7a 20 	mov.b	#0,	&0x207a	;r3 As==00
    7578:	d2 49 03 00 7b 20 	mov.b	3(r9),	&0x207b	;0x0003(r9)
    757e:	3f 40 78 20 	mov	#8312,	r15	;#0x2078
    7582:	b0 12 2e 70 	call	#0x702e	
    7586:	0f 93       	tst	r15		
    7588:	03 20       	jnz	$+8      	;abs 0x7590
    758a:	f2 40 03 00 8e 1e 	mov.b	#3,	&0x1e8e	;#0x0003
    7590:	18 42 90 03 	mov	&0x0390,r8	
    7594:	0f 49       	mov	r9,	r15	
    7596:	b0 12 82 61 	call	#0x6182	
    759a:	4f 93       	tst.b	r15		
    759c:	02 24       	jz	$+6      	;abs 0x75a2
    759e:	38 50 60 03 	add	#864,	r8	;#0x0360
    75a2:	82 48 dc 20 	mov	r8,	&0x20dc	
    75a6:	18 82 90 03 	sub	&0x0390,r8	
    75aa:	0f 48       	mov	r8,	r15	
    75ac:	18 93       	cmp	#1,	r8	;r3 As==01
    75ae:	11 38       	jl	$+36     	;abs 0x75d2
    75b0:	5e 42 5e 1f 	mov.b	&0x1f5e,r14	
    75b4:	4e 93       	tst.b	r14		
    75b6:	09 20       	jnz	$+20     	;abs 0x75ca
    75b8:	c2 93 bc 22 	tst.b	&0x22bc	
    75bc:	0a 20       	jnz	$+22     	;abs 0x75d2
    75be:	b0 12 56 64 	call	#0x6456	
    75c2:	f2 40 80 ff 5e 1f 	mov.b	#-128,	&0x1f5e	;#0xff80
    75c8:	04 3c       	jmp	$+10     	;abs 0x75d2
    75ca:	7e d0 80 ff 	bis.b	#-128,	r14	;#0xff80
    75ce:	c2 4e 5e 1f 	mov.b	r14,	&0x1f5e	
    75d2:	5e 49 09 00 	mov.b	9(r9),	r14	;0x0009(r9)
    75d6:	8e 10       	swpb	r14		
    75d8:	5f 49 08 00 	mov.b	8(r9),	r15	;0x0008(r9)
    75dc:	0e df       	bis	r15,	r14	
    75de:	58 42 96 1e 	mov.b	&0x1e96,r8	
    75e2:	4f 48       	mov.b	r8,	r15	
    75e4:	0d 4f       	mov	r15,	r13	
    75e6:	5d 02       	rlam	#1,	r13	
    75e8:	5c 42 c6 22 	mov.b	&0x22c6,r12	
    75ec:	1e 9d 20 24 	cmp	9248(r13),r14	;0x2420(r13)
    75f0:	0a 20       	jnz	$+22     	;abs 0x7606
    75f2:	3f 50 d2 36 	add	#14034,	r15	;#0x36d2
    75f6:	6c 9f       	cmp.b	@r15,	r12	
    75f8:	4b 24       	jz	$+152    	;abs 0x7690
    75fa:	5c 53       	inc.b	r12		
    75fc:	c2 4c c6 22 	mov.b	r12,	&0x22c6	
    7600:	cf 4c 00 00 	mov.b	r12,	0(r15)	;0x0000(r15)
    7604:	16 3c       	jmp	$+46     	;abs 0x7632
    7606:	0f 43       	clr	r15		
    7608:	47 43       	clr.b	r7		
    760a:	4d 43       	clr.b	r13		
    760c:	48 4f       	mov.b	r15,	r8	
    760e:	06 4f       	mov	r15,	r6	
    7610:	56 02       	rlam	#1,	r6	
    7612:	86 9e 20 24 	cmp	r14,	9248(r6);0x2420(r6)
    7616:	10 20       	jnz	$+34     	;abs 0x7638
    7618:	c2 4f 96 1e 	mov.b	r15,	&0x1e96	
    761c:	5e 42 c6 22 	mov.b	&0x22c6,r14	
    7620:	3f 50 d2 36 	add	#14034,	r15	;#0x36d2
    7624:	6e 9f       	cmp.b	@r15,	r14	
    7626:	34 24       	jz	$+106    	;abs 0x7690
    7628:	5e 53       	inc.b	r14		
    762a:	c2 4e c6 22 	mov.b	r14,	&0x22c6	
    762e:	cf 4e 00 00 	mov.b	r14,	0(r15)	;0x0000(r15)
    7632:	7d 40 80 ff 	mov.b	#-128,	r13	;#0xff80
    7636:	0d 3c       	jmp	$+28     	;abs 0x7652
    7638:	48 4c       	mov.b	r12,	r8	
    763a:	58 8f d2 36 	sub.b	14034(r15),r8	;0x36d2(r15)
    763e:	4d 98       	cmp.b	r8,	r13	
    7640:	02 2c       	jc	$+6      	;abs 0x7646
    7642:	47 4f       	mov.b	r15,	r7	
    7644:	4d 48       	mov.b	r8,	r13	
    7646:	1f 53       	inc	r15		
    7648:	3f 90 05 00 	cmp	#5,	r15	;#0x0005
    764c:	df 23       	jnz	$-64     	;abs 0x760c
    764e:	80 00 ca 79 	bra	#0x079ca	
    7652:	5e 42 c6 22 	mov.b	&0x22c6,r14	
    7656:	4f 4e       	mov.b	r14,	r15	
    7658:	7f f0 7f 00 	and.b	#127,	r15	;#0x007f
    765c:	7f 90 7f 00 	cmp.b	#127,	r15	;#0x007f
    7660:	03 24       	jz	$+8      	;abs 0x7668
    7662:	58 42 96 1e 	mov.b	&0x1e96,r8	
    7666:	14 3c       	jmp	$+42     	;abs 0x7690
    7668:	7d 90 7f 00 	cmp.b	#127,	r13	;#0x007f
    766c:	fa 2b       	jnc	$-10     	;abs 0x7662
    766e:	3f 40 d2 36 	mov	#14034,	r15	;#0x36d2
    7672:	6d 4f       	mov.b	@r15,	r13	
    7674:	7d d0 7f 00 	bis.b	#127,	r13	;#0x007f
    7678:	4d 9e       	cmp.b	r14,	r13	
    767a:	05 24       	jz	$+12     	;abs 0x7686
    767c:	46 4e       	mov.b	r14,	r6	
    767e:	76 f0 80 ff 	and.b	#-128,	r6	;#0xff80
    7682:	cf 46 00 00 	mov.b	r6,	0(r15)	;0x0000(r15)
    7686:	1f 53       	inc	r15		
    7688:	3f 90 d7 36 	cmp	#14039,	r15	;#0x36d7
    768c:	f2 23       	jnz	$-26     	;abs 0x7672
    768e:	e9 3f       	jmp	$-44     	;abs 0x7662
    7690:	5f 49 03 00 	mov.b	3(r9),	r15	;0x0003(r9)
    7694:	48 48       	mov.b	r8,	r8	
    7696:	0e 48       	mov	r8,	r14	
    7698:	3e 50 f3 36 	add	#14067,	r14	;#0x36f3
    769c:	6d 4e       	mov.b	@r14,	r13	
    769e:	4c 4d       	mov.b	r13,	r12	
    76a0:	5c f3       	and.b	#1,	r12	;r3 As==01
    76a2:	38 50 ee 23 	add	#9198,	r8	;#0x23ee
    76a6:	4c 93       	tst.b	r12		
    76a8:	03 24       	jz	$+8      	;abs 0x76b0
    76aa:	6f 98       	cmp.b	@r8,	r15	
    76ac:	04 20       	jnz	$+10     	;abs 0x76b6
    76ae:	28 3c       	jmp	$+82     	;abs 0x7700
    76b0:	5d d3       	bis.b	#1,	r13	;r3 As==01
    76b2:	ce 4d 00 00 	mov.b	r13,	0(r14)	;0x0000(r14)
    76b6:	c8 4f 00 00 	mov.b	r15,	0(r8)	;0x0000(r8)
    76ba:	08 42       	mov	r2,	r8	
    76bc:	38 f2       	and	#8,	r8	;r2 As==11
    76be:	32 c2       	dint			
    76c0:	03 43       	nop			
    76c2:	5e 42 a2 23 	mov.b	&0x23a2,r14	
    76c6:	7e 90 03 00 	cmp.b	#3,	r14	;#0x0003
    76ca:	17 2c       	jc	$+48     	;abs 0x76fa
    76cc:	4f 4e       	mov.b	r14,	r15	
    76ce:	5f 52 51 24 	add.b	&0x2451,r15	
    76d2:	7f 90 03 00 	cmp.b	#3,	r15	;#0x0003
    76d6:	02 28       	jnc	$+6      	;abs 0x76dc
    76d8:	7f 50 fd ff 	add.b	#-3,	r15	;#0xfffd
    76dc:	4f 4f       	mov.b	r15,	r15	
    76de:	5f 02       	rlam	#1,	r15	
    76e0:	3f 50 88 1c 	add	#7304,	r15	;#0x1c88
    76e4:	27 4f       	mov	@r15,	r7	
    76e6:	8f 49 00 00 	mov	r9,	0(r15)	;0x0000(r15)
    76ea:	5e 53       	inc.b	r14		
    76ec:	c2 4e a2 23 	mov.b	r14,	&0x23a2	
    76f0:	7f 40 15 00 	mov.b	#21,	r15	;#0x0015
    76f4:	b0 12 f6 4e 	call	#0x4ef6	
    76f8:	09 47       	mov	r7,	r9	
    76fa:	08 93       	tst	r8		
    76fc:	01 24       	jz	$+4      	;abs 0x7700
    76fe:	32 d2       	eint			
    7700:	82 49 0e 34 	mov	r9,	&0x340e	
    7704:	a1 3c       	jmp	$+324    	;abs 0x7848
    7706:	4e 4f       	mov.b	r15,	r14	
    7708:	7e 53       	add.b	#-1,	r14	;r3 As==11
    770a:	7e 90 03 00 	cmp.b	#3,	r14	;#0x0003
    770e:	85 2c       	jc	$+268    	;abs 0x781a
    7710:	4e 4f       	mov.b	r15,	r14	
    7712:	6e 83       	decd.b	r14		
    7714:	6e 93       	cmp.b	#2,	r14	;r3 As==10
    7716:	4a 2c       	jc	$+150    	;abs 0x77ac
    7718:	5e 42 f2 36 	mov.b	&0x36f2,r14	
    771c:	5e 93       	cmp.b	#1,	r14	;r3 As==01
    771e:	13 20       	jnz	$+40     	;abs 0x7746
    7720:	c2 93 bc 22 	tst.b	&0x22bc	
    7724:	43 20       	jnz	$+136    	;abs 0x77ac
    7726:	b0 12 42 50 	call	#0x5042	
    772a:	f2 40 03 00 6a 20 	mov.b	#3,	&0x206a	;#0x0003
    7730:	d2 43 bc 22 	mov.b	#1,	&0x22bc	;r3 As==01
    7734:	1f 42 90 03 	mov	&0x0390,r15	
    7738:	3e 40 70 03 	mov	#880,	r14	;#0x0370
    773c:	b0 12 10 64 	call	#0x6410	
    7740:	e2 43 f2 36 	mov.b	#2,	&0x36f2	;r3 As==10
    7744:	56 3c       	jmp	$+174    	;abs 0x77f2
    7746:	7f 90 03 00 	cmp.b	#3,	r15	;#0x0003
    774a:	30 20       	jnz	$+98     	;abs 0x77ac
    774c:	7e 90 03 00 	cmp.b	#3,	r14	;#0x0003
    7750:	2d 20       	jnz	$+92     	;abs 0x77ac
    7752:	b0 12 78 6f 	call	#0x6f78	
    7756:	4f 93       	tst.b	r15		
    7758:	29 24       	jz	$+84     	;abs 0x77ac
    775a:	7f 40 0f 00 	mov.b	#15,	r15	;#0x000f
    775e:	b0 12 e6 5e 	call	#0x5ee6	
    7762:	0f 42       	mov	r2,	r15	
    7764:	32 c2       	dint			
    7766:	03 43       	nop			
    7768:	b2 f0 ef ff 82 03 	and	#-17,	&0x0382	;#0xffef
    776e:	f2 d0 80 ff 0a 02 	bis.b	#-128,	&0x020a	;#0xff80
    7774:	92 c3 82 03 	bic	#1,	&0x0382	;r3 As==01
    7778:	a2 c3 82 03 	bic	#2,	&0x0382	;r3 As==10
    777c:	b2 40 00 41 82 03 	mov	#16640,	&0x0382	;#0x4100
    7782:	b2 d0 10 00 82 03 	bis	#16,	&0x0382	;#0x0010
    7788:	3f f2       	and	#8,	r15	;r2 As==11
    778a:	01 24       	jz	$+4      	;abs 0x778e
    778c:	32 d2       	eint			
    778e:	5e 42 f9 23 	mov.b	&0x23f9,r14	
    7792:	7e d0 60 00 	bis.b	#96,	r14	;#0x0060
    7796:	7f 42       	mov.b	#8,	r15	;r2 As==11
    7798:	b0 12 18 5f 	call	#0x5f18	
    779c:	7e 40 06 00 	mov.b	#6,	r14	;#0x0006
    77a0:	6f 43       	mov.b	#2,	r15	;r3 As==10
    77a2:	b0 12 18 5f 	call	#0x5f18	
    77a6:	e2 42 f2 36 	mov.b	#4,	&0x36f2	;r2 As==10
    77aa:	23 3c       	jmp	$+72     	;abs 0x77f2
    77ac:	5f 42 9c 23 	mov.b	&0x239c,r15	
    77b0:	7f 53       	add.b	#-1,	r15	;r3 As==11
    77b2:	6f 93       	cmp.b	#2,	r15	;r3 As==10
    77b4:	1e 2c       	jc	$+62     	;abs 0x77f2
    77b6:	f2 90 05 00 f2 36 	cmp.b	#5,	&0x36f2	;#0x0005
    77bc:	1a 20       	jnz	$+54     	;abs 0x77f2
    77be:	b0 12 78 6f 	call	#0x6f78	
    77c2:	4f 93       	tst.b	r15		
    77c4:	16 24       	jz	$+46     	;abs 0x77f2
    77c6:	7e 40 03 00 	mov.b	#3,	r14	;#0x0003
    77ca:	6f 43       	mov.b	#2,	r15	;r3 As==10
    77cc:	b0 12 18 5f 	call	#0x5f18	
    77d0:	0f 42       	mov	r2,	r15	
    77d2:	32 c2       	dint			
    77d4:	03 43       	nop			
    77d6:	b2 f0 ef ff 82 03 	and	#-17,	&0x0382	;#0xffef
    77dc:	f2 f0 7f 00 0a 02 	and.b	#127,	&0x020a	;#0x007f
    77e2:	3f f2       	and	#8,	r15	;r2 As==11
    77e4:	01 24       	jz	$+4      	;abs 0x77e8
    77e6:	32 d2       	eint			
    77e8:	c2 43 78 1c 	mov.b	#0,	&0x1c78	;r3 As==00
    77ec:	f2 40 03 00 f2 36 	mov.b	#3,	&0x36f2	;#0x0003
    77f2:	5f 42 9c 23 	mov.b	&0x239c,r15	
    77f6:	5f 93       	cmp.b	#1,	r15	;r3 As==01
    77f8:	09 20       	jnz	$+20     	;abs 0x780c
    77fa:	f2 90 03 00 f2 36 	cmp.b	#3,	&0x36f2	;#0x0003
    7800:	23 20       	jnz	$+72     	;abs 0x7848
    7802:	b0 12 90 52 	call	#0x5290	
    7806:	d2 43 f2 36 	mov.b	#1,	&0x36f2	;r3 As==01
    780a:	1c 3c       	jmp	$+58     	;abs 0x7844
    780c:	6f 93       	cmp.b	#2,	r15	;r3 As==10
    780e:	1c 20       	jnz	$+58     	;abs 0x7848
    7810:	f2 90 03 00 f2 36 	cmp.b	#3,	&0x36f2	;#0x0003
    7816:	18 20       	jnz	$+50     	;abs 0x7848
    7818:	15 3c       	jmp	$+44     	;abs 0x7844
    781a:	7f 90 07 00 	cmp.b	#7,	r15	;#0x0007
    781e:	14 20       	jnz	$+42     	;abs 0x7848
    7820:	b0 12 78 6f 	call	#0x6f78	
    7824:	4f 93       	tst.b	r15		
    7826:	10 24       	jz	$+34     	;abs 0x7848
    7828:	5e 42 f9 23 	mov.b	&0x23f9,r14	
    782c:	7e d0 60 00 	bis.b	#96,	r14	;#0x0060
    7830:	7f 42       	mov.b	#8,	r15	;r2 As==11
    7832:	b0 12 18 5f 	call	#0x5f18	
    7836:	f2 90 05 00 f2 36 	cmp.b	#5,	&0x36f2	;#0x0005
    783c:	03 20       	jnz	$+8      	;abs 0x7844
    783e:	e2 42 f2 36 	mov.b	#4,	&0x36f2	;r2 As==10
    7842:	02 3c       	jmp	$+6      	;abs 0x7848
    7844:	f2 42 9c 23 	mov.b	#8,	&0x239c	;r2 As==11
    7848:	f2 92 9c 23 	cmp.b	#8,	&0x239c	;r2 As==11
    784c:	06 20       	jnz	$+14     	;abs 0x785a
    784e:	c2 43 9c 23 	mov.b	#0,	&0x239c	;r3 As==00
    7852:	7f 40 13 00 	mov.b	#19,	r15	;#0x0013
    7856:	b0 12 f6 4e 	call	#0x4ef6	
    785a:	c2 93 9c 23 	tst.b	&0x239c	
    785e:	17 20       	jnz	$+48     	;abs 0x788e
    7860:	f2 90 05 00 f2 36 	cmp.b	#5,	&0x36f2	;#0x0005
    7866:	13 20       	jnz	$+40     	;abs 0x788e
    7868:	c2 93 78 1c 	tst.b	&0x1c78	
    786c:	10 20       	jnz	$+34     	;abs 0x788e
    786e:	c2 93 8e 1e 	tst.b	&0x1e8e	
    7872:	0d 20       	jnz	$+28     	;abs 0x788e
    7874:	c2 93 5e 1f 	tst.b	&0x1f5e	
    7878:	0a 20       	jnz	$+22     	;abs 0x788e
    787a:	c2 93 bc 22 	tst.b	&0x22bc	
    787e:	07 20       	jnz	$+16     	;abs 0x788e
    7880:	e2 93 5d 1f 	cmp.b	#2,	&0x1f5d	;r3 As==10
    7884:	04 20       	jnz	$+10     	;abs 0x788e
    7886:	d2 43 5d 1f 	mov.b	#1,	&0x1f5d	;r3 As==01
    788a:	b0 12 6c 4f 	call	#0x4f6c	
    788e:	c2 93 9c 23 	tst.b	&0x239c	
    7892:	04 20       	jnz	$+10     	;abs 0x789c
    7894:	7f 40 18 00 	mov.b	#24,	r15	;#0x0018
    7898:	b0 12 f6 4e 	call	#0x4ef6	
    789c:	e2 93 bc 22 	cmp.b	#2,	&0x22bc	;r3 As==10
    78a0:	78 20       	jnz	$+242    	;abs 0x7992
    78a2:	c2 43 bc 22 	mov.b	#0,	&0x22bc	;r3 As==00
    78a6:	5f 42 6a 20 	mov.b	&0x206a,r15	
    78aa:	6f 93       	cmp.b	#2,	r15	;r3 As==10
    78ac:	55 24       	jz	$+172    	;abs 0x7958
    78ae:	7f 90 03 00 	cmp.b	#3,	r15	;#0x0003
    78b2:	5d 24       	jz	$+188    	;abs 0x796e
    78b4:	5f 93       	cmp.b	#1,	r15	;r3 As==01
    78b6:	6d 20       	jnz	$+220    	;abs 0x7992
    78b8:	18 42 90 03 	mov	&0x0390,r8	
    78bc:	17 42 dc 20 	mov	&0x20dc,r7	
    78c0:	07 88       	sub	r8,	r7	
    78c2:	08 47       	mov	r7,	r8	
    78c4:	5f 42 5e 1f 	mov.b	&0x1f5e,r15	
    78c8:	7f 90 80 ff 	cmp.b	#-128,	r15	;#0xff80
    78cc:	06 20       	jnz	$+14     	;abs 0x78da
    78ce:	c2 43 5e 1f 	mov.b	#0,	&0x1f5e	;r3 As==00
    78d2:	e2 93 5d 1f 	cmp.b	#2,	&0x1f5d	;r3 As==10
    78d6:	5d 20       	jnz	$+188    	;abs 0x7992
    78d8:	3c 3c       	jmp	$+122    	;abs 0x7952
    78da:	4f 93       	tst.b	r15		
    78dc:	02 34       	jge	$+6      	;abs 0x78e2
    78de:	17 93       	cmp	#1,	r7	;r3 As==01
    78e0:	14 34       	jge	$+42     	;abs 0x790a
    78e2:	19 42 54 1f 	mov	&0x1f54,r9	
    78e6:	c2 93 8e 1e 	tst.b	&0x1e8e	
    78ea:	0f 20       	jnz	$+32     	;abs 0x790a
    78ec:	0f 49       	mov	r9,	r15	
    78ee:	b0 12 2e 70 	call	#0x702e	
    78f2:	0f 93       	tst	r15		
    78f4:	7a 20       	jnz	$+246    	;abs 0x79ea
    78f6:	d9 c3 44 00 	bic.b	#1,	68(r9)	;r3 As==01, 0x0044(r9)
    78fa:	d2 43 8e 1e 	mov.b	#1,	&0x1e8e	;r3 As==01
    78fe:	82 49 d8 36 	mov	r9,	&0x36d8	
    7902:	f2 40 03 00 5e 1f 	mov.b	#3,	&0x1f5e	;#0x0003
    7908:	44 3c       	jmp	$+138    	;abs 0x7992
    790a:	39 40 05 00 	mov	#5,	r9	;#0x0005
    790e:	5f 42 5e 1f 	mov.b	&0x1f5e,r15	
    7912:	0e 4f       	mov	r15,	r14	
    7914:	3e f0 7f 00 	and	#127,	r14	;#0x007f
    7918:	1e 93       	cmp	#1,	r14	;r3 As==01
    791a:	0c 20       	jnz	$+26     	;abs 0x7934
    791c:	7f f0 80 ff 	and.b	#-128,	r15	;#0xff80
    7920:	6f d3       	bis.b	#2,	r15	;r3 As==10
    7922:	c2 4f 5e 1f 	mov.b	r15,	&0x1f5e	
    7926:	3f 40 80 0c 	mov	#3200,	r15	;#0x0c80
    792a:	b0 12 ee 52 	call	#0x52ee	
    792e:	b0 12 56 64 	call	#0x6456	
    7932:	2f 3c       	jmp	$+96     	;abs 0x7992
    7934:	4f 93       	tst.b	r15		
    7936:	09 34       	jge	$+20     	;abs 0x794a
    7938:	18 93       	cmp	#1,	r8	;r3 As==01
    793a:	07 38       	jl	$+16     	;abs 0x794a
    793c:	f2 40 80 ff 5e 1f 	mov.b	#-128,	&0x1f5e	;#0xff80
    7942:	0f 48       	mov	r8,	r15	
    7944:	b0 12 56 64 	call	#0x6456	
    7948:	02 3c       	jmp	$+6      	;abs 0x794e
    794a:	c2 43 5e 1f 	mov.b	#0,	&0x1f5e	;r3 As==00
    794e:	82 49 20 33 	mov	r9,	&0x3320	
    7952:	d2 43 5d 1f 	mov.b	#1,	&0x1f5d	;r3 As==01
    7956:	08 3c       	jmp	$+18     	;abs 0x7968
    7958:	c2 43 8e 1e 	mov.b	#0,	&0x1e8e	;r3 As==00
    795c:	c2 43 5e 1f 	mov.b	#0,	&0x1f5e	;r3 As==00
    7960:	82 43 20 33 	mov	#0,	&0x3320	;r3 As==00
    7964:	e2 42 5d 1f 	mov.b	#4,	&0x1f5d	;r2 As==10
    7968:	b0 12 6c 4f 	call	#0x4f6c	
    796c:	12 3c       	jmp	$+38     	;abs 0x7992
    796e:	e2 93 f2 36 	cmp.b	#2,	&0x36f2	;r3 As==10
    7972:	04 20       	jnz	$+10     	;abs 0x797c
    7974:	f2 40 03 00 f2 36 	mov.b	#3,	&0x36f2	;#0x0003
    797a:	09 3c       	jmp	$+20     	;abs 0x798e
    797c:	f2 90 06 00 9c 23 	cmp.b	#6,	&0x239c	;#0x0006
    7982:	05 20       	jnz	$+12     	;abs 0x798e
    7984:	c2 43 9c 23 	mov.b	#0,	&0x239c	;r3 As==00
    7988:	5f 43       	mov.b	#1,	r15	;r3 As==01
    798a:	b0 12 e6 5e 	call	#0x5ee6	
    798e:	b0 12 f4 79 	call	#0x79f4	
    7992:	0f 42       	mov	r2,	r15	
    7994:	3f f2       	and	#8,	r15	;r2 As==11
    7996:	32 c2       	dint			
    7998:	03 43       	nop			
    799a:	d2 93 42 1f 	cmp.b	#1,	&0x1f42	;r3 As==01
    799e:	06 20       	jnz	$+14     	;abs 0x79ac
    79a0:	c2 43 42 1f 	mov.b	#0,	&0x1f42	;r3 As==00
    79a4:	0f 93       	tst	r15		
    79a6:	23 24       	jz	$+72     	;abs 0x79ee
    79a8:	32 d2       	eint			
    79aa:	21 3c       	jmp	$+68     	;abs 0x79ee
    79ac:	d2 43 42 1f 	mov.b	#1,	&0x1f42	;r3 As==01
    79b0:	0f 93       	tst	r15		
    79b2:	02 20       	jnz	$+6      	;abs 0x79b8
    79b4:	80 00 fe 71 	bra	#0x071fe	
    79b8:	32 d2       	eint			
    79ba:	80 00 fe 71 	bra	#0x071fe	
    79be:	1f 42 0e 34 	mov	&0x340e,r15	
    79c2:	ef c3 44 00 	bic.b	#2,	68(r15)	;r3 As==10, 0x0044(r15)
    79c6:	80 00 e8 72 	bra	#0x072e8	
    79ca:	c2 47 96 1e 	mov.b	r7,	&0x1e96	
    79ce:	4f 47       	mov.b	r7,	r15	
    79d0:	08 4f       	mov	r15,	r8	
    79d2:	58 02       	rlam	#1,	r8	
    79d4:	88 4e 20 24 	mov	r14,	9248(r8);0x2420(r8)
    79d8:	5c 53       	inc.b	r12		
    79da:	c2 4c c6 22 	mov.b	r12,	&0x22c6	
    79de:	cf 4c d2 36 	mov.b	r12,	14034(r15);0x36d2(r15)
    79e2:	cf 43 f3 36 	mov.b	#0,	14067(r15);r3 As==00, 0x36f3(r15)
    79e6:	80 00 52 76 	bra	#0x07652	
    79ea:	09 4f       	mov	r15,	r9	
    79ec:	90 3f       	jmp	$-222    	;abs 0x790e
    79ee:	21 53       	incd	r1		
    79f0:	74 17       	popm	#8,	r11	
    79f2:	30 41       	ret			

000079f4 <TaskletC__Tasklet__schedule>:
    79f4:	0f 42       	mov	r2,	r15	
    79f6:	3f f2       	and	#8,	r15	;r2 As==11
    79f8:	32 c2       	dint			
    79fa:	03 43       	nop			
    79fc:	5e 42 42 1f 	mov.b	&0x1f42,r14	
    7a00:	4e 93       	tst.b	r14		
    7a02:	08 24       	jz	$+18     	;abs 0x7a14
    7a04:	7e d0 80 ff 	bis.b	#-128,	r14	;#0xff80
    7a08:	c2 4e 42 1f 	mov.b	r14,	&0x1f42	
    7a0c:	0f 93       	tst	r15		
    7a0e:	09 24       	jz	$+20     	;abs 0x7a22
    7a10:	32 d2       	eint			
    7a12:	30 41       	ret			
    7a14:	d2 43 42 1f 	mov.b	#1,	&0x1f42	;r3 As==01
    7a18:	0f 93       	tst	r15		
    7a1a:	01 24       	jz	$+4      	;abs 0x7a1e
    7a1c:	32 d2       	eint			
    7a1e:	b0 12 fa 71 	call	#0x71fa	
    7a22:	30 41       	ret			

00007a24 <RF233DriverLayerP__SpiResource__granted>:
    7a24:	b0 12 1e 50 	call	#0x501e	
    7a28:	b0 12 30 50 	call	#0x5030	
    7a2c:	c2 93 f2 36 	tst.b	&0x36f2	
    7a30:	51 20       	jnz	$+164    	;abs 0x7ad4
    7a32:	3f 40 fe 01 	mov	#510,	r15	;#0x01fe
    7a36:	b0 12 46 52 	call	#0x5246	
    7a3a:	0f 42       	mov	r2,	r15	
    7a3c:	32 c2       	dint			
    7a3e:	03 43       	nop			
    7a40:	f2 f0 7f 00 23 02 	and.b	#127,	&0x0223	;#0x007f
    7a46:	3f f2       	and	#8,	r15	;r2 As==11
    7a48:	01 24       	jz	$+4      	;abs 0x7a4c
    7a4a:	32 d2       	eint			
    7a4c:	b0 12 42 50 	call	#0x5042	
    7a50:	3f 40 06 00 	mov	#6,	r15	;#0x0006
    7a54:	b0 12 46 52 	call	#0x5246	
    7a58:	b0 12 54 50 	call	#0x5054	
    7a5c:	4e 43       	clr.b	r14		
    7a5e:	7f 40 03 00 	mov.b	#3,	r15	;#0x0003
    7a62:	b0 12 18 5f 	call	#0x5f18	
    7a66:	7e 42       	mov.b	#8,	r14	;r2 As==11
    7a68:	6f 43       	mov.b	#2,	r15	;r3 As==10
    7a6a:	b0 12 18 5f 	call	#0x5f18	
    7a6e:	3f 40 fe 01 	mov	#510,	r15	;#0x01fe
    7a72:	b0 12 46 52 	call	#0x5246	
    7a76:	7e 40 4d 00 	mov.b	#77,	r14	;#0x004d
    7a7a:	7f 40 0e 00 	mov.b	#14,	r15	;#0x000e
    7a7e:	b0 12 18 5f 	call	#0x5f18	
    7a82:	7e 40 07 00 	mov.b	#7,	r14	;#0x0007
    7a86:	7f 40 09 00 	mov.b	#9,	r15	;#0x0009
    7a8a:	b0 12 18 5f 	call	#0x5f18	
    7a8e:	7e 40 20 00 	mov.b	#32,	r14	;#0x0020
    7a92:	6f 42       	mov.b	#4,	r15	;r2 As==10
    7a94:	b0 12 18 5f 	call	#0x5f18	
    7a98:	7e 40 0f 00 	mov.b	#15,	r14	;#0x000f
    7a9c:	7f 40 05 00 	mov.b	#5,	r15	;#0x0005
    7aa0:	b0 12 18 5f 	call	#0x5f18	
    7aa4:	f2 40 0f 00 53 24 	mov.b	#15,	&0x2453	;#0x000f
    7aaa:	f2 40 0b 00 f9 23 	mov.b	#11,	&0x23f9	;#0x000b
    7ab0:	7e 40 6b 00 	mov.b	#107,	r14	;#0x006b
    7ab4:	7f 42       	mov.b	#8,	r15	;r2 As==11
    7ab6:	b0 12 18 5f 	call	#0x5f18	
    7aba:	7e 40 03 00 	mov.b	#3,	r14	;#0x0003
    7abe:	7f 40 15 00 	mov.b	#21,	r15	;#0x0015
    7ac2:	b0 12 18 5f 	call	#0x5f18	
    7ac6:	b0 12 90 52 	call	#0x5290	
    7aca:	d2 43 f2 36 	mov.b	#1,	&0x36f2	;r3 As==01
    7ace:	b0 12 da 5c 	call	#0x5cda	
    7ad2:	30 41       	ret			
    7ad4:	b0 12 f4 79 	call	#0x79f4	
    7ad8:	30 41       	ret			

00007ada <Msp430TimerCapComP__12__Event__fired>:
    7ada:	1f 42 82 03 	mov	&0x0382,r15	
    7ade:	8f 10       	swpb	r15		
    7ae0:	5f f3       	and.b	#1,	r15	;r3 As==01
    7ae2:	0b 24       	jz	$+24     	;abs 0x7afa
    7ae4:	92 42 92 03 c8 22 	mov	&0x0392,&0x22c8	
    7aea:	92 c3 82 03 	bic	#1,	&0x0382	;r3 As==01
    7aee:	a2 c3 82 03 	bic	#2,	&0x0382	;r3 As==10
    7af2:	d2 43 78 1c 	mov.b	#1,	&0x1c78	;r3 As==01
    7af6:	b0 12 f4 79 	call	#0x79f4	
    7afa:	30 41       	ret			

00007afc <Msp430TimerCapComP__13__Event__fired>:
    7afc:	1f 42 84 03 	mov	&0x0384,r15	
    7b00:	8f 10       	swpb	r15		
    7b02:	5f f3       	and.b	#1,	r15	;r3 As==01
    7b04:	03 24       	jz	$+8      	;abs 0x7b0c
    7b06:	1f 42 94 03 	mov	&0x0394,r15	
    7b0a:	30 41       	ret			
    7b0c:	b2 f0 ef ff 84 03 	and	#-17,	&0x0384	;#0xffef
    7b12:	d2 93 bc 22 	cmp.b	#1,	&0x22bc	;r3 As==01
    7b16:	02 20       	jnz	$+6      	;abs 0x7b1c
    7b18:	e2 43 bc 22 	mov.b	#2,	&0x22bc	;r3 As==10
    7b1c:	b0 12 f4 79 	call	#0x79f4	
    7b20:	30 41       	ret			

00007b22 <TaskletC__Tasklet__resume>:
    7b22:	0f 42       	mov	r2,	r15	
    7b24:	3f f2       	and	#8,	r15	;r2 As==11
    7b26:	32 c2       	dint			
    7b28:	03 43       	nop			
    7b2a:	5e 42 42 1f 	mov.b	&0x1f42,r14	
    7b2e:	7e 53       	add.b	#-1,	r14	;r3 As==11
    7b30:	c2 4e 42 1f 	mov.b	r14,	&0x1f42	
    7b34:	7e 90 80 ff 	cmp.b	#-128,	r14	;#0xff80
    7b38:	04 24       	jz	$+10     	;abs 0x7b42
    7b3a:	0f 93       	tst	r15		
    7b3c:	09 24       	jz	$+20     	;abs 0x7b50
    7b3e:	32 d2       	eint			
    7b40:	30 41       	ret			
    7b42:	d2 43 42 1f 	mov.b	#1,	&0x1f42	;r3 As==01
    7b46:	0f 93       	tst	r15		
    7b48:	01 24       	jz	$+4      	;abs 0x7b4c
    7b4a:	32 d2       	eint			
    7b4c:	b0 12 fa 71 	call	#0x71fa	
    7b50:	30 41       	ret			

00007b52 <ArbiterP__1__Resource__release>:
    7b52:	1b 15       	pushm	#2,	r11	
    7b54:	0b 42       	mov	r2,	r11	
    7b56:	3b f2       	and	#8,	r11	;r2 As==11
    7b58:	32 c2       	dint			
    7b5a:	03 43       	nop			
    7b5c:	e2 92 da 20 	cmp.b	#4,	&0x20da	;r2 As==10
    7b60:	1e 20       	jnz	$+62     	;abs 0x7b9e
    7b62:	5a 42 33 1c 	mov.b	&0x1c33,r10	
    7b66:	4a 9f       	cmp.b	r15,	r10	
    7b68:	1a 20       	jnz	$+54     	;abs 0x7b9e
    7b6a:	f2 93 35 1c 	cmp.b	#-1,	&0x1c35	;r3 As==11
    7b6e:	05 20       	jnz	$+12     	;abs 0x7b7a
    7b70:	e2 43 33 1c 	mov.b	#2,	&0x1c33	;r3 As==10
    7b74:	c2 43 da 20 	mov.b	#0,	&0x20da	;r3 As==00
    7b78:	0c 3c       	jmp	$+26     	;abs 0x7b92
    7b7a:	b0 12 f6 4c 	call	#0x4cf6	
    7b7e:	c2 4f 32 1c 	mov.b	r15,	&0x1c32	
    7b82:	f2 43 33 1c 	mov.b	#-1,	&0x1c33	;r3 As==11
    7b86:	e2 43 da 20 	mov.b	#2,	&0x20da	;r3 As==10
    7b8a:	5f 43       	mov.b	#1,	r15	;r3 As==01
    7b8c:	b0 12 f6 4e 	call	#0x4ef6	
    7b90:	4f 4a       	mov.b	r10,	r15	
    7b92:	b0 12 7e 51 	call	#0x517e	
    7b96:	0b 93       	tst	r11		
    7b98:	06 24       	jz	$+14     	;abs 0x7ba6
    7b9a:	32 d2       	eint			
    7b9c:	04 3c       	jmp	$+10     	;abs 0x7ba6
    7b9e:	0b 93       	tst	r11		
    7ba0:	04 24       	jz	$+10     	;abs 0x7baa
    7ba2:	32 d2       	eint			
    7ba4:	02 3c       	jmp	$+6      	;abs 0x7baa
    7ba6:	0f 43       	clr	r15		
    7ba8:	01 3c       	jmp	$+4      	;abs 0x7bac
    7baa:	1f 43       	mov	#1,	r15	;r3 As==01
    7bac:	1a 17       	popm	#2,	r11	
    7bae:	30 41       	ret			

00007bb0 <ArbiterP__4__Resource__release>:
    7bb0:	0b 12       	push	r11		
    7bb2:	0b 42       	mov	r2,	r11	
    7bb4:	3b f2       	and	#8,	r11	;r2 As==11
    7bb6:	32 c2       	dint			
    7bb8:	03 43       	nop			
    7bba:	e2 92 97 1c 	cmp.b	#4,	&0x1c97	;r2 As==10
    7bbe:	1b 20       	jnz	$+56     	;abs 0x7bf6
    7bc0:	c2 9f 0e 1c 	cmp.b	r15,	&0x1c0e	
    7bc4:	18 20       	jnz	$+50     	;abs 0x7bf6
    7bc6:	f2 93 10 1c 	cmp.b	#-1,	&0x1c10	;r3 As==11
    7bca:	05 20       	jnz	$+12     	;abs 0x7bd6
    7bcc:	e2 43 0e 1c 	mov.b	#2,	&0x1c0e	;r3 As==10
    7bd0:	c2 43 97 1c 	mov.b	#0,	&0x1c97	;r3 As==00
    7bd4:	0c 3c       	jmp	$+26     	;abs 0x7bee
    7bd6:	b0 12 d4 4c 	call	#0x4cd4	
    7bda:	c2 4f 0d 1c 	mov.b	r15,	&0x1c0d	
    7bde:	f2 43 0e 1c 	mov.b	#-1,	&0x1c0e	;r3 As==11
    7be2:	e2 43 97 1c 	mov.b	#2,	&0x1c97	;r3 As==10
    7be6:	7f 40 1c 00 	mov.b	#28,	r15	;#0x001c
    7bea:	b0 12 f6 4e 	call	#0x4ef6	
    7bee:	0b 93       	tst	r11		
    7bf0:	06 24       	jz	$+14     	;abs 0x7bfe
    7bf2:	32 d2       	eint			
    7bf4:	04 3c       	jmp	$+10     	;abs 0x7bfe
    7bf6:	0b 93       	tst	r11		
    7bf8:	04 24       	jz	$+10     	;abs 0x7c02
    7bfa:	32 d2       	eint			
    7bfc:	02 3c       	jmp	$+6      	;abs 0x7c02
    7bfe:	0f 43       	clr	r15		
    7c00:	01 3c       	jmp	$+4      	;abs 0x7c04
    7c02:	1f 43       	mov	#1,	r15	;r3 As==01
    7c04:	3b 41       	pop	r11		
    7c06:	30 41       	ret			

00007c08 <BlockStorageP__endRequest>:
    7c08:	5b 15       	pushm	#6,	r11	
    7c0a:	0a 4f       	mov	r15,	r10	
    7c0c:	07 4e       	mov	r14,	r7	
    7c0e:	59 42 0b 1c 	mov.b	&0x1c0b,r9	
    7c12:	4b 49       	mov.b	r9,	r11	
    7c14:	0e 4b       	mov	r11,	r14	
    7c16:	5e 06       	rlam	#2,	r14	
    7c18:	0f 4b       	mov	r11,	r15	
    7c1a:	5f 0e       	rlam	#4,	r15	
    7c1c:	0f 8e       	sub	r14,	r15	
    7c1e:	3f 50 c4 20 	add	#8388,	r15	;#0x20c4
    7c22:	68 4f       	mov.b	@r15,	r8	
    7c24:	f2 43 0b 1c 	mov.b	#-1,	&0x1c0b	;r3 As==11
    7c28:	cf 43 00 00 	mov.b	#0,	0(r15)	;r3 As==00, 0x0000(r15)
    7c2c:	49 93       	tst.b	r9		
    7c2e:	03 20       	jnz	$+8      	;abs 0x7c36
    7c30:	5f 43       	mov.b	#1,	r15	;r3 As==01
    7c32:	b0 12 b0 7b 	call	#0x7bb0	
    7c36:	78 90 03 00 	cmp.b	#3,	r8	;#0x0003
    7c3a:	02 20       	jnz	$+6      	;abs 0x7c40
    7c3c:	80 00 c4 7e 	bra	#0x07ec4	
    7c40:	68 92       	cmp.b	#4,	r8	;r2 As==10
    7c42:	05 2c       	jc	$+12     	;abs 0x7c4e
    7c44:	58 93       	cmp.b	#1,	r8	;r3 As==01
    7c46:	02 24       	jz	$+6      	;abs 0x7c4c
    7c48:	80 00 c8 7e 	bra	#0x07ec8	
    7c4c:	5a 3c       	jmp	$+182    	;abs 0x7d02
    7c4e:	68 92       	cmp.b	#4,	r8	;r2 As==10
    7c50:	06 24       	jz	$+14     	;abs 0x7c5e
    7c52:	78 90 05 00 	cmp.b	#5,	r8	;#0x0005
    7c56:	02 24       	jz	$+6      	;abs 0x7c5c
    7c58:	80 00 c8 7e 	bra	#0x07ec8	
    7c5c:	79 3c       	jmp	$+244    	;abs 0x7d50
    7c5e:	1d 42 d8 1e 	mov	&0x1ed8,r13	
    7c62:	1e 42 da 1e 	mov	&0x1eda,r14	
    7c66:	0c 4b       	mov	r11,	r12	
    7c68:	5c 06       	rlam	#2,	r12	
    7c6a:	0f 4b       	mov	r11,	r15	
    7c6c:	5f 0e       	rlam	#4,	r15	
    7c6e:	0f 8c       	sub	r12,	r15	
    7c70:	3f 50 c4 20 	add	#8388,	r15	;#0x20c4
    7c74:	1f 4f 02 00 	mov	2(r15),	r15	;0x0002(r15)
    7c78:	49 93       	tst.b	r9		
    7c7a:	02 24       	jz	$+6      	;abs 0x7c80
    7c7c:	80 00 c8 7e 	bra	#0x07ec8	
    7c80:	09 4b       	mov	r11,	r9	
    7c82:	59 02       	rlam	#1,	r9	
    7c84:	0c 49       	mov	r9,	r12	
    7c86:	3c 50 f4 23 	add	#9204,	r12	;#0x23f4
    7c8a:	68 4c       	mov.b	@r12,	r8	
    7c8c:	78 f0 07 00 	and.b	#7,	r8	;#0x0007
    7c90:	58 93       	cmp.b	#1,	r8	;r3 As==01
    7c92:	32 20       	jnz	$+102    	;abs 0x7cf8
    7c94:	0a 93       	tst	r10		
    7c96:	05 24       	jz	$+12     	;abs 0x7ca2
    7c98:	fc f0 f8 ff 00 00 	and.b	#-8,	0(r12)	;#0xfff8, 0x0000(r12)
    7c9e:	80 00 c8 7e 	bra	#0x07ec8	
    7ca2:	4f 43       	clr.b	r15		
    7ca4:	b0 12 ac 4b 	call	#0x4bac	
    7ca8:	5b 0a       	rlam	#3,	r11	
    7caa:	0f 93       	tst	r15		
    7cac:	0e 20       	jnz	$+30     	;abs 0x7cca
    7cae:	d2 d3 71 1e 	bis.b	#1,	&0x1e71	;r3 As==01
    7cb2:	03 12       	push	#0		;r3 As==00
    7cb4:	30 12 06 00 	push	#6		;#0x0006
    7cb8:	0b 89       	sub	r9,	r11	
    7cba:	3b 50 6b 1f 	add	#8043,	r11	;#0x1f6b
    7cbe:	0b 12       	push	r11		
    7cc0:	0c 43       	clr	r12		
    7cc2:	0d 43       	clr	r13		
    7cc4:	4e 43       	clr.b	r14		
    7cc6:	6f 42       	mov.b	#4,	r15	;r2 As==10
    7cc8:	36 3c       	jmp	$+110    	;abs 0x7d36
    7cca:	0b 89       	sub	r9,	r11	
    7ccc:	2b 53       	incd	r11		
    7cce:	0f 4b       	mov	r11,	r15	
    7cd0:	3f 50 6b 1f 	add	#8043,	r15	;#0x1f6b
    7cd4:	b0 12 3a 4b 	call	#0x4b3a	
    7cd8:	09 4e       	mov	r14,	r9	
    7cda:	0a 4f       	mov	r15,	r10	
    7cdc:	0f 4b       	mov	r11,	r15	
    7cde:	3f 50 70 23 	add	#9072,	r15	;#0x2370
    7ce2:	b0 12 3a 4b 	call	#0x4b3a	
    7ce6:	5d 43       	mov.b	#1,	r13	;r3 As==01
    7ce8:	0f 9a       	cmp	r10,	r15	
    7cea:	04 28       	jnc	$+10     	;abs 0x7cf4
    7cec:	02 20       	jnz	$+6      	;abs 0x7cf2
    7cee:	0e 99       	cmp	r9,	r14	
    7cf0:	01 28       	jnc	$+4      	;abs 0x7cf4
    7cf2:	4d 43       	clr.b	r13		
    7cf4:	4e 4d       	mov.b	r13,	r14	
    7cf6:	8f 3c       	jmp	$+288    	;abs 0x7e16
    7cf8:	0c 4a       	mov	r10,	r12	
    7cfa:	b0 12 d6 6b 	call	#0x6bd6	
    7cfe:	80 00 c8 7e 	bra	#0x07ec8	
    7d02:	49 93       	tst.b	r9		
    7d04:	02 24       	jz	$+6      	;abs 0x7d0a
    7d06:	80 00 c8 7e 	bra	#0x07ec8	
    7d0a:	5b 02       	rlam	#1,	r11	
    7d0c:	fb b2 f4 23 	bit.b	#8,	9204(r11);r2 As==11, 0x23f4(r11)
    7d10:	0f 43       	clr	r15		
    7d12:	0f 6f       	rlc	r15		
    7d14:	4f 93       	tst.b	r15		
    7d16:	14 24       	jz	$+42     	;abs 0x7d40
    7d18:	0a 93       	tst	r10		
    7d1a:	05 24       	jz	$+12     	;abs 0x7d26
    7d1c:	0e 4a       	mov	r10,	r14	
    7d1e:	4f 43       	clr.b	r15		
    7d20:	b0 12 b6 6c 	call	#0x6cb6	
    7d24:	d1 3c       	jmp	$+420    	;abs 0x7ec8
    7d26:	03 12       	push	#0		;r3 As==00
    7d28:	03 12       	push	#0		;r3 As==00
    7d2a:	03 12       	push	#0		;r3 As==00
    7d2c:	0c 43       	clr	r12		
    7d2e:	0d 43       	clr	r13		
    7d30:	4e 43       	clr.b	r14		
    7d32:	7f 40 03 00 	mov.b	#3,	r15	;#0x0003
    7d36:	b0 12 02 55 	call	#0x5502	
    7d3a:	31 50 06 00 	add	#6,	r1	;#0x0006
    7d3e:	c4 3c       	jmp	$+394    	;abs 0x7ec8
    7d40:	4f 43       	clr.b	r15		
    7d42:	b0 12 9c 6c 	call	#0x6c9c	
    7d46:	0a 93       	tst	r10		
    7d48:	bf 20       	jnz	$+384    	;abs 0x7ec8
    7d4a:	b0 12 ee 6c 	call	#0x6cee	
    7d4e:	bc 3c       	jmp	$+378    	;abs 0x7ec8
    7d50:	49 93       	tst.b	r9		
    7d52:	ba 20       	jnz	$+374    	;abs 0x7ec8
    7d54:	08 4b       	mov	r11,	r8	
    7d56:	58 02       	rlam	#1,	r8	
    7d58:	5f 48 f4 23 	mov.b	9204(r8),r15	;0x23f4(r8)
    7d5c:	7f f0 07 00 	and.b	#7,	r15	;#0x0007
    7d60:	5f 93       	cmp.b	#1,	r15	;r3 As==01
    7d62:	96 20       	jnz	$+302    	;abs 0x7e90
    7d64:	4f 43       	clr.b	r15		
    7d66:	b0 12 ac 4b 	call	#0x4bac	
    7d6a:	06 4f       	mov	r15,	r6	
    7d6c:	49 4f       	mov.b	r15,	r9	
    7d6e:	0a 93       	tst	r10		
    7d70:	31 20       	jnz	$+100    	;abs 0x7dd4
    7d72:	0a 4b       	mov	r11,	r10	
    7d74:	5a 0a       	rlam	#3,	r10	
    7d76:	0a 88       	sub	r8,	r10	
    7d78:	49 93       	tst.b	r9		
    7d7a:	0b 24       	jz	$+24     	;abs 0x7d92
    7d7c:	0f 4a       	mov	r10,	r15	
    7d7e:	3f 50 6b 1f 	add	#8043,	r15	;#0x1f6b
    7d82:	6d 4f       	mov.b	@r15,	r13	
    7d84:	8d 10       	swpb	r13		
    7d86:	5f 4f 01 00 	mov.b	1(r15),	r15	;0x0001(r15)
    7d8a:	0d df       	bis	r15,	r13	
    7d8c:	07 9d       	cmp	r13,	r7	
    7d8e:	22 20       	jnz	$+70     	;abs 0x7dd4
    7d90:	0a 3c       	jmp	$+22     	;abs 0x7da6
    7d92:	3a 50 70 23 	add	#9072,	r10	;#0x2370
    7d96:	6d 4a       	mov.b	@r10,	r13	
    7d98:	8d 10       	swpb	r13		
    7d9a:	5f 4a 01 00 	mov.b	1(r10),	r15	;0x0001(r10)
    7d9e:	0d df       	bis	r15,	r13	
    7da0:	07 9d       	cmp	r13,	r7	
    7da2:	18 20       	jnz	$+50     	;abs 0x7dd4
    7da4:	0d 3c       	jmp	$+28     	;abs 0x7dc0
    7da6:	2a 53       	incd	r10		
    7da8:	0f 4a       	mov	r10,	r15	
    7daa:	3f 50 6b 1f 	add	#8043,	r15	;#0x1f6b
    7dae:	b0 12 3a 4b 	call	#0x4b3a	
    7db2:	0d 4e       	mov	r14,	r13	
    7db4:	0e 4f       	mov	r15,	r14	
    7db6:	0f 4a       	mov	r10,	r15	
    7db8:	3f 50 70 23 	add	#9072,	r15	;#0x2370
    7dbc:	b0 12 0e 4b 	call	#0x4b0e	
    7dc0:	5b 02       	rlam	#1,	r11	
    7dc2:	5f 4b f4 23 	mov.b	9204(r11),r15	;0x23f4(r11)
    7dc6:	7f f0 f8 ff 	and.b	#-8,	r15	;#0xfff8
    7dca:	7f d0 03 00 	bis.b	#3,	r15	;#0x0003
    7dce:	cb 4f f4 23 	mov.b	r15,	9204(r11);0x23f4(r11)
    7dd2:	39 3c       	jmp	$+116    	;abs 0x7e46
    7dd4:	0f 4b       	mov	r11,	r15	
    7dd6:	5f 02       	rlam	#1,	r15	
    7dd8:	0a 4b       	mov	r11,	r10	
    7dda:	5a 0a       	rlam	#3,	r10	
    7ddc:	0a 8f       	sub	r15,	r10	
    7dde:	2a 53       	incd	r10		
    7de0:	0f 4a       	mov	r10,	r15	
    7de2:	3f 50 6b 1f 	add	#8043,	r15	;#0x1f6b
    7de6:	b0 12 3a 4b 	call	#0x4b3a	
    7dea:	07 4e       	mov	r14,	r7	
    7dec:	08 4f       	mov	r15,	r8	
    7dee:	3a 50 70 23 	add	#9072,	r10	;#0x2370
    7df2:	0f 4a       	mov	r10,	r15	
    7df4:	b0 12 3a 4b 	call	#0x4b3a	
    7df8:	1d 43       	mov	#1,	r13	;r3 As==01
    7dfa:	0f 98       	cmp	r8,	r15	
    7dfc:	04 28       	jnc	$+10     	;abs 0x7e06
    7dfe:	02 20       	jnz	$+6      	;abs 0x7e04
    7e00:	0e 97       	cmp	r7,	r14	
    7e02:	01 28       	jnc	$+4      	;abs 0x7e06
    7e04:	0d 43       	clr	r13		
    7e06:	36 f0 ff 00 	and	#255,	r6	;#0x00ff
    7e0a:	0d 96       	cmp	r6,	r13	
    7e0c:	0b 20       	jnz	$+24     	;abs 0x7e24
    7e0e:	5e 43       	mov.b	#1,	r14	;r3 As==01
    7e10:	49 93       	tst.b	r9		
    7e12:	01 24       	jz	$+4      	;abs 0x7e16
    7e14:	4e 43       	clr.b	r14		
    7e16:	4f 43       	clr.b	r15		
    7e18:	b0 12 6c 6c 	call	#0x6c6c	
    7e1c:	4f 43       	clr.b	r15		
    7e1e:	b0 12 c4 61 	call	#0x61c4	
    7e22:	52 3c       	jmp	$+166    	;abs 0x7ec8
    7e24:	5b 02       	rlam	#1,	r11	
    7e26:	5f 4b f4 23 	mov.b	9204(r11),r15	;0x23f4(r11)
    7e2a:	7f f0 f8 ff 	and.b	#-8,	r15	;#0xfff8
    7e2e:	7f d0 05 00 	bis.b	#5,	r15	;#0x0005
    7e32:	cb 4f f4 23 	mov.b	r15,	9204(r11);0x23f4(r11)
    7e36:	ca 43 03 00 	mov.b	#0,	3(r10)	;r3 As==00, 0x0003(r10)
    7e3a:	ca 43 02 00 	mov.b	#0,	2(r10)	;r3 As==00, 0x0002(r10)
    7e3e:	ca 43 01 00 	mov.b	#0,	1(r10)	;r3 As==00, 0x0001(r10)
    7e42:	ca 43 00 00 	mov.b	#0,	0(r10)	;r3 As==00, 0x0000(r10)
    7e46:	5f 42 f4 23 	mov.b	&0x23f4,r15	
    7e4a:	7f f0 07 00 	and.b	#7,	r15	;#0x0007
    7e4e:	7f 90 05 00 	cmp.b	#5,	r15	;#0x0005
    7e52:	13 24       	jz	$+40     	;abs 0x7e7a
    7e54:	4f 4f       	mov.b	r15,	r15	
    7e56:	3f 90 03 00 	cmp	#3,	r15	;#0x0003
    7e5a:	17 38       	jl	$+48     	;abs 0x7e8a
    7e5c:	03 12       	push	#0		;r3 As==00
    7e5e:	30 12 0c 00 	push	#12		;#0x000c
    7e62:	30 12 40 24 	push	#9280		;#0x2440
    7e66:	3c 40 06 00 	mov	#6,	r12	;#0x0006
    7e6a:	0d 43       	clr	r13		
    7e6c:	4e 43       	clr.b	r14		
    7e6e:	6f 42       	mov.b	#4,	r15	;r2 As==10
    7e70:	b0 12 02 55 	call	#0x5502	
    7e74:	31 50 06 00 	add	#6,	r1	;#0x0006
    7e78:	08 3c       	jmp	$+18     	;abs 0x7e8a
    7e7a:	b0 12 b0 51 	call	#0x51b0	
    7e7e:	b0 12 ee 6c 	call	#0x6cee	
    7e82:	0f 93       	tst	r15		
    7e84:	02 20       	jnz	$+6      	;abs 0x7e8a
    7e86:	b0 12 c2 51 	call	#0x51c2	
    7e8a:	c2 43 8e 1c 	mov.b	#0,	&0x1c8e	;r3 As==00
    7e8e:	1c 3c       	jmp	$+58     	;abs 0x7ec8
    7e90:	7f 90 03 00 	cmp.b	#3,	r15	;#0x0003
    7e94:	03 20       	jnz	$+8      	;abs 0x7e9c
    7e96:	b0 12 68 50 	call	#0x5068	
    7e9a:	16 3c       	jmp	$+46     	;abs 0x7ec8
    7e9c:	0a 93       	tst	r10		
    7e9e:	3e 23       	jnz	$-386    	;abs 0x7d1c
    7ea0:	5b 0a       	rlam	#3,	r11	
    7ea2:	0b 88       	sub	r8,	r11	
    7ea4:	3b 50 70 23 	add	#9072,	r11	;#0x2370
    7ea8:	cb 47 01 00 	mov.b	r7,	1(r11)	;0x0001(r11)
    7eac:	87 10       	swpb	r7		
    7eae:	cb 47 00 00 	mov.b	r7,	0(r11)	;0x0000(r11)
    7eb2:	03 12       	push	#0		;r3 As==00
    7eb4:	30 12 06 00 	push	#6		;#0x0006
    7eb8:	0b 12       	push	r11		
    7eba:	0c 43       	clr	r12		
    7ebc:	0d 43       	clr	r13		
    7ebe:	4e 43       	clr.b	r14		
    7ec0:	5f 43       	mov.b	#1,	r15	;r3 As==01
    7ec2:	39 3f       	jmp	$-396    	;abs 0x7d36
    7ec4:	49 93       	tst.b	r9		
    7ec6:	2a 27       	jz	$-426    	;abs 0x7d1c
    7ec8:	56 17       	popm	#6,	r11	
    7eca:	30 41       	ret			

00007ecc <LogStorageP__endRequest>:
    7ecc:	6b 15       	pushm	#7,	r11	
    7ece:	0a 4f       	mov	r15,	r10	
    7ed0:	5f 42 18 1c 	mov.b	&0x1c18,r15	
    7ed4:	48 4f       	mov.b	r15,	r8	
    7ed6:	0e 48       	mov	r8,	r14	
    7ed8:	5e 06       	rlam	#2,	r14	
    7eda:	0d 4e       	mov	r14,	r13	
    7edc:	5d 0a       	rlam	#3,	r13	
    7ede:	0d 8e       	sub	r14,	r13	
    7ee0:	3d 50 80 23 	add	#9088,	r13	;#0x2380
    7ee4:	6b 4d       	mov.b	@r13,	r11	
    7ee6:	16 42 34 21 	mov	&0x2134,r6	
    7eea:	17 42 36 21 	mov	&0x2136,r7	
    7eee:	19 4d 02 00 	mov	2(r13),	r9	;0x0002(r13)
    7ef2:	f2 43 18 1c 	mov.b	#-1,	&0x1c18	;r3 As==11
    7ef6:	cd 43 00 00 	mov.b	#0,	0(r13)	;r3 As==00, 0x0000(r13)
    7efa:	4f 93       	tst.b	r15		
    7efc:	02 20       	jnz	$+6      	;abs 0x7f02
    7efe:	b0 12 b0 7b 	call	#0x7bb0	
    7f02:	0d 48       	mov	r8,	r13	
    7f04:	5d 02       	rlam	#1,	r13	
    7f06:	58 06       	rlam	#2,	r8	
    7f08:	0e 48       	mov	r8,	r14	
    7f0a:	5e 0a       	rlam	#3,	r14	
    7f0c:	0e 88       	sub	r8,	r14	
    7f0e:	ee b3 88 23 	bit.b	#2,	9096(r14);r3 As==10, 0x2388(r14)
    7f12:	0f 43       	clr	r15		
    7f14:	0f 6f       	rlc	r15		
    7f16:	4f dd       	bis.b	r13,	r15	
    7f18:	6b 93       	cmp.b	#2,	r11	;r3 As==10
    7f1a:	51 24       	jz	$+164    	;abs 0x7fbe
    7f1c:	7b 90 03 00 	cmp.b	#3,	r11	;#0x0003
    7f20:	05 2c       	jc	$+12     	;abs 0x7f2c
    7f22:	5b 93       	cmp.b	#1,	r11	;r3 As==01
    7f24:	02 24       	jz	$+6      	;abs 0x7f2a
    7f26:	80 00 9a 81 	bra	#0x0819a	
    7f2a:	08 3c       	jmp	$+18     	;abs 0x7f3c
    7f2c:	7b 90 03 00 	cmp.b	#3,	r11	;#0x0003
    7f30:	70 24       	jz	$+226    	;abs 0x8012
    7f32:	6b 92       	cmp.b	#4,	r11	;r2 As==10
    7f34:	02 24       	jz	$+6      	;abs 0x7f3a
    7f36:	80 00 9a 81 	bra	#0x0819a	
    7f3a:	85 3c       	jmp	$+268    	;abs 0x8046
    7f3c:	5f 93       	cmp.b	#1,	r15	;r3 As==01
    7f3e:	02 24       	jz	$+6      	;abs 0x7f44
    7f40:	80 00 9a 81 	bra	#0x0819a	
    7f44:	0a 93       	tst	r10		
    7f46:	1c 20       	jnz	$+58     	;abs 0x7f80
    7f48:	c2 43 6b 1c 	mov.b	#0,	&0x1c6b	;r3 As==00
    7f4c:	c2 43 6a 1c 	mov.b	#0,	&0x1c6a	;r3 As==00
    7f50:	c2 43 d5 22 	mov.b	#0,	&0x22d5	;r3 As==00
    7f54:	c2 43 61 1f 	mov.b	#0,	&0x1f61	;r3 As==00
    7f58:	c2 43 6a 1f 	mov.b	#0,	&0x1f6a	;r3 As==00
    7f5c:	c2 43 8e 1c 	mov.b	#0,	&0x1c8e	;r3 As==00
    7f60:	b0 12 00 61 	call	#0x6100	
    7f64:	b0 12 d4 51 	call	#0x51d4	
    7f68:	3c 40 d0 07 	mov	#2000,	r12	;#0x07d0
    7f6c:	0d 43       	clr	r13		
    7f6e:	b0 12 36 bd 	call	#0xbd36	
    7f72:	0d 4e       	mov	r14,	r13	
    7f74:	0e 4f       	mov	r15,	r14	
    7f76:	7f 40 06 00 	mov.b	#6,	r15	;#0x0006
    7f7a:	b0 12 66 5e 	call	#0x5e66	
    7f7e:	02 3c       	jmp	$+6      	;abs 0x7f84
    7f80:	e2 43 6b 1c 	mov.b	#2,	&0x1c6b	;r3 As==10
    7f84:	b0 12 68 50 	call	#0x5068	
    7f88:	82 43 48 24 	mov	#0,	&0x2448	;r3 As==00
    7f8c:	5f 42 f4 23 	mov.b	&0x23f4,r15	
    7f90:	3f f0 07 00 	and	#7,	r15	;#0x0007
    7f94:	3f 90 03 00 	cmp	#3,	r15	;#0x0003
    7f98:	02 34       	jge	$+6      	;abs 0x7f9e
    7f9a:	80 00 9a 81 	bra	#0x0819a	
    7f9e:	03 12       	push	#0		;r3 As==00
    7fa0:	30 12 0c 00 	push	#12		;#0x000c
    7fa4:	30 12 40 24 	push	#9280		;#0x2440
    7fa8:	3c 40 06 00 	mov	#6,	r12	;#0x0006
    7fac:	0d 43       	clr	r13		
    7fae:	4e 43       	clr.b	r14		
    7fb0:	5f 43       	mov.b	#1,	r15	;r3 As==01
    7fb2:	b0 12 02 55 	call	#0x5502	
    7fb6:	31 50 06 00 	add	#6,	r1	;#0x0006
    7fba:	80 00 9a 81 	bra	#0x0819a	
    7fbe:	5f 93       	cmp.b	#1,	r15	;r3 As==01
    7fc0:	02 24       	jz	$+6      	;abs 0x7fc6
    7fc2:	80 00 9a 81 	bra	#0x0819a	
    7fc6:	b0 12 8c 50 	call	#0x508c	
    7fca:	0a 93       	tst	r10		
    7fcc:	1d 20       	jnz	$+60     	;abs 0x8008
    7fce:	0f 42       	mov	r2,	r15	
    7fd0:	3f f2       	and	#8,	r15	;r2 As==11
    7fd2:	32 c2       	dint			
    7fd4:	03 43       	nop			
    7fd6:	5d 42 d5 22 	mov.b	&0x22d5,r13	
    7fda:	4e 4d       	mov.b	r13,	r14	
    7fdc:	5e 02       	rlam	#1,	r14	
    7fde:	19 9e 76 1e 	cmp	7798(r14),r9	;0x1e76(r14)
    7fe2:	0f 20       	jnz	$+32     	;abs 0x8002
    7fe4:	4e 4d       	mov.b	r13,	r14	
    7fe6:	5e 53       	inc.b	r14		
    7fe8:	7e 90 0c 00 	cmp.b	#12,	r14	;#0x000c
    7fec:	03 2c       	jc	$+8      	;abs 0x7ff4
    7fee:	c2 4e d5 22 	mov.b	r14,	&0x22d5	
    7ff2:	02 3c       	jmp	$+6      	;abs 0x7ff8
    7ff4:	c2 43 d5 22 	mov.b	#0,	&0x22d5	;r3 As==00
    7ff8:	c2 93 8e 1c 	tst.b	&0x1c8e	
    7ffc:	02 24       	jz	$+6      	;abs 0x8002
    7ffe:	c2 43 8e 1c 	mov.b	#0,	&0x1c8e	;r3 As==00
    8002:	0f 93       	tst	r15		
    8004:	01 24       	jz	$+4      	;abs 0x8008
    8006:	32 d2       	eint			
    8008:	7f 40 06 00 	mov.b	#6,	r15	;#0x0006
    800c:	b0 12 f6 4e 	call	#0x4ef6	
    8010:	c4 3c       	jmp	$+394    	;abs 0x819a
    8012:	5f 93       	cmp.b	#1,	r15	;r3 As==01
    8014:	c2 20       	jnz	$+390    	;abs 0x819a
    8016:	0a 93       	tst	r10		
    8018:	0e 20       	jnz	$+30     	;abs 0x8036
    801a:	b0 12 d4 51 	call	#0x51d4	
    801e:	3c 40 d0 07 	mov	#2000,	r12	;#0x07d0
    8022:	0d 43       	clr	r13		
    8024:	b0 12 36 bd 	call	#0xbd36	
    8028:	0d 4e       	mov	r14,	r13	
    802a:	0e 4f       	mov	r15,	r14	
    802c:	7f 40 06 00 	mov.b	#6,	r15	;#0x0006
    8030:	b0 12 66 5e 	call	#0x5e66	
    8034:	b2 3c       	jmp	$+358    	;abs 0x819a
    8036:	0c 43       	clr	r12		
    8038:	0d 43       	clr	r13		
    803a:	0e 43       	clr	r14		
    803c:	7f 40 03 00 	mov.b	#3,	r15	;#0x0003
    8040:	b0 12 c8 5a 	call	#0x5ac8	
    8044:	aa 3c       	jmp	$+342    	;abs 0x819a
    8046:	5f 93       	cmp.b	#1,	r15	;r3 As==01
    8048:	a8 20       	jnz	$+338    	;abs 0x819a
    804a:	0a 93       	tst	r10		
    804c:	03 24       	jz	$+8      	;abs 0x8054
    804e:	b0 12 4e 4f 	call	#0x4f4e	
    8052:	a3 3c       	jmp	$+328    	;abs 0x819a
    8054:	36 90 20 00 	cmp	#32,	r6	;#0x0020
    8058:	88 20       	jnz	$+274    	;abs 0x816a
    805a:	07 93       	tst	r7		
    805c:	86 20       	jnz	$+270    	;abs 0x816a
    805e:	39 90 00 24 	cmp	#9216,	r9	;#0x2400
    8062:	83 20       	jnz	$+264    	;abs 0x816a
    8064:	07 42       	mov	r2,	r7	
    8066:	37 f2       	and	#8,	r7	;r2 As==11
    8068:	32 c2       	dint			
    806a:	03 43       	nop			
    806c:	5f 42 7a 23 	mov.b	&0x237a,r15	
    8070:	5f 02       	rlam	#1,	r15	
    8072:	18 4f de 1e 	mov	7902(r15),r8	;0x1ede(r15)
    8076:	5d 42 00 24 	mov.b	&0x2400,r13	
    807a:	0e 49       	mov	r9,	r14	
    807c:	1e 53       	inc	r14		
    807e:	0f 48       	mov	r8,	r15	
    8080:	3f 50 0c 00 	add	#12,	r15	;#0x000c
    8084:	b0 12 10 c6 	call	#0xc610	
    8088:	1a 42 8a 23 	mov	&0x238a,r10	
    808c:	1b 42 8c 23 	mov	&0x238c,r11	
    8090:	b0 12 7e 59 	call	#0x597e	
    8094:	38 50 27 00 	add	#39,	r8	;#0x0027
    8098:	05 4a       	mov	r10,	r5	
    809a:	06 4b       	mov	r11,	r6	
    809c:	05 8e       	sub	r14,	r5	
    809e:	06 7f       	subc	r15,	r6	
    80a0:	0d 45       	mov	r5,	r13	
    80a2:	0e 46       	mov	r6,	r14	
    80a4:	7f 40 05 00 	mov.b	#5,	r15	;#0x0005
    80a8:	12 c3       	clrc			
    80aa:	0e 10       	rrc	r14		
    80ac:	0d 10       	rrc	r13		
    80ae:	7f 53       	add.b	#-1,	r15	;r3 As==11
    80b0:	fb 23       	jnz	$-8      	;abs 0x80a8
    80b2:	0f 48       	mov	r8,	r15	
    80b4:	b0 12 0e 4b 	call	#0x4b0e	
    80b8:	59 42 7a 23 	mov.b	&0x237a,r9	
    80bc:	4b 49       	mov.b	r9,	r11	
    80be:	0f 4b       	mov	r11,	r15	
    80c0:	5f 02       	rlam	#1,	r15	
    80c2:	5b 0e       	rlam	#4,	r11	
    80c4:	0b 8f       	sub	r15,	r11	
    80c6:	cb 43 16 34 	mov.b	#0,	13334(r11);r3 As==00, 0x3416(r11)
    80ca:	0f 48       	mov	r8,	r15	
    80cc:	b0 12 3a 4b 	call	#0x4b3a	
    80d0:	0d 4b       	mov	r11,	r13	
    80d2:	3d 50 14 34 	add	#13332,	r13	;#0x3414
    80d6:	8d 4e 04 00 	mov	r14,	4(r13)	;0x0004(r13)
    80da:	8d 4f 06 00 	mov	r15,	6(r13)	;0x0006(r13)
    80de:	bd 40 d0 07 08 00 	mov	#2000,	8(r13)	;#0x07d0, 0x0008(r13)
    80e4:	8d 43 0a 00 	mov	#0,	10(r13)	;r3 As==00, 0x000a(r13)
    80e8:	3b 50 20 34 	add	#13344,	r11	;#0x3420
    80ec:	cb 49 00 00 	mov.b	r9,	0(r11)	;0x0000(r11)
    80f0:	cb 43 01 00 	mov.b	#0,	1(r11)	;r3 As==00, 0x0001(r11)
    80f4:	1a 42 9e 23 	mov	&0x239e,r10	
    80f8:	1b 42 a0 23 	mov	&0x23a0,r11	
    80fc:	0f 48       	mov	r8,	r15	
    80fe:	b0 12 3a 4b 	call	#0x4b3a	
    8102:	0c 4a       	mov	r10,	r12	
    8104:	0d 4b       	mov	r11,	r13	
    8106:	0c 8e       	sub	r14,	r12	
    8108:	0d 7f       	subc	r15,	r13	
    810a:	0e 4c       	mov	r12,	r14	
    810c:	0f 4d       	mov	r13,	r15	
    810e:	0f 93       	tst	r15		
    8110:	02 20       	jnz	$+6      	;abs 0x8116
    8112:	2c 93       	cmp	#2,	r12	;r3 As==10
    8114:	03 28       	jnc	$+8      	;abs 0x811c
    8116:	f2 40 03 00 1e 20 	mov.b	#3,	&0x201e	;#0x0003
    811c:	0f 48       	mov	r8,	r15	
    811e:	b0 12 3a 4b 	call	#0x4b3a	
    8122:	82 4e 9e 23 	mov	r14,	&0x239e	
    8126:	82 4f a0 23 	mov	r15,	&0x23a0	
    812a:	c2 49 06 34 	mov.b	r9,	&0x3406	
    812e:	c2 43 07 34 	mov.b	#0,	&0x3407	;r3 As==00
    8132:	82 43 08 34 	mov	#0,	&0x3408	;r3 As==00
    8136:	c2 49 04 34 	mov.b	r9,	&0x3404	
    813a:	59 53       	inc.b	r9		
    813c:	79 90 32 00 	cmp.b	#50,	r9	;#0x0032
    8140:	03 2c       	jc	$+8      	;abs 0x8148
    8142:	c2 49 7a 23 	mov.b	r9,	&0x237a	
    8146:	02 3c       	jmp	$+6      	;abs 0x814c
    8148:	c2 43 7a 23 	mov.b	#0,	&0x237a	;r3 As==00
    814c:	f2 90 03 00 1e 20 	cmp.b	#3,	&0x201e	;#0x0003
    8152:	05 20       	jnz	$+12     	;abs 0x815e
    8154:	c2 43 d1 20 	mov.b	#0,	&0x20d1	;r3 As==00
    8158:	b0 12 62 4f 	call	#0x4f62	
    815c:	02 3c       	jmp	$+6      	;abs 0x8162
    815e:	b0 12 58 4f 	call	#0x4f58	
    8162:	07 93       	tst	r7		
    8164:	1a 24       	jz	$+54     	;abs 0x819a
    8166:	32 d2       	eint			
    8168:	18 3c       	jmp	$+50     	;abs 0x819a
    816a:	0b 42       	mov	r2,	r11	
    816c:	32 c2       	dint			
    816e:	03 43       	nop			
    8170:	d2 43 6a 1c 	mov.b	#1,	&0x1c6a	;r3 As==01
    8174:	c2 43 d5 22 	mov.b	#0,	&0x22d5	;r3 As==00
    8178:	c2 43 61 1f 	mov.b	#0,	&0x1f61	;r3 As==00
    817c:	c2 43 6a 1f 	mov.b	#0,	&0x1f6a	;r3 As==00
    8180:	c2 43 8e 1c 	mov.b	#0,	&0x1c8e	;r3 As==00
    8184:	92 42 cc 22 c2 20 	mov	&0x22cc,&0x20c2	
    818a:	c2 43 d1 20 	mov.b	#0,	&0x20d1	;r3 As==00
    818e:	d2 43 1e 20 	mov.b	#1,	&0x201e	;r3 As==01
    8192:	b0 12 62 4f 	call	#0x4f62	
    8196:	3b f2       	and	#8,	r11	;r2 As==11
    8198:	e6 23       	jnz	$-50     	;abs 0x8166
    819a:	65 17       	popm	#7,	r11	
    819c:	30 41       	ret			

0000819e <At45dbP__requestDone>:
    819e:	3b 15       	pushm	#4,	r11	
    81a0:	0b 4f       	mov	r15,	r11	
    81a2:	0a 4e       	mov	r14,	r10	
    81a4:	5f 42 5c 1f 	mov.b	&0x1f5c,r15	
    81a8:	c2 4d 5c 1f 	mov.b	r13,	&0x1f5c	
    81ac:	7f 53       	add.b	#-1,	r15	;r3 As==11
    81ae:	7f 90 09 00 	cmp.b	#9,	r15	;#0x0009
    81b2:	02 28       	jnc	$+6      	;abs 0x81b8
    81b4:	80 00 d0 86 	bra	#0x086d0	
    81b8:	4f 4f       	mov.b	r15,	r15	
    81ba:	5f 02       	rlam	#1,	r15	
    81bc:	10 4f 08 ce 	br	-12792(r15)	;0xce08(r15)
    81c0:	f2 93 0b 1c 	cmp.b	#-1,	&0x1c0b	;r3 As==11
    81c4:	04 24       	jz	$+10     	;abs 0x81ce
    81c6:	0e 43       	clr	r14		
    81c8:	0f 4b       	mov	r11,	r15	
    81ca:	b0 12 24 8a 	call	#0x8a24	
    81ce:	5a 42 18 1c 	mov.b	&0x1c18,r10	
    81d2:	7a 93       	cmp.b	#-1,	r10	;r3 As==11
    81d4:	02 20       	jnz	$+6      	;abs 0x81da
    81d6:	80 00 d0 86 	bra	#0x086d0	
    81da:	0b 93       	tst	r11		
    81dc:	02 24       	jz	$+6      	;abs 0x81e2
    81de:	1f 43       	mov	#1,	r15	;r3 As==01
    81e0:	5a 3c       	jmp	$+182    	;abs 0x8296
    81e2:	f2 90 06 00 dd 1e 	cmp.b	#6,	&0x1edd	;#0x0006
    81e8:	02 28       	jnc	$+6      	;abs 0x81ee
    81ea:	80 00 d0 86 	bra	#0x086d0	
    81ee:	5f 42 dd 1e 	mov.b	&0x1edd,r15	
    81f2:	5f 02       	rlam	#1,	r15	
    81f4:	10 4f 1c ce 	br	-12772(r15)	;0xce1c(r15)
    81f8:	1f 42 c4 22 	mov	&0x22c4,r15	
    81fc:	21 3c       	jmp	$+68     	;abs 0x8240
    81fe:	5f 42 c2 1f 	mov.b	&0x1fc2,r15	
    8202:	8f 10       	swpb	r15		
    8204:	5e 42 c3 1f 	mov.b	&0x1fc3,r14	
    8208:	0f de       	bis	r14,	r15	
    820a:	3f 90 56 42 	cmp	#16982,	r15	;#0x4256
    820e:	ae 20       	jnz	$+350    	;abs 0x836c
    8210:	3f 40 c4 1f 	mov	#8132,	r15	;#0x1fc4
    8214:	b0 12 3a 4b 	call	#0x4b3a	
    8218:	4c 4a       	mov.b	r10,	r12	
    821a:	5c 06       	rlam	#2,	r12	
    821c:	0d 4c       	mov	r12,	r13	
    821e:	5d 0a       	rlam	#3,	r13	
    8220:	0d 8c       	sub	r12,	r13	
    8222:	3d 50 80 23 	add	#9088,	r13	;#0x2380
    8226:	3d 50 0a 00 	add	#10,	r13	;#0x000a
    822a:	8d 9f 02 00 	cmp	r15,	2(r13)	;0x0002(r13)
    822e:	06 28       	jnc	$+14     	;abs 0x823c
    8230:	1f 9d 02 00 	cmp	2(r13),	r15	;0x0002(r13)
    8234:	9b 28       	jnc	$+312    	;abs 0x836c
    8236:	8d 9e 00 00 	cmp	r14,	0(r13)	;0x0000(r13)
    823a:	98 2c       	jc	$+306    	;abs 0x836c
    823c:	b0 12 c6 4b 	call	#0x4bc6	
    8240:	b0 12 ae 8a 	call	#0x8aae	
    8244:	80 00 d0 86 	bra	#0x086d0	
    8248:	5f 42 c2 1f 	mov.b	&0x1fc2,r15	
    824c:	8f 10       	swpb	r15		
    824e:	5e 42 c3 1f 	mov.b	&0x1fc3,r14	
    8252:	0f de       	bis	r14,	r15	
    8254:	3f 90 56 42 	cmp	#16982,	r15	;#0x4256
    8258:	06 20       	jnz	$+14     	;abs 0x8266
    825a:	e2 b2 c9 1f 	bit.b	#4,	&0x1fc9	;r2 As==10
    825e:	03 24       	jz	$+8      	;abs 0x8266
    8260:	1f 42 94 1c 	mov	&0x1c94,r15	
    8264:	ed 3f       	jmp	$-36     	;abs 0x8240
    8266:	b0 12 50 8a 	call	#0x8a50	
    826a:	80 00 d0 86 	bra	#0x086d0	
    826e:	4e 4a       	mov.b	r10,	r14	
    8270:	5e 06       	rlam	#2,	r14	
    8272:	0f 4e       	mov	r14,	r15	
    8274:	5f 0a       	rlam	#3,	r15	
    8276:	0f 8e       	sub	r14,	r15	
    8278:	3f 50 80 23 	add	#9088,	r15	;#0x2380
    827c:	1f 4f 16 00 	mov	22(r15),r15	;0x0016(r15)
    8280:	df 3f       	jmp	$-64     	;abs 0x8240
    8282:	5f 42 c2 1f 	mov.b	&0x1fc2,r15	
    8286:	8f 10       	swpb	r15		
    8288:	5e 42 c3 1f 	mov.b	&0x1fc3,r14	
    828c:	0f de       	bis	r14,	r15	
    828e:	3f 90 56 42 	cmp	#16982,	r15	;#0x4256
    8292:	e6 27       	jz	$-50     	;abs 0x8260
    8294:	0f 43       	clr	r15		
    8296:	b0 12 cc 7e 	call	#0x7ecc	
    829a:	80 00 d0 86 	bra	#0x086d0	
    829e:	b0 12 7c 8d 	call	#0x8d7c	
    82a2:	80 00 d0 86 	bra	#0x086d0	
    82a6:	f2 93 0b 1c 	cmp.b	#-1,	&0x1c0b	;r3 As==11
    82aa:	03 24       	jz	$+8      	;abs 0x82b2
    82ac:	0f 4b       	mov	r11,	r15	
    82ae:	b0 12 24 8a 	call	#0x8a24	
    82b2:	59 42 18 1c 	mov.b	&0x1c18,r9	
    82b6:	79 93       	cmp.b	#-1,	r9	;r3 As==11
    82b8:	02 20       	jnz	$+6      	;abs 0x82be
    82ba:	80 00 d0 86 	bra	#0x086d0	
    82be:	0b 93       	tst	r11		
    82c0:	8e 23       	jnz	$-226    	;abs 0x81de
    82c2:	5f 42 dd 1e 	mov.b	&0x1edd,r15	
    82c6:	7f 53       	add.b	#-1,	r15	;r3 As==11
    82c8:	7f 90 06 00 	cmp.b	#6,	r15	;#0x0006
    82cc:	02 28       	jnc	$+6      	;abs 0x82d2
    82ce:	80 00 d0 86 	bra	#0x086d0	
    82d2:	4f 4f       	mov.b	r15,	r15	
    82d4:	5f 02       	rlam	#1,	r15	
    82d6:	10 4f 28 ce 	br	-12760(r15)	;0xce28(r15)
    82da:	5f 42 c2 1f 	mov.b	&0x1fc2,r15	
    82de:	8f 10       	swpb	r15		
    82e0:	5e 42 c3 1f 	mov.b	&0x1fc3,r14	
    82e4:	0f de       	bis	r14,	r15	
    82e6:	3f 90 56 42 	cmp	#16982,	r15	;#0x4256
    82ea:	16 20       	jnz	$+46     	;abs 0x8318
    82ec:	5f 42 ca 1f 	mov.b	&0x1fca,r15	
    82f0:	8f 10       	swpb	r15		
    82f2:	5e 42 cb 1f 	mov.b	&0x1fcb,r14	
    82f6:	0f de       	bis	r14,	r15	
    82f8:	0a 9f       	cmp	r15,	r10	
    82fa:	0e 20       	jnz	$+30     	;abs 0x8318
    82fc:	3f 40 c4 1f 	mov	#8132,	r15	;#0x1fc4
    8300:	b0 12 3a 4b 	call	#0x4b3a	
    8304:	49 49       	mov.b	r9,	r9	
    8306:	59 06       	rlam	#2,	r9	
    8308:	0d 49       	mov	r9,	r13	
    830a:	5d 0a       	rlam	#3,	r13	
    830c:	0d 89       	sub	r9,	r13	
    830e:	8d 4e 8a 23 	mov	r14,	9098(r13);0x238a(r13)
    8312:	8d 4f 8c 23 	mov	r15,	9100(r13);0x238c(r13)
    8316:	09 3c       	jmp	$+20     	;abs 0x832a
    8318:	49 49       	mov.b	r9,	r9	
    831a:	59 06       	rlam	#2,	r9	
    831c:	0f 49       	mov	r9,	r15	
    831e:	5f 0a       	rlam	#3,	r15	
    8320:	0f 89       	sub	r9,	r15	
    8322:	8f 43 8a 23 	mov	#0,	9098(r15);r3 As==00, 0x238a(r15)
    8326:	8f 43 8c 23 	mov	#0,	9100(r15);r3 As==00, 0x238c(r15)
    832a:	e2 43 dd 1e 	mov.b	#2,	&0x1edd	;r3 As==10
    832e:	b0 12 86 8a 	call	#0x8a86	
    8332:	80 00 d0 86 	bra	#0x086d0	
    8336:	5f 42 ca 1f 	mov.b	&0x1fca,r15	
    833a:	8f 10       	swpb	r15		
    833c:	5e 42 cb 1f 	mov.b	&0x1fcb,r14	
    8340:	0f de       	bis	r14,	r15	
    8342:	0a 9f       	cmp	r15,	r10	
    8344:	13 20       	jnz	$+40     	;abs 0x836c
    8346:	3f 40 c4 1f 	mov	#8132,	r15	;#0x1fc4
    834a:	b0 12 3a 4b 	call	#0x4b3a	
    834e:	49 49       	mov.b	r9,	r9	
    8350:	59 06       	rlam	#2,	r9	
    8352:	0d 49       	mov	r9,	r13	
    8354:	5d 0a       	rlam	#3,	r13	
    8356:	0d 89       	sub	r9,	r13	
    8358:	8d 4e 8a 23 	mov	r14,	9098(r13);0x238a(r13)
    835c:	8d 4f 8c 23 	mov	r15,	9100(r13);0x238c(r13)
    8360:	b0 12 c6 4b 	call	#0x4bc6	
    8364:	1f 53       	inc	r15		
    8366:	82 4f 94 1c 	mov	r15,	&0x1c94	
    836a:	e1 3f       	jmp	$-60     	;abs 0x832e
    836c:	b0 12 c6 4b 	call	#0x4bc6	
    8370:	82 4f c4 22 	mov	r15,	&0x22c4	
    8374:	dc 3f       	jmp	$-70     	;abs 0x832e
    8376:	5f 42 ca 1f 	mov.b	&0x1fca,r15	
    837a:	8f 10       	swpb	r15		
    837c:	5e 42 cb 1f 	mov.b	&0x1fcb,r14	
    8380:	0f de       	bis	r14,	r15	
    8382:	0a 9f       	cmp	r15,	r10	
    8384:	70 23       	jnz	$-286    	;abs 0x8266
    8386:	49 49       	mov.b	r9,	r9	
    8388:	59 06       	rlam	#2,	r9	
    838a:	0f 49       	mov	r9,	r15	
    838c:	5f 0a       	rlam	#3,	r15	
    838e:	0f 89       	sub	r9,	r15	
    8390:	ff c2 88 23 	bic.b	#8,	9096(r15);r2 As==11, 0x2388(r15)
    8394:	d2 b3 c9 1f 	bit.b	#1,	&0x1fc9	;r3 As==01
    8398:	26 24       	jz	$+78     	;abs 0x83e6
    839a:	1b 42 94 1c 	mov	&0x1c94,r11	
    839e:	1b 92 c4 22 	cmp	&0x22c4,r11	
    83a2:	0b 20       	jnz	$+24     	;abs 0x83ba
    83a4:	3f 40 c4 1f 	mov	#8132,	r15	;#0x1fc4
    83a8:	b0 12 3a 4b 	call	#0x4b3a	
    83ac:	0e 93       	tst	r14		
    83ae:	05 20       	jnz	$+12     	;abs 0x83ba
    83b0:	0f 93       	tst	r15		
    83b2:	03 20       	jnz	$+8      	;abs 0x83ba
    83b4:	b0 12 34 5d 	call	#0x5d34	
    83b8:	02 3c       	jmp	$+6      	;abs 0x83be
    83ba:	0f 4b       	mov	r11,	r15	
    83bc:	1f 53       	inc	r15		
    83be:	b0 12 1a 5e 	call	#0x5e1a	
    83c2:	3f 40 c4 1f 	mov	#8132,	r15	;#0x1fc4
    83c6:	b0 12 3a 4b 	call	#0x4b3a	
    83ca:	5d 42 18 1c 	mov.b	&0x1c18,r13	
    83ce:	5d 06       	rlam	#2,	r13	
    83d0:	0c 4d       	mov	r13,	r12	
    83d2:	5c 0a       	rlam	#3,	r12	
    83d4:	0c 8d       	sub	r13,	r12	
    83d6:	3e 50 06 02 	add	#518,	r14	;#0x0206
    83da:	0f 63       	adc	r15		
    83dc:	8c 4e 8a 23 	mov	r14,	9098(r12);0x238a(r12)
    83e0:	8c 4f 8c 23 	mov	r15,	9100(r12);0x238c(r12)
    83e4:	1b 3c       	jmp	$+56     	;abs 0x841c
    83e6:	0b 4f       	mov	r15,	r11	
    83e8:	3b 50 80 23 	add	#9088,	r11	;#0x2380
    83ec:	9b 42 94 1c 0e 00 	mov	&0x1c94,14(r11)	;0x000e(r11)
    83f2:	5a 42 c8 1f 	mov.b	&0x1fc8,r10	
    83f6:	0f 4b       	mov	r11,	r15	
    83f8:	3f 50 10 00 	add	#16,	r15	;#0x0010
    83fc:	cf 4a 00 00 	mov.b	r10,	0(r15)	;0x0000(r15)
    8400:	cf 43 01 00 	mov.b	#0,	1(r15)	;r3 As==00, 0x0001(r15)
    8404:	3f 40 c4 1f 	mov	#8132,	r15	;#0x1fc4
    8408:	b0 12 3a 4b 	call	#0x4b3a	
    840c:	4c 4a       	mov.b	r10,	r12	
    840e:	0d 43       	clr	r13		
    8410:	0e 5c       	add	r12,	r14	
    8412:	0f 6d       	addc	r13,	r15	
    8414:	8b 4e 0a 00 	mov	r14,	10(r11)	;0x000a(r11)
    8418:	8b 4f 0c 00 	mov	r15,	12(r11)	;0x000c(r11)
    841c:	5d 42 18 1c 	mov.b	&0x1c18,r13	
    8420:	5c 42 c9 1f 	mov.b	&0x1fc9,r12	
    8424:	5c 03       	rrum	#1,	r12	
    8426:	1c f3       	and	#1,	r12	;r3 As==01
    8428:	0e 4d       	mov	r13,	r14	
    842a:	5e 06       	rlam	#2,	r14	
    842c:	0f 4e       	mov	r14,	r15	
    842e:	5f 0a       	rlam	#3,	r15	
    8430:	0f 8e       	sub	r14,	r15	
    8432:	3f 50 88 23 	add	#9096,	r15	;#0x2388
    8436:	4e 4c       	mov.b	r12,	r14	
    8438:	5e 06       	rlam	#2,	r14	
    843a:	6b 4f       	mov.b	@r15,	r11	
    843c:	6b c2       	bic.b	#4,	r11	;r2 As==10
    843e:	4b de       	bis.b	r14,	r11	
    8440:	cf 4b 00 00 	mov.b	r11,	0(r15)	;0x0000(r15)
    8444:	4c 93       	tst.b	r12		
    8446:	07 24       	jz	$+16     	;abs 0x8456
    8448:	6b b3       	bit.b	#2,	r11	;r3 As==10
    844a:	0f 43       	clr	r15		
    844c:	0f 6f       	rlc	r15		
    844e:	4f 93       	tst.b	r15		
    8450:	02 20       	jnz	$+6      	;abs 0x8456
    8452:	80 00 de 81 	bra	#0x081de	
    8456:	0e 4d       	mov	r13,	r14	
    8458:	5e 06       	rlam	#2,	r14	
    845a:	0f 4e       	mov	r14,	r15	
    845c:	5f 0a       	rlam	#3,	r15	
    845e:	0f 8e       	sub	r14,	r15	
    8460:	df d3 88 23 	bis.b	#1,	9096(r15);r3 As==01, 0x2388(r15)
    8464:	b0 12 a0 8f 	call	#0x8fa0	
    8468:	80 00 d0 86 	bra	#0x086d0	
    846c:	5f 42 c2 1f 	mov.b	&0x1fc2,r15	
    8470:	8f 10       	swpb	r15		
    8472:	5e 42 c3 1f 	mov.b	&0x1fc3,r14	
    8476:	0f de       	bis	r14,	r15	
    8478:	3f 90 56 42 	cmp	#16982,	r15	;#0x4256
    847c:	02 24       	jz	$+6      	;abs 0x8482
    847e:	80 00 94 82 	bra	#0x08294	
    8482:	5f 42 ca 1f 	mov.b	&0x1fca,r15	
    8486:	8f 10       	swpb	r15		
    8488:	5e 42 cb 1f 	mov.b	&0x1fcb,r14	
    848c:	0f de       	bis	r14,	r15	
    848e:	0a 9f       	cmp	r15,	r10	
    8490:	02 24       	jz	$+6      	;abs 0x8496
    8492:	80 00 94 82 	bra	#0x08294	
    8496:	3f 40 c4 1f 	mov	#8132,	r15	;#0x1fc4
    849a:	b0 12 3a 4b 	call	#0x4b3a	
    849e:	49 49       	mov.b	r9,	r9	
    84a0:	59 06       	rlam	#2,	r9	
    84a2:	0b 49       	mov	r9,	r11	
    84a4:	5b 0a       	rlam	#3,	r11	
    84a6:	0b 89       	sub	r9,	r11	
    84a8:	0a 4b       	mov	r11,	r10	
    84aa:	3a 50 80 23 	add	#9088,	r10	;#0x2380
    84ae:	1c 4a 18 00 	mov	24(r10),r12	;0x0018(r10)
    84b2:	0d 43       	clr	r13		
    84b4:	18 4a 12 00 	mov	18(r10),r8	;0x0012(r10)
    84b8:	19 4a 14 00 	mov	20(r10),r9	;0x0014(r10)
    84bc:	08 8c       	sub	r12,	r8	
    84be:	09 7d       	subc	r13,	r9	
    84c0:	0c 48       	mov	r8,	r12	
    84c2:	0d 49       	mov	r9,	r13	
    84c4:	0e 98       	cmp	r8,	r14	
    84c6:	02 24       	jz	$+6      	;abs 0x84cc
    84c8:	80 00 94 82 	bra	#0x08294	
    84cc:	0f 9d       	cmp	r13,	r15	
    84ce:	02 24       	jz	$+6      	;abs 0x84d4
    84d0:	80 00 94 82 	bra	#0x08294	
    84d4:	fb d2 88 23 	bis.b	#8,	9096(r11);r2 As==11, 0x2388(r11)
    84d8:	d2 b3 c9 1f 	bit.b	#1,	&0x1fc9	;r3 As==01
    84dc:	02 20       	jnz	$+6      	;abs 0x84e2
    84de:	80 00 94 82 	bra	#0x08294	
    84e2:	0f 4a       	mov	r10,	r15	
    84e4:	3f 50 1a 00 	add	#26,	r15	;#0x001a
    84e8:	df 42 c8 1f 00 00 	mov.b	&0x1fc8,0(r15)	;0x0000(r15)
    84ee:	cf 43 01 00 	mov.b	#0,	1(r15)	;r3 As==00, 0x0001(r15)
    84f2:	80 00 94 82 	bra	#0x08294	
    84f6:	0b 43       	clr	r11		
    84f8:	5e 4b c2 1f 	mov.b	8130(r11),r14	;0x1fc2(r11)
    84fc:	0f 4a       	mov	r10,	r15	
    84fe:	b0 12 20 4c 	call	#0x4c20	
    8502:	0a 4f       	mov	r15,	r10	
    8504:	1b 53       	inc	r11		
    8506:	3b 92       	cmp	#8,	r11	;r2 As==11
    8508:	f7 23       	jnz	$-16     	;abs 0x84f8
    850a:	c2 4f cb 1f 	mov.b	r15,	&0x1fcb	
    850e:	8a 10       	swpb	r10		
    8510:	c2 4a ca 1f 	mov.b	r10,	&0x1fca	
    8514:	30 12 0a 00 	push	#10		;#0x000a
    8518:	3c 40 c2 1f 	mov	#8130,	r12	;#0x1fc2
    851c:	3d 40 06 02 	mov	#518,	r13	;#0x0206
    8520:	1e 42 94 1c 	mov	&0x1c94,r14	
    8524:	7f 40 03 00 	mov.b	#3,	r15	;#0x0003
    8528:	b0 12 bc 88 	call	#0x88bc	
    852c:	21 53       	incd	r1		
    852e:	d0 3c       	jmp	$+418    	;abs 0x86d0
    8530:	49 49       	mov.b	r9,	r9	
    8532:	59 06       	rlam	#2,	r9	
    8534:	0f 49       	mov	r9,	r15	
    8536:	5f 0a       	rlam	#3,	r15	
    8538:	0f 89       	sub	r9,	r15	
    853a:	ff b2 88 23 	bit.b	#8,	9096(r15);r2 As==11, 0x2388(r15)
    853e:	0e 43       	clr	r14		
    8540:	0e 6e       	rlc	r14		
    8542:	5f 42 ca 1f 	mov.b	&0x1fca,r15	
    8546:	5d 42 cb 1f 	mov.b	&0x1fcb,r13	
    854a:	8f 10       	swpb	r15		
    854c:	0f dd       	bis	r13,	r15	
    854e:	4e 93       	tst.b	r14		
    8550:	0b 20       	jnz	$+24     	;abs 0x8568
    8552:	0a 9f       	cmp	r15,	r10	
    8554:	06 20       	jnz	$+14     	;abs 0x8562
    8556:	e2 b2 c9 1f 	bit.b	#4,	&0x1fc9	;r2 As==10
    855a:	03 24       	jz	$+8      	;abs 0x8562
    855c:	5f 42 c8 1f 	mov.b	&0x1fc8,r15	
    8560:	08 3c       	jmp	$+18     	;abs 0x8572
    8562:	b0 12 22 8f 	call	#0x8f22	
    8566:	b4 3c       	jmp	$+362    	;abs 0x86d0
    8568:	0a 9f       	cmp	r15,	r10	
    856a:	02 24       	jz	$+6      	;abs 0x8570
    856c:	80 00 94 82 	bra	#0x08294	
    8570:	0f 43       	clr	r15		
    8572:	b0 12 c2 8e 	call	#0x8ec2	
    8576:	ac 3c       	jmp	$+346    	;abs 0x86d0
    8578:	f2 93 0b 1c 	cmp.b	#-1,	&0x1c0b	;r3 As==11
    857c:	04 24       	jz	$+10     	;abs 0x8586
    857e:	0e 43       	clr	r14		
    8580:	0f 4b       	mov	r11,	r15	
    8582:	b0 12 24 8a 	call	#0x8a24	
    8586:	5e 42 18 1c 	mov.b	&0x1c18,r14	
    858a:	7e 93       	cmp.b	#-1,	r14	;r3 As==11
    858c:	a1 24       	jz	$+324    	;abs 0x86d0
    858e:	0b 93       	tst	r11		
    8590:	02 24       	jz	$+6      	;abs 0x8596
    8592:	80 00 de 81 	bra	#0x081de	
    8596:	5f 42 dd 1e 	mov.b	&0x1edd,r15	
    859a:	4f 93       	tst.b	r15		
    859c:	12 24       	jz	$+38     	;abs 0x85c2
    859e:	7f 90 06 00 	cmp.b	#6,	r15	;#0x0006
    85a2:	96 20       	jnz	$+302    	;abs 0x86d0
    85a4:	c2 43 dd 1e 	mov.b	#0,	&0x1edd	;r3 As==00
    85a8:	5e 42 c9 1f 	mov.b	&0x1fc9,r14	
    85ac:	5e f3       	and.b	#1,	r14	;r3 As==01
    85ae:	1f 42 94 1c 	mov	&0x1c94,r15	
    85b2:	03 24       	jz	$+8      	;abs 0x85ba
    85b4:	7e 40 06 00 	mov.b	#6,	r14	;#0x0006
    85b8:	01 3c       	jmp	$+4      	;abs 0x85bc
    85ba:	7e 42       	mov.b	#8,	r14	;r2 As==11
    85bc:	b0 12 72 92 	call	#0x9272	
    85c0:	87 3c       	jmp	$+272    	;abs 0x86d0
    85c2:	4e 4e       	mov.b	r14,	r14	
    85c4:	5e 06       	rlam	#2,	r14	
    85c6:	0f 4e       	mov	r14,	r15	
    85c8:	5f 0a       	rlam	#3,	r15	
    85ca:	0f 8e       	sub	r14,	r15	
    85cc:	3f 50 80 23 	add	#9088,	r15	;#0x2380
    85d0:	bf 90 06 02 10 00 	cmp	#518,	16(r15)	;#0x0206, 0x0010(r15)
    85d6:	02 24       	jz	$+6      	;abs 0x85dc
    85d8:	80 00 94 82 	bra	#0x08294	
    85dc:	b0 12 c2 8a 	call	#0x8ac2	
    85e0:	77 3c       	jmp	$+240    	;abs 0x86d0
    85e2:	f2 93 0b 1c 	cmp.b	#-1,	&0x1c0b	;r3 As==11
    85e6:	04 24       	jz	$+10     	;abs 0x85f0
    85e8:	0e 43       	clr	r14		
    85ea:	0f 4b       	mov	r11,	r15	
    85ec:	b0 12 08 7c 	call	#0x7c08	
    85f0:	5e 42 18 1c 	mov.b	&0x1c18,r14	
    85f4:	7e 93       	cmp.b	#-1,	r14	;r3 As==11
    85f6:	6c 24       	jz	$+218    	;abs 0x86d0
    85f8:	0b 93       	tst	r11		
    85fa:	02 24       	jz	$+6      	;abs 0x8600
    85fc:	80 00 de 81 	bra	#0x081de	
    8600:	4e 4e       	mov.b	r14,	r14	
    8602:	5e 06       	rlam	#2,	r14	
    8604:	0f 4e       	mov	r14,	r15	
    8606:	5f 0a       	rlam	#3,	r15	
    8608:	0f 8e       	sub	r14,	r15	
    860a:	0b 4f       	mov	r15,	r11	
    860c:	3b 50 80 23 	add	#9088,	r11	;#0x2380
    8610:	6e 4b       	mov.b	@r11,	r14	
    8612:	6e 93       	cmp.b	#2,	r14	;r3 As==10
    8614:	1f 24       	jz	$+64     	;abs 0x8654
    8616:	7e 90 03 00 	cmp.b	#3,	r14	;#0x0003
    861a:	2a 24       	jz	$+86     	;abs 0x8670
    861c:	5e 93       	cmp.b	#1,	r14	;r3 As==01
    861e:	58 20       	jnz	$+178    	;abs 0x86d0
    8620:	bb 40 06 02 0a 00 	mov	#518,	10(r11)	;#0x0206, 0x000a(r11)
    8626:	8b 43 0c 00 	mov	#0,	12(r11)	;r3 As==00, 0x000c(r11)
    862a:	ef c2 88 23 	bic.b	#4,	9096(r15);r2 As==10, 0x2388(r15)
    862e:	b0 12 34 5d 	call	#0x5d34	
    8632:	b0 12 1a 5e 	call	#0x5e1a	
    8636:	5e 42 18 1c 	mov.b	&0x1c18,r14	
    863a:	5e 06       	rlam	#2,	r14	
    863c:	0f 4e       	mov	r14,	r15	
    863e:	5f 0a       	rlam	#3,	r15	
    8640:	0f 8e       	sub	r14,	r15	
    8642:	5e 4f 88 23 	mov.b	9096(r15),r14	;0x2388(r15)
    8646:	7e f0 f6 ff 	and.b	#-10,	r14	;#0xfff6
    864a:	5e d3       	bis.b	#1,	r14	;r3 As==01
    864c:	cf 4e 88 23 	mov.b	r14,	9096(r15);0x2388(r15)
    8650:	80 00 94 82 	bra	#0x08294	
    8654:	3f 40 c4 1f 	mov	#8132,	r15	;#0x1fc4
    8658:	b0 12 3a 4b 	call	#0x4b3a	
    865c:	3e 50 06 02 	add	#518,	r14	;#0x0206
    8660:	0f 63       	adc	r15		
    8662:	8b 4e 0a 00 	mov	r14,	10(r11)	;0x000a(r11)
    8666:	8b 4f 0c 00 	mov	r15,	12(r11)	;0x000c(r11)
    866a:	b0 12 d6 8c 	call	#0x8cd6	
    866e:	30 3c       	jmp	$+98     	;abs 0x86d0
    8670:	3f 40 c4 1f 	mov	#8132,	r15	;#0x1fc4
    8674:	b0 12 3a 4b 	call	#0x4b3a	
    8678:	3e 50 06 02 	add	#518,	r14	;#0x0206
    867c:	0f 63       	adc	r15		
    867e:	8b 4e 0a 00 	mov	r14,	10(r11)	;0x000a(r11)
    8682:	8b 4f 0c 00 	mov	r15,	12(r11)	;0x000c(r11)
    8686:	80 00 94 82 	bra	#0x08294	
    868a:	f2 93 18 1c 	cmp.b	#-1,	&0x1c18	;r3 As==11
    868e:	20 24       	jz	$+66     	;abs 0x86d0
    8690:	0b 93       	tst	r11		
    8692:	02 24       	jz	$+6      	;abs 0x8698
    8694:	80 00 de 81 	bra	#0x081de	
    8698:	c2 43 c9 1f 	mov.b	#0,	&0x1fc9	;r3 As==00
    869c:	b0 12 fa 8b 	call	#0x8bfa	
    86a0:	17 3c       	jmp	$+48     	;abs 0x86d0
    86a2:	f2 93 0b 1c 	cmp.b	#-1,	&0x1c0b	;r3 As==11
    86a6:	04 24       	jz	$+10     	;abs 0x86b0
    86a8:	0e 43       	clr	r14		
    86aa:	0f 4b       	mov	r11,	r15	
    86ac:	b0 12 08 7c 	call	#0x7c08	
    86b0:	f2 93 18 1c 	cmp.b	#-1,	&0x1c18	;r3 As==11
    86b4:	0d 24       	jz	$+28     	;abs 0x86d0
    86b6:	0b 93       	tst	r11		
    86b8:	02 24       	jz	$+6      	;abs 0x86be
    86ba:	80 00 de 81 	bra	#0x081de	
    86be:	b0 12 a6 8b 	call	#0x8ba6	
    86c2:	06 3c       	jmp	$+14     	;abs 0x86d0
    86c4:	f2 93 0c 1c 	cmp.b	#-1,	&0x1c0c	;r3 As==11
    86c8:	03 24       	jz	$+8      	;abs 0x86d0
    86ca:	0f 4b       	mov	r11,	r15	
    86cc:	b0 12 ee 91 	call	#0x91ee	
    86d0:	38 17       	popm	#4,	r11	
    86d2:	30 41       	ret			

000086d4 <At45dbP__handleRWRequest>:
    86d4:	2b 15       	pushm	#3,	r11	
    86d6:	1c 42 66 1f 	mov	&0x1f66,r12	
    86da:	5f 42 3b 21 	mov.b	&0x213b,r15	
    86de:	4e 4f       	mov.b	r15,	r14	
    86e0:	59 42 5c 1f 	mov.b	&0x1f5c,r9	
    86e4:	0a 4e       	mov	r14,	r10	
    86e6:	5a 06       	rlam	#2,	r10	
    86e8:	0b 4a       	mov	r10,	r11	
    86ea:	3b 50 cc 1e 	add	#7884,	r11	;#0x1ecc
    86ee:	3a 50 ce 1e 	add	#7886,	r10	;#0x1ece
    86f2:	2c 9b       	cmp	@r11,	r12	
    86f4:	ba 20       	jnz	$+374    	;abs 0x886a
    86f6:	5d 42 5c 1f 	mov.b	&0x1f5c,r13	
    86fa:	4b 4d       	mov.b	r13,	r11	
    86fc:	7b 53       	add.b	#-1,	r11	;r3 As==11
    86fe:	7b 90 09 00 	cmp.b	#9,	r11	;#0x0009
    8702:	da 2c       	jc	$+438    	;abs 0x88b8
    8704:	4b 4b       	mov.b	r11,	r11	
    8706:	5b 02       	rlam	#1,	r11	
    8708:	10 4b 34 ce 	br	-12748(r11)	;0xce34(r11)
    870c:	1f 42 56 24 	mov	&0x2456,r15	
    8710:	1f 93       	cmp	#1,	r15	;r3 As==01
    8712:	17 24       	jz	$+48     	;abs 0x8742
    8714:	03 28       	jnc	$+8      	;abs 0x871c
    8716:	2f 93       	cmp	#2,	r15	;r3 As==10
    8718:	cf 20       	jnz	$+416    	;abs 0x88b8
    871a:	0f 3c       	jmp	$+32     	;abs 0x873a
    871c:	c2 93 84 1c 	tst.b	&0x1c84	
    8720:	03 24       	jz	$+8      	;abs 0x8728
    8722:	b0 12 18 60 	call	#0x6018	
    8726:	c8 3c       	jmp	$+402    	;abs 0x88b8
    8728:	13 12       	push	#1		;r3 As==01
    872a:	03 12       	push	#0		;r3 As==00
    872c:	03 12       	push	#0		;r3 As==00
    872e:	4d 43       	clr.b	r13		
    8730:	7e 40 81 ff 	mov.b	#-127,	r14	;#0xff81
    8734:	7f 40 0b 00 	mov.b	#11,	r15	;#0x000b
    8738:	bb 3c       	jmp	$+376    	;abs 0x88b0
    873a:	0f 4e       	mov	r14,	r15	
    873c:	5f 06       	rlam	#2,	r15	
    873e:	ef d2 ce 1e 	bis.b	#4,	7886(r15);r2 As==10, 0x1ece(r15)
    8742:	5e 06       	rlam	#2,	r14	
    8744:	ee d3 ce 1e 	bis.b	#2,	7886(r14);r3 As==10, 0x1ece(r14)
    8748:	4d 43       	clr.b	r13		
    874a:	0e 43       	clr	r14		
    874c:	0f 43       	clr	r15		
    874e:	b0 12 9e 81 	call	#0x819e	
    8752:	b2 3c       	jmp	$+358    	;abs 0x88b8
    8754:	5e 06       	rlam	#2,	r14	
    8756:	0f 4e       	mov	r14,	r15	
    8758:	3f 50 ce 1e 	add	#7886,	r15	;#0x1ece
    875c:	ef b3 00 00 	bit.b	#2,	0(r15)	;r3 As==10, 0x0000(r15)
    8760:	0d 43       	clr	r13		
    8762:	0d 6d       	rlc	r13		
    8764:	4d 93       	tst.b	r13		
    8766:	03 20       	jnz	$+8      	;abs 0x876e
    8768:	b0 12 24 60 	call	#0x6024	
    876c:	a5 3c       	jmp	$+332    	;abs 0x88b8
    876e:	9e 42 56 24 cc 1e 	mov	&0x2456,7884(r14);0x1ecc(r14)
    8774:	ef c3 00 00 	bic.b	#2,	0(r15)	;r3 As==10, 0x0000(r15)
    8778:	1d 3c       	jmp	$+60     	;abs 0x87b4
    877a:	0c 4e       	mov	r14,	r12	
    877c:	5c 06       	rlam	#2,	r12	
    877e:	3c 50 ce 1e 	add	#7886,	r12	;#0x1ece
    8782:	ec b3 00 00 	bit.b	#2,	0(r12)	;r3 As==10, 0x0000(r12)
    8786:	0b 43       	clr	r11		
    8788:	0b 6b       	rlc	r11		
    878a:	4b 93       	tst.b	r11		
    878c:	07 24       	jz	$+16     	;abs 0x879c
    878e:	6c 4c       	mov.b	@r12,	r12	
    8790:	5c 0b       	rrum	#3,	r12	
    8792:	3c f0 03 00 	and	#3,	r12	;#0x0003
    8796:	4c 93       	tst.b	r12		
    8798:	01 24       	jz	$+4      	;abs 0x879c
    879a:	73 3c       	jmp	$+232    	;abs 0x8882
    879c:	5e 06       	rlam	#2,	r14	
    879e:	ee b3 ce 1e 	bit.b	#2,	7886(r14);r3 As==10, 0x1ece(r14)
    87a2:	0f 43       	clr	r15		
    87a4:	0f 6f       	rlc	r15		
    87a6:	4f 93       	tst.b	r15		
    87a8:	df 27       	jz	$-64     	;abs 0x8768
    87aa:	7d 92       	cmp.b	#8,	r13	;r2 As==11
    87ac:	03 24       	jz	$+8      	;abs 0x87b4
    87ae:	7d 90 06 00 	cmp.b	#6,	r13	;#0x0006
    87b2:	03 20       	jnz	$+8      	;abs 0x87ba
    87b4:	b0 12 44 4f 	call	#0x4f44	
    87b8:	7f 3c       	jmp	$+256    	;abs 0x88b8
    87ba:	c2 43 5c 1f 	mov.b	#0,	&0x1f5c	;r3 As==00
    87be:	4f 4d       	mov.b	r13,	r15	
    87c0:	b0 12 66 91 	call	#0x9166	
    87c4:	79 3c       	jmp	$+244    	;abs 0x88b8
    87c6:	5e 06       	rlam	#2,	r14	
    87c8:	de b3 ce 1e 	bit.b	#1,	7886(r14);r3 As==01, 0x1ece(r14)
    87cc:	0e 43       	clr	r14		
    87ce:	0e 6e       	rlc	r14		
    87d0:	4e 93       	tst.b	r14		
    87d2:	a7 23       	jnz	$-176    	;abs 0x8722
    87d4:	1b 42 e4 20 	mov	&0x20e4,r11	
    87d8:	1c 42 cc 1f 	mov	&0x1fcc,r12	
    87dc:	1d 42 56 24 	mov	&0x2456,r13	
    87e0:	4f 93       	tst.b	r15		
    87e2:	03 24       	jz	$+8      	;abs 0x87ea
    87e4:	7e 40 d4 ff 	mov.b	#-44,	r14	;#0xffd4
    87e8:	02 3c       	jmp	$+6      	;abs 0x87ee
    87ea:	7e 40 d6 ff 	mov.b	#-42,	r14	;#0xffd6
    87ee:	0b 12       	push	r11		
    87f0:	0c 12       	push	r12		
    87f2:	0d 12       	push	r13		
    87f4:	0c 43       	clr	r12		
    87f6:	6d 43       	mov.b	#2,	r13	;r3 As==10
    87f8:	6f 43       	mov.b	#2,	r15	;r3 As==10
    87fa:	5a 3c       	jmp	$+182    	;abs 0x88b0
    87fc:	5e 06       	rlam	#2,	r14	
    87fe:	de b3 ce 1e 	bit.b	#1,	7886(r14);r3 As==01, 0x1ece(r14)
    8802:	0e 43       	clr	r14		
    8804:	0e 6e       	rlc	r14		
    8806:	4e 93       	tst.b	r14		
    8808:	8c 23       	jnz	$-230    	;abs 0x8722
    880a:	1c 42 cc 1f 	mov	&0x1fcc,r12	
    880e:	1b 42 e4 20 	mov	&0x20e4,r11	
    8812:	1d 42 56 24 	mov	&0x2456,r13	
    8816:	4f 93       	tst.b	r15		
    8818:	03 24       	jz	$+8      	;abs 0x8820
    881a:	7e 40 d4 ff 	mov.b	#-44,	r14	;#0xffd4
    881e:	02 3c       	jmp	$+6      	;abs 0x8824
    8820:	7e 40 d6 ff 	mov.b	#-42,	r14	;#0xffd6
    8824:	0b 12       	push	r11		
    8826:	0c 12       	push	r12		
    8828:	0d 12       	push	r13		
    882a:	0c 43       	clr	r12		
    882c:	6d 43       	mov.b	#2,	r13	;r3 As==10
    882e:	7f 40 03 00 	mov.b	#3,	r15	;#0x0003
    8832:	3e 3c       	jmp	$+126    	;abs 0x88b0
    8834:	5e 06       	rlam	#2,	r14	
    8836:	de b3 ce 1e 	bit.b	#1,	7886(r14);r3 As==01, 0x1ece(r14)
    883a:	0e 43       	clr	r14		
    883c:	0e 6e       	rlc	r14		
    883e:	4e 93       	tst.b	r14		
    8840:	70 23       	jnz	$-286    	;abs 0x8722
    8842:	1b 42 e4 20 	mov	&0x20e4,r11	
    8846:	1c 42 cc 1f 	mov	&0x1fcc,r12	
    884a:	1d 42 56 24 	mov	&0x2456,r13	
    884e:	4f 93       	tst.b	r15		
    8850:	03 24       	jz	$+8      	;abs 0x8858
    8852:	7e 40 84 ff 	mov.b	#-124,	r14	;#0xff84
    8856:	02 3c       	jmp	$+6      	;abs 0x885c
    8858:	7e 40 87 ff 	mov.b	#-121,	r14	;#0xff87
    885c:	0b 12       	push	r11		
    885e:	0c 12       	push	r12		
    8860:	0d 12       	push	r13		
    8862:	0c 43       	clr	r12		
    8864:	4d 43       	clr.b	r13		
    8866:	6f 42       	mov.b	#4,	r15	;r2 As==10
    8868:	23 3c       	jmp	$+72     	;abs 0x88b0
    886a:	ea b3 00 00 	bit.b	#2,	0(r10)	;r3 As==10, 0x0000(r10)
    886e:	0d 43       	clr	r13		
    8870:	0d 6d       	rlc	r13		
    8872:	4d 93       	tst.b	r13		
    8874:	79 27       	jz	$-268    	;abs 0x8768
    8876:	6d 4a       	mov.b	@r10,	r13	
    8878:	5d 0b       	rrum	#3,	r13	
    887a:	3d f0 03 00 	and	#3,	r13	;#0x0003
    887e:	4d 93       	tst.b	r13		
    8880:	03 24       	jz	$+8      	;abs 0x8888
    8882:	b0 12 7c 60 	call	#0x607c	
    8886:	18 3c       	jmp	$+50     	;abs 0x88b8
    8888:	69 92       	cmp.b	#4,	r9	;r2 As==10
    888a:	03 20       	jnz	$+8      	;abs 0x8892
    888c:	8b 4c 00 00 	mov	r12,	0(r11)	;0x0000(r11)
    8890:	30 3f       	jmp	$-414    	;abs 0x86f2
    8892:	c2 93 84 1c 	tst.b	&0x1c84	
    8896:	45 23       	jnz	$-372    	;abs 0x8722
    8898:	4f 93       	tst.b	r15		
    889a:	03 24       	jz	$+8      	;abs 0x88a2
    889c:	7e 40 53 00 	mov.b	#83,	r14	;#0x0053
    88a0:	02 3c       	jmp	$+6      	;abs 0x88a6
    88a2:	7e 40 55 00 	mov.b	#85,	r14	;#0x0055
    88a6:	13 12       	push	#1		;r3 As==01
    88a8:	03 12       	push	#0		;r3 As==00
    88aa:	03 12       	push	#0		;r3 As==00
    88ac:	4d 43       	clr.b	r13		
    88ae:	7f 42       	mov.b	#8,	r15	;r2 As==11
    88b0:	b0 12 d2 5f 	call	#0x5fd2	
    88b4:	31 50 06 00 	add	#6,	r1	;#0x0006
    88b8:	29 17       	popm	#3,	r11	
    88ba:	30 41       	ret			

000088bc <At45dbP__newRequest>:
    88bc:	0b 12       	push	r11		
    88be:	1b 41 04 00 	mov	4(r1),	r11	;0x0004(r1)
    88c2:	c2 4f 5c 1f 	mov.b	r15,	&0x1f5c	
    88c6:	82 4b e4 20 	mov	r11,	&0x20e4	
    88ca:	82 4c cc 1f 	mov	r12,	&0x1fcc	
    88ce:	82 4e 66 1f 	mov	r14,	&0x1f66	
    88d2:	82 4d 56 24 	mov	r13,	&0x2456	
    88d6:	1e 92 cc 1e 	cmp	&0x1ecc,r14	
    88da:	03 20       	jnz	$+8      	;abs 0x88e2
    88dc:	c2 43 3b 21 	mov.b	#0,	&0x213b	;r3 As==00
    88e0:	0d 3c       	jmp	$+28     	;abs 0x88fc
    88e2:	1e 92 d0 1e 	cmp	&0x1ed0,r14	
    88e6:	03 20       	jnz	$+8      	;abs 0x88ee
    88e8:	d2 43 3b 21 	mov.b	#1,	&0x213b	;r3 As==01
    88ec:	07 3c       	jmp	$+16     	;abs 0x88fc
    88ee:	5c 43       	mov.b	#1,	r12	;r3 As==01
    88f0:	c2 93 3b 21 	tst.b	&0x213b	
    88f4:	01 24       	jz	$+4      	;abs 0x88f8
    88f6:	4c 43       	clr.b	r12		
    88f8:	c2 4c 3b 21 	mov.b	r12,	&0x213b	
    88fc:	3e 90 00 20 	cmp	#8192,	r14	;#0x2000
    8900:	11 2c       	jc	$+36     	;abs 0x8924
    8902:	3b 90 11 02 	cmp	#529,	r11	;#0x0211
    8906:	0e 2c       	jc	$+30     	;abs 0x8924
    8908:	7f 90 05 00 	cmp.b	#5,	r15	;#0x0005
    890c:	08 24       	jz	$+18     	;abs 0x891e
    890e:	3d 90 10 02 	cmp	#528,	r13	;#0x0210
    8912:	08 2c       	jc	$+18     	;abs 0x8924
    8914:	0d 5b       	add	r11,	r13	
    8916:	3d 90 11 02 	cmp	#529,	r13	;#0x0211
    891a:	09 28       	jnc	$+20     	;abs 0x892e
    891c:	03 3c       	jmp	$+8      	;abs 0x8924
    891e:	3d 90 00 20 	cmp	#8192,	r13	;#0x2000
    8922:	05 28       	jnc	$+12     	;abs 0x892e
    8924:	7f 40 1a 00 	mov.b	#26,	r15	;#0x001a
    8928:	b0 12 f6 4e 	call	#0x4ef6	
    892c:	02 3c       	jmp	$+6      	;abs 0x8932
    892e:	b0 12 d4 86 	call	#0x86d4	
    8932:	3b 41       	pop	r11		
    8934:	30 41       	ret			

00008936 <BlockStorageP__multipageContinue>:
    8936:	7b 15       	pushm	#8,	r11	
    8938:	21 82       	sub	#4,	r1	;r2 As==10
    893a:	81 4f 02 00 	mov	r15,	2(r1)	;0x0002(r1)
    893e:	54 42 0b 1c 	mov.b	&0x1c0b,r4	
    8942:	45 44       	mov.b	r4,	r5	
    8944:	18 42 d8 1e 	mov	&0x1ed8,r8	
    8948:	19 42 da 1e 	mov	&0x1eda,r9	
    894c:	0e 45       	mov	r5,	r14	
    894e:	5e 06       	rlam	#2,	r14	
    8950:	0d 45       	mov	r5,	r13	
    8952:	5d 0e       	rlam	#4,	r13	
    8954:	0f 4d       	mov	r13,	r15	
    8956:	0f 8e       	sub	r14,	r15	
    8958:	3f 50 c4 20 	add	#8388,	r15	;#0x20c4
    895c:	1a 4f 08 00 	mov	8(r15),	r10	;0x0008(r15)
    8960:	1b 4f 0a 00 	mov	10(r15),r11	;0x000a(r15)
    8964:	0a 88       	sub	r8,	r10	
    8966:	0b 79       	subc	r9,	r11	
    8968:	91 4f 02 00 00 00 	mov	2(r15),	0(r1)	;0x0002(r15), 0x0000(r1)
    896e:	0a 93       	tst	r10		
    8970:	08 20       	jnz	$+18     	;abs 0x8982
    8972:	0b 93       	tst	r11		
    8974:	06 20       	jnz	$+14     	;abs 0x8982
    8976:	1e 41 02 00 	mov	2(r1),	r14	;0x0002(r1)
    897a:	0f 43       	clr	r15		
    897c:	b0 12 08 7c 	call	#0x7c08	
    8980:	4e 3c       	jmp	$+158    	;abs 0x8a1e
    8982:	0d 8e       	sub	r14,	r13	
    8984:	3d 50 c4 20 	add	#8388,	r13	;#0x20c4
    8988:	06 48       	mov	r8,	r6	
    898a:	07 49       	mov	r9,	r7	
    898c:	16 5d 04 00 	add	4(r13),	r6	;0x0004(r13)
    8990:	17 6d 06 00 	addc	6(r13),	r7	;0x0006(r13)
    8994:	3c 40 10 02 	mov	#528,	r12	;#0x0210
    8998:	0d 43       	clr	r13		
    899a:	0e 46       	mov	r6,	r14	
    899c:	0f 47       	mov	r7,	r15	
    899e:	b0 12 08 bd 	call	#0xbd08	
    89a2:	4f 44       	mov.b	r4,	r15	
    89a4:	b0 12 be 5c 	call	#0x5cbe	
    89a8:	04 4f       	mov	r15,	r4	
    89aa:	3c 40 10 02 	mov	#528,	r12	;#0x0210
    89ae:	0d 43       	clr	r13		
    89b0:	0e 46       	mov	r6,	r14	
    89b2:	0f 47       	mov	r7,	r15	
    89b4:	b0 12 36 bd 	call	#0xbd36	
    89b8:	0d 4e       	mov	r14,	r13	
    89ba:	37 40 10 02 	mov	#528,	r7	;#0x0210
    89be:	07 8e       	sub	r14,	r7	
    89c0:	0b 93       	tst	r11		
    89c2:	03 20       	jnz	$+8      	;abs 0x89ca
    89c4:	0a 97       	cmp	r7,	r10	
    89c6:	01 2c       	jc	$+4      	;abs 0x89ca
    89c8:	07 4a       	mov	r10,	r7	
    89ca:	0f 45       	mov	r5,	r15	
    89cc:	5f 06       	rlam	#2,	r15	
    89ce:	55 0e       	rlam	#4,	r5	
    89d0:	05 8f       	sub	r15,	r5	
    89d2:	5f 45 c4 20 	mov.b	8388(r5),r15	;0x20c4(r5)
    89d6:	6f 92       	cmp.b	#4,	r15	;r2 As==10
    89d8:	0d 24       	jz	$+28     	;abs 0x89f4
    89da:	7f 90 05 00 	cmp.b	#5,	r15	;#0x0005
    89de:	11 24       	jz	$+36     	;abs 0x8a02
    89e0:	5f 93       	cmp.b	#1,	r15	;r3 As==01
    89e2:	17 20       	jnz	$+48     	;abs 0x8a12
    89e4:	07 12       	push	r7		
    89e6:	1c 41 02 00 	mov	2(r1),	r12	;0x0002(r1)
    89ea:	0c 58       	add	r8,	r12	
    89ec:	0e 44       	mov	r4,	r14	
    89ee:	7f 40 03 00 	mov.b	#3,	r15	;#0x0003
    89f2:	0c 3c       	jmp	$+26     	;abs 0x8a0c
    89f4:	07 12       	push	r7		
    89f6:	1c 41 02 00 	mov	2(r1),	r12	;0x0002(r1)
    89fa:	0c 58       	add	r8,	r12	
    89fc:	0e 44       	mov	r4,	r14	
    89fe:	5f 43       	mov.b	#1,	r15	;r3 As==01
    8a00:	05 3c       	jmp	$+12     	;abs 0x8a0c
    8a02:	07 12       	push	r7		
    8a04:	1c 41 04 00 	mov	4(r1),	r12	;0x0004(r1)
    8a08:	0e 44       	mov	r4,	r14	
    8a0a:	6f 43       	mov.b	#2,	r15	;r3 As==10
    8a0c:	b0 12 bc 88 	call	#0x88bc	
    8a10:	21 53       	incd	r1		
    8a12:	0e 47       	mov	r7,	r14	
    8a14:	0f 43       	clr	r15		
    8a16:	82 5e d8 1e 	add	r14,	&0x1ed8	
    8a1a:	82 6f da 1e 	addc	r15,	&0x1eda	
    8a1e:	21 52       	add	#4,	r1	;r2 As==10
    8a20:	74 17       	popm	#8,	r11	
    8a22:	30 41       	ret			

00008a24 <BlockStorageP__multipageOpDone>:
    8a24:	0f 93       	tst	r15		
    8a26:	04 24       	jz	$+10     	;abs 0x8a30
    8a28:	0e 43       	clr	r14		
    8a2a:	b0 12 08 7c 	call	#0x7c08	
    8a2e:	30 41       	ret			
    8a30:	0f 4e       	mov	r14,	r15	
    8a32:	b0 12 36 89 	call	#0x8936	
    8a36:	30 41       	ret			

00008a38 <LogStorageP__readMetadata>:
    8a38:	30 12 0a 00 	push	#10		;#0x000a
    8a3c:	3c 40 c2 1f 	mov	#8130,	r12	;#0x1fc2
    8a40:	3d 40 06 02 	mov	#518,	r13	;#0x0206
    8a44:	0e 4f       	mov	r15,	r14	
    8a46:	5f 43       	mov.b	#1,	r15	;r3 As==01
    8a48:	b0 12 bc 88 	call	#0x88bc	
    8a4c:	21 53       	incd	r1		
    8a4e:	30 41       	ret			

00008a50 <LogStorageP__locateLastRecord>:
    8a50:	1b 15       	pushm	#2,	r11	
    8a52:	1b 42 94 1c 	mov	&0x1c94,r11	
    8a56:	1a 42 c4 22 	mov	&0x22c4,r10	
    8a5a:	0b 9a       	cmp	r10,	r11	
    8a5c:	04 20       	jnz	$+10     	;abs 0x8a66
    8a5e:	1f 43       	mov	#1,	r15	;r3 As==01
    8a60:	b0 12 cc 7e 	call	#0x7ecc	
    8a64:	0e 3c       	jmp	$+30     	;abs 0x8a82
    8a66:	b0 12 34 5d 	call	#0x5d34	
    8a6a:	0b 9f       	cmp	r15,	r11	
    8a6c:	03 20       	jnz	$+8      	;abs 0x8a74
    8a6e:	82 4a 94 1c 	mov	r10,	&0x1c94	
    8a72:	03 3c       	jmp	$+8      	;abs 0x8a7a
    8a74:	3b 53       	add	#-1,	r11	;r3 As==11
    8a76:	82 4b 94 1c 	mov	r11,	&0x1c94	
    8a7a:	1f 42 94 1c 	mov	&0x1c94,r15	
    8a7e:	b0 12 38 8a 	call	#0x8a38	
    8a82:	1a 17       	popm	#2,	r11	
    8a84:	30 41       	ret			

00008a86 <LogStorageP__locateBinarySearch>:
    8a86:	92 92 c4 22 94 1c 	cmp	&0x22c4,&0x1c94	
    8a8c:	0b 28       	jnc	$+24     	;abs 0x8aa4
    8a8e:	f2 40 03 00 dd 1e 	mov.b	#3,	&0x1edd	;#0x0003
    8a94:	b0 12 0a 5e 	call	#0x5e0a	
    8a98:	3f 53       	add	#-1,	r15	;r3 As==11
    8a9a:	82 4f c4 22 	mov	r15,	&0x22c4	
    8a9e:	b0 12 50 8a 	call	#0x8a50	
    8aa2:	30 41       	ret			
    8aa4:	b0 12 c6 4b 	call	#0x4bc6	
    8aa8:	b0 12 38 8a 	call	#0x8a38	
    8aac:	30 41       	ret			

00008aae <LogStorageP__crcPage>:
    8aae:	30 12 0e 02 	push	#526		;#0x020e
    8ab2:	0c 43       	clr	r12		
    8ab4:	0d 43       	clr	r13		
    8ab6:	0e 4f       	mov	r15,	r14	
    8ab8:	6f 43       	mov.b	#2,	r15	;r3 As==10
    8aba:	b0 12 bc 88 	call	#0x88bc	
    8abe:	21 53       	incd	r1		
    8ac0:	30 41       	ret			

00008ac2 <LogStorageP__wmetadataStart>:
    8ac2:	0b 12       	push	r11		
    8ac4:	f2 40 06 00 dd 1e 	mov.b	#6,	&0x1edd	;#0x0006
    8aca:	5f 42 18 1c 	mov.b	&0x1c18,r15	
    8ace:	5f 06       	rlam	#2,	r15	
    8ad0:	0d 4f       	mov	r15,	r13	
    8ad2:	5d 0a       	rlam	#3,	r13	
    8ad4:	0d 8f       	sub	r15,	r13	
    8ad6:	3d 50 80 23 	add	#9088,	r13	;#0x2380
    8ada:	92 4d 0e 00 94 1c 	mov	14(r13),&0x1c94	;0x000e(r13)
    8ae0:	1e 4d 10 00 	mov	16(r13),r14	;0x0010(r13)
    8ae4:	0f 43       	clr	r15		
    8ae6:	1b 4d 0a 00 	mov	10(r13),r11	;0x000a(r13)
    8aea:	1c 4d 0c 00 	mov	12(r13),r12	;0x000c(r13)
    8aee:	0b 8e       	sub	r14,	r11	
    8af0:	0c 7f       	subc	r15,	r12	
    8af2:	0d 4b       	mov	r11,	r13	
    8af4:	0e 4c       	mov	r12,	r14	
    8af6:	3f 40 c4 1f 	mov	#8132,	r15	;#0x1fc4
    8afa:	b0 12 0e 4b 	call	#0x4b0e	
    8afe:	f2 40 56 00 c3 1f 	mov.b	#86,	&0x1fc3	;#0x0056
    8b04:	f2 40 42 00 c2 1f 	mov.b	#66,	&0x1fc2	;#0x0042
    8b0a:	5f 42 18 1c 	mov.b	&0x1c18,r15	
    8b0e:	5f 06       	rlam	#2,	r15	
    8b10:	0e 4f       	mov	r15,	r14	
    8b12:	5e 0a       	rlam	#3,	r14	
    8b14:	0e 8f       	sub	r15,	r14	
    8b16:	ee b2 88 23 	bit.b	#4,	9096(r14);r2 As==10, 0x2388(r14)
    8b1a:	0f 43       	clr	r15		
    8b1c:	0f 6f       	rlc	r15		
    8b1e:	4f 93       	tst.b	r15		
    8b20:	02 24       	jz	$+6      	;abs 0x8b26
    8b22:	e2 d3 c9 1f 	bis.b	#2,	&0x1fc9	;r3 As==10
    8b26:	30 12 06 02 	push	#518		;#0x0206
    8b2a:	0c 43       	clr	r12		
    8b2c:	0d 43       	clr	r13		
    8b2e:	1e 42 94 1c 	mov	&0x1c94,r14	
    8b32:	6f 43       	mov.b	#2,	r15	;r3 As==10
    8b34:	b0 12 bc 88 	call	#0x88bc	
    8b38:	21 53       	incd	r1		
    8b3a:	5e 42 18 1c 	mov.b	&0x1c18,r14	
    8b3e:	5e 06       	rlam	#2,	r14	
    8b40:	0f 4e       	mov	r14,	r15	
    8b42:	5f 0a       	rlam	#3,	r15	
    8b44:	0f 8e       	sub	r14,	r15	
    8b46:	3f 50 80 23 	add	#9088,	r15	;#0x2380
    8b4a:	1f 4f 0e 00 	mov	14(r15),r15	;0x000e(r15)
    8b4e:	1f 53       	inc	r15		
    8b50:	b0 12 1a 5e 	call	#0x5e1a	
    8b54:	5e 42 18 1c 	mov.b	&0x1c18,r14	
    8b58:	5e 06       	rlam	#2,	r14	
    8b5a:	0f 4e       	mov	r14,	r15	
    8b5c:	5f 0a       	rlam	#3,	r15	
    8b5e:	0f 8e       	sub	r14,	r15	
    8b60:	0e 4f       	mov	r15,	r14	
    8b62:	3e 50 80 23 	add	#9088,	r14	;#0x2380
    8b66:	9e 9e 16 00 0e 00 	cmp	22(r14),14(r14)	;0x0016(r14), 0x000e(r14)
    8b6c:	02 20       	jnz	$+6      	;abs 0x8b72
    8b6e:	ff c2 88 23 	bic.b	#8,	9096(r15);r2 As==11, 0x2388(r15)
    8b72:	3b 41       	pop	r11		
    8b74:	30 41       	ret			

00008b76 <LogStorageP__sync>:
    8b76:	f2 40 05 00 c9 1f 	mov.b	#5,	&0x1fc9	;#0x0005
    8b7c:	5e 42 18 1c 	mov.b	&0x1c18,r14	
    8b80:	5e 06       	rlam	#2,	r14	
    8b82:	0f 4e       	mov	r14,	r15	
    8b84:	5f 0a       	rlam	#3,	r15	
    8b86:	0f 8e       	sub	r14,	r15	
    8b88:	3f 50 80 23 	add	#9088,	r15	;#0x2380
    8b8c:	1e 4f 10 00 	mov	16(r15),r14	;0x0010(r15)
    8b90:	c2 4e c8 1f 	mov.b	r14,	&0x1fc8	
    8b94:	9f 9f 0e 00 16 00 	cmp	14(r15),22(r15)	;0x000e(r15), 0x0016(r15)
    8b9a:	02 20       	jnz	$+6      	;abs 0x8ba0
    8b9c:	8f 4e 1a 00 	mov	r14,	26(r15)	;0x001a(r15)
    8ba0:	b0 12 c2 8a 	call	#0x8ac2	
    8ba4:	30 41       	ret			

00008ba6 <LogStorageP__eraseEraseDone>:
    8ba6:	1f 42 94 1c 	mov	&0x1c94,r15	
    8baa:	1e 42 c4 22 	mov	&0x22c4,r14	
    8bae:	3e 53       	add	#-1,	r14	;r3 As==11
    8bb0:	0f 9e       	cmp	r14,	r15	
    8bb2:	16 20       	jnz	$+46     	;abs 0x8be0
    8bb4:	f2 40 05 00 c9 1f 	mov.b	#5,	&0x1fc9	;#0x0005
    8bba:	c2 43 c8 1f 	mov.b	#0,	&0x1fc8	;r3 As==00
    8bbe:	b0 12 1a 5e 	call	#0x5e1a	
    8bc2:	5e 42 18 1c 	mov.b	&0x1c18,r14	
    8bc6:	5e 06       	rlam	#2,	r14	
    8bc8:	0f 4e       	mov	r14,	r15	
    8bca:	5f 0a       	rlam	#3,	r15	
    8bcc:	0f 8e       	sub	r14,	r15	
    8bce:	ef c2 88 23 	bic.b	#4,	9096(r15);r2 As==10, 0x2388(r15)
    8bd2:	8f 43 8a 23 	mov	#0,	9098(r15);r3 As==00, 0x238a(r15)
    8bd6:	8f 43 8c 23 	mov	#0,	9100(r15);r3 As==00, 0x238c(r15)
    8bda:	b0 12 c2 8a 	call	#0x8ac2	
    8bde:	30 41       	ret			
    8be0:	0e 4f       	mov	r15,	r14	
    8be2:	1e 53       	inc	r14		
    8be4:	82 4e 94 1c 	mov	r14,	&0x1c94	
    8be8:	03 12       	push	#0		;r3 As==00
    8bea:	0c 43       	clr	r12		
    8bec:	0d 43       	clr	r13		
    8bee:	0e 4f       	mov	r15,	r14	
    8bf0:	6f 42       	mov.b	#4,	r15	;r2 As==10
    8bf2:	b0 12 bc 88 	call	#0x88bc	
    8bf6:	21 53       	incd	r1		
    8bf8:	30 41       	ret			

00008bfa <LogStorageP__appendContinue>:
    8bfa:	6b 15       	pushm	#7,	r11	
    8bfc:	55 42 18 1c 	mov.b	&0x1c18,r5	
    8c00:	0e 45       	mov	r5,	r14	
    8c02:	5e 06       	rlam	#2,	r14	
    8c04:	0f 4e       	mov	r14,	r15	
    8c06:	5f 0a       	rlam	#3,	r15	
    8c08:	0f 8e       	sub	r14,	r15	
    8c0a:	3f 50 80 23 	add	#9088,	r15	;#0x2380
    8c0e:	17 4f 02 00 	mov	2(r15),	r7	;0x0002(r15)
    8c12:	18 42 34 21 	mov	&0x2134,r8	
    8c16:	19 42 36 21 	mov	&0x2136,r9	
    8c1a:	16 4f 10 00 	mov	16(r15),r6	;0x0010(r15)
    8c1e:	1a 4f 04 00 	mov	4(r15),	r10	;0x0004(r15)
    8c22:	1b 4f 06 00 	mov	6(r15),	r11	;0x0006(r15)
    8c26:	0a 88       	sub	r8,	r10	
    8c28:	0b 79       	subc	r9,	r11	
    8c2a:	0a 93       	tst	r10		
    8c2c:	04 20       	jnz	$+10     	;abs 0x8c36
    8c2e:	0b 93       	tst	r11		
    8c30:	02 20       	jnz	$+6      	;abs 0x8c36
    8c32:	0f 43       	clr	r15		
    8c34:	0d 3c       	jmp	$+28     	;abs 0x8c50
    8c36:	b0 12 0a 5e 	call	#0x5e0a	
    8c3a:	0d 45       	mov	r5,	r13	
    8c3c:	5d 06       	rlam	#2,	r13	
    8c3e:	0e 4d       	mov	r13,	r14	
    8c40:	5e 0a       	rlam	#3,	r14	
    8c42:	0e 8d       	sub	r13,	r14	
    8c44:	3e 50 80 23 	add	#9088,	r14	;#0x2380
    8c48:	1f 9e 0e 00 	cmp	14(r14),r15	;0x000e(r14)
    8c4c:	04 20       	jnz	$+10     	;abs 0x8c56
    8c4e:	2f 43       	mov	#2,	r15	;r3 As==10
    8c50:	b0 12 cc 7e 	call	#0x7ecc	
    8c54:	3e 3c       	jmp	$+126    	;abs 0x8cd2
    8c56:	0e 46       	mov	r6,	r14	
    8c58:	0f 43       	clr	r15		
    8c5a:	0e 5a       	add	r10,	r14	
    8c5c:	0f 6b       	addc	r11,	r15	
    8c5e:	1f 93       	cmp	#1,	r15	;r3 As==01
    8c60:	03 2c       	jc	$+8      	;abs 0x8c68
    8c62:	3e 90 07 02 	cmp	#519,	r14	;#0x0207
    8c66:	03 28       	jnc	$+8      	;abs 0x8c6e
    8c68:	3a 40 06 02 	mov	#518,	r10	;#0x0206
    8c6c:	0a 86       	sub	r6,	r10	
    8c6e:	0e 4a       	mov	r10,	r14	
    8c70:	0f 43       	clr	r15		
    8c72:	0c 45       	mov	r5,	r12	
    8c74:	5c 06       	rlam	#2,	r12	
    8c76:	0d 4c       	mov	r12,	r13	
    8c78:	5d 0a       	rlam	#3,	r13	
    8c7a:	0d 8c       	sub	r12,	r13	
    8c7c:	0c 4d       	mov	r13,	r12	
    8c7e:	3c 50 80 23 	add	#9088,	r12	;#0x2380
    8c82:	8c 5e 0a 00 	add	r14,	10(r12)	;0x000a(r12)
    8c86:	8c 6f 0c 00 	addc	r15,	12(r12)	;0x000c(r12)
    8c8a:	8c 5a 10 00 	add	r10,	16(r12)	;0x0010(r12)
    8c8e:	0b 4e       	mov	r14,	r11	
    8c90:	0c 4f       	mov	r15,	r12	
    8c92:	0b 58       	add	r8,	r11	
    8c94:	0c 69       	addc	r9,	r12	
    8c96:	82 4b 34 21 	mov	r11,	&0x2134	
    8c9a:	82 4c 36 21 	mov	r12,	&0x2136	
    8c9e:	06 93       	tst	r6		
    8ca0:	07 20       	jnz	$+16     	;abs 0x8cb0
    8ca2:	ed b2 88 23 	bit.b	#4,	9096(r13);r2 As==10, 0x2388(r13)
    8ca6:	0f 6f       	rlc	r15		
    8ca8:	4f 93       	tst.b	r15		
    8caa:	02 24       	jz	$+6      	;abs 0x8cb0
    8cac:	d2 43 85 1c 	mov.b	#1,	&0x1c85	;r3 As==01
    8cb0:	55 06       	rlam	#2,	r5	
    8cb2:	0f 45       	mov	r5,	r15	
    8cb4:	5f 0a       	rlam	#3,	r15	
    8cb6:	0f 85       	sub	r5,	r15	
    8cb8:	3f 50 80 23 	add	#9088,	r15	;#0x2380
    8cbc:	0a 12       	push	r10		
    8cbe:	0c 47       	mov	r7,	r12	
    8cc0:	0c 58       	add	r8,	r12	
    8cc2:	0d 46       	mov	r6,	r13	
    8cc4:	1e 4f 0e 00 	mov	14(r15),r14	;0x000e(r15)
    8cc8:	7f 40 03 00 	mov.b	#3,	r15	;#0x0003
    8ccc:	b0 12 bc 88 	call	#0x88bc	
    8cd0:	21 53       	incd	r1		
    8cd2:	65 17       	popm	#7,	r11	
    8cd4:	30 41       	ret			

00008cd6 <LogStorageP__appendStart>:
    8cd6:	4b 15       	pushm	#5,	r11	
    8cd8:	5e 42 18 1c 	mov.b	&0x1c18,r14	
    8cdc:	47 4e       	mov.b	r14,	r7	
    8cde:	0d 47       	mov	r7,	r13	
    8ce0:	5d 06       	rlam	#2,	r13	
    8ce2:	0f 4d       	mov	r13,	r15	
    8ce4:	5f 0a       	rlam	#3,	r15	
    8ce6:	0f 8d       	sub	r13,	r15	
    8ce8:	3f 50 80 23 	add	#9088,	r15	;#0x2380
    8cec:	18 4f 04 00 	mov	4(r15),	r8	;0x0004(r15)
    8cf0:	19 4f 06 00 	mov	6(r15),	r9	;0x0006(r15)
    8cf4:	18 82 34 21 	sub	&0x2134,r8	
    8cf8:	19 72 36 21 	subc	&0x2136,r9	
    8cfc:	4e 93       	tst.b	r14		
    8cfe:	02 24       	jz	$+6      	;abs 0x8d04
    8d00:	0f 43       	clr	r15		
    8d02:	02 3c       	jmp	$+6      	;abs 0x8d08
    8d04:	3f 40 f8 0f 	mov	#4088,	r15	;#0x0ff8
    8d08:	02 12       	push	r2		
    8d0a:	32 c2       	dint			
    8d0c:	03 43       	nop			
    8d0e:	82 4f c0 04 	mov	r15,	&0x04c0	
    8d12:	b2 40 06 02 c8 04 	mov	#518,	&0x04c8	;#0x0206
    8d18:	1a 42 ca 04 	mov	&0x04ca,r10	
    8d1c:	1b 42 cc 04 	mov	&0x04cc,r11	
    8d20:	32 41       	pop	r2		
    8d22:	c2 43 85 1c 	mov.b	#0,	&0x1c85	;r3 As==00
    8d26:	0e 47       	mov	r7,	r14	
    8d28:	5e 06       	rlam	#2,	r14	
    8d2a:	0f 4e       	mov	r14,	r15	
    8d2c:	5f 0a       	rlam	#3,	r15	
    8d2e:	0f 8e       	sub	r14,	r15	
    8d30:	3f 50 80 23 	add	#9088,	r15	;#0x2380
    8d34:	0c 4a       	mov	r10,	r12	
    8d36:	0d 4b       	mov	r11,	r13	
    8d38:	1e 4f 0a 00 	mov	10(r15),r14	;0x000a(r15)
    8d3c:	1f 4f 0c 00 	mov	12(r15),r15	;0x000c(r15)
    8d40:	3e 50 fa fd 	add	#-518,	r14	;#0xfdfa
    8d44:	3f 63       	addc	#-1,	r15	;r3 As==11
    8d46:	b0 12 36 bd 	call	#0xbd36	
    8d4a:	0a 88       	sub	r8,	r10	
    8d4c:	0b 79       	subc	r9,	r11	
    8d4e:	0f 9b       	cmp	r11,	r15	
    8d50:	06 28       	jnc	$+14     	;abs 0x8d5e
    8d52:	02 20       	jnz	$+6      	;abs 0x8d58
    8d54:	0e 9a       	cmp	r10,	r14	
    8d56:	03 28       	jnc	$+8      	;abs 0x8d5e
    8d58:	b0 12 76 8b 	call	#0x8b76	
    8d5c:	0d 3c       	jmp	$+28     	;abs 0x8d78
    8d5e:	57 06       	rlam	#2,	r7	
    8d60:	0f 47       	mov	r7,	r15	
    8d62:	5f 0a       	rlam	#3,	r15	
    8d64:	0f 87       	sub	r7,	r15	
    8d66:	3f 50 80 23 	add	#9088,	r15	;#0x2380
    8d6a:	d2 4f 10 00 c8 1f 	mov.b	16(r15),&0x1fc8	;0x0010(r15)
    8d70:	e2 42 c9 1f 	mov.b	#4,	&0x1fc9	;r2 As==10
    8d74:	b0 12 fa 8b 	call	#0x8bfa	
    8d78:	47 17       	popm	#5,	r11	
    8d7a:	30 41       	ret			

00008d7c <LogStorageP__readContinue>:
    8d7c:	6b 15       	pushm	#7,	r11	
    8d7e:	58 42 18 1c 	mov.b	&0x1c18,r8	
    8d82:	0a 48       	mov	r8,	r10	
    8d84:	5a 06       	rlam	#2,	r10	
    8d86:	0f 4a       	mov	r10,	r15	
    8d88:	5f 0a       	rlam	#3,	r15	
    8d8a:	0f 8a       	sub	r10,	r15	
    8d8c:	3f 50 80 23 	add	#9088,	r15	;#0x2380
    8d90:	17 4f 02 00 	mov	2(r15),	r7	;0x0002(r15)
    8d94:	1c 42 34 21 	mov	&0x2134,r12	
    8d98:	1d 42 36 21 	mov	&0x2136,r13	
    8d9c:	19 4f 18 00 	mov	24(r15),r9	;0x0018(r15)
    8da0:	15 4f 1a 00 	mov	26(r15),r5	;0x001a(r15)
    8da4:	1e 4f 04 00 	mov	4(r15),	r14	;0x0004(r15)
    8da8:	1f 4f 06 00 	mov	6(r15),	r15	;0x0006(r15)
    8dac:	0e 8c       	sub	r12,	r14	
    8dae:	0f 7d       	subc	r13,	r15	
    8db0:	0e 93       	tst	r14		
    8db2:	06 20       	jnz	$+14     	;abs 0x8dc0
    8db4:	0f 93       	tst	r15		
    8db6:	04 20       	jnz	$+10     	;abs 0x8dc0
    8db8:	0f 43       	clr	r15		
    8dba:	b0 12 cc 7e 	call	#0x7ecc	
    8dbe:	7f 3c       	jmp	$+256    	;abs 0x8ebe
    8dc0:	0b 4a       	mov	r10,	r11	
    8dc2:	5b 0a       	rlam	#3,	r11	
    8dc4:	0b 8a       	sub	r10,	r11	
    8dc6:	0a 4b       	mov	r11,	r10	
    8dc8:	3a 50 88 23 	add	#9096,	r10	;#0x2388
    8dcc:	fa b2 00 00 	bit.b	#8,	0(r10)	;r2 As==11, 0x0000(r10)
    8dd0:	06 43       	clr	r6		
    8dd2:	06 66       	rlc	r6		
    8dd4:	3b 50 80 23 	add	#9088,	r11	;#0x2380
    8dd8:	46 93       	tst.b	r6		
    8dda:	1e 20       	jnz	$+62     	;abs 0x8e18
    8ddc:	ea b2 00 00 	bit.b	#4,	0(r10)	;r2 As==10, 0x0000(r10)
    8de0:	0f 43       	clr	r15		
    8de2:	0f 6f       	rlc	r15		
    8de4:	4f 93       	tst.b	r15		
    8de6:	04 24       	jz	$+10     	;abs 0x8df0
    8de8:	9b 4b 0e 00 16 00 	mov	14(r11),22(r11)	;0x000e(r11), 0x0016(r11)
    8dee:	07 3c       	jmp	$+16     	;abs 0x8dfe
    8df0:	fa d2 00 00 	bis.b	#8,	0(r10)	;r2 As==11, 0x0000(r10)
    8df4:	b0 12 0a 5e 	call	#0x5e0a	
    8df8:	3f 53       	add	#-1,	r15	;r3 As==11
    8dfa:	8b 4f 16 00 	mov	r15,	22(r11)	;0x0016(r11)
    8dfe:	f2 40 05 00 dd 1e 	mov.b	#5,	&0x1edd	;#0x0005
    8e04:	58 06       	rlam	#2,	r8	
    8e06:	0f 48       	mov	r8,	r15	
    8e08:	5f 0a       	rlam	#3,	r15	
    8e0a:	0f 88       	sub	r8,	r15	
    8e0c:	3f 50 80 23 	add	#9088,	r15	;#0x2380
    8e10:	92 4f 16 00 94 1c 	mov	22(r15),&0x1c94	;0x0016(r15)
    8e16:	21 3c       	jmp	$+68     	;abs 0x8e5a
    8e18:	1a 4b 16 00 	mov	22(r11),r10	;0x0016(r11)
    8e1c:	16 4b 0e 00 	mov	14(r11),r6	;0x000e(r11)
    8e20:	0a 96       	cmp	r6,	r10	
    8e22:	02 20       	jnz	$+6      	;abs 0x8e28
    8e24:	15 4b 10 00 	mov	16(r11),r5	;0x0010(r11)
    8e28:	09 95       	cmp	r5,	r9	
    8e2a:	1a 20       	jnz	$+54     	;abs 0x8e60
    8e2c:	b0 12 0a 5e 	call	#0x5e0a	
    8e30:	0e 4a       	mov	r10,	r14	
    8e32:	1e 53       	inc	r14		
    8e34:	0e 9f       	cmp	r15,	r14	
    8e36:	0a 20       	jnz	$+22     	;abs 0x8e4c
    8e38:	58 06       	rlam	#2,	r8	
    8e3a:	0f 48       	mov	r8,	r15	
    8e3c:	5f 0a       	rlam	#3,	r15	
    8e3e:	0f 88       	sub	r8,	r15	
    8e40:	ef b3 88 23 	bit.b	#2,	9096(r15);r3 As==10, 0x2388(r15)
    8e44:	0f 43       	clr	r15		
    8e46:	0f 6f       	rlc	r15		
    8e48:	4f 93       	tst.b	r15		
    8e4a:	b6 27       	jz	$-146    	;abs 0x8db8
    8e4c:	0a 96       	cmp	r6,	r10	
    8e4e:	b4 27       	jz	$-150    	;abs 0x8db8
    8e50:	f2 40 05 00 dd 1e 	mov.b	#5,	&0x1edd	;#0x0005
    8e56:	82 4a 94 1c 	mov	r10,	&0x1c94	
    8e5a:	b0 12 22 8f 	call	#0x8f22	
    8e5e:	2f 3c       	jmp	$+96     	;abs 0x8ebe
    8e60:	0a 49       	mov	r9,	r10	
    8e62:	0b 43       	clr	r11		
    8e64:	0a 5e       	add	r14,	r10	
    8e66:	0b 6f       	addc	r15,	r11	
    8e68:	06 43       	clr	r6		
    8e6a:	06 9b       	cmp	r11,	r6	
    8e6c:	05 28       	jnc	$+12     	;abs 0x8e78
    8e6e:	02 20       	jnz	$+6      	;abs 0x8e74
    8e70:	05 9a       	cmp	r10,	r5	
    8e72:	02 28       	jnc	$+6      	;abs 0x8e78
    8e74:	0a 4e       	mov	r14,	r10	
    8e76:	02 3c       	jmp	$+6      	;abs 0x8e7c
    8e78:	0a 45       	mov	r5,	r10	
    8e7a:	0a 89       	sub	r9,	r10	
    8e7c:	0e 4a       	mov	r10,	r14	
    8e7e:	0f 43       	clr	r15		
    8e80:	05 4e       	mov	r14,	r5	
    8e82:	06 4f       	mov	r15,	r6	
    8e84:	05 5c       	add	r12,	r5	
    8e86:	06 6d       	addc	r13,	r6	
    8e88:	82 45 34 21 	mov	r5,	&0x2134	
    8e8c:	82 46 36 21 	mov	r6,	&0x2136	
    8e90:	58 06       	rlam	#2,	r8	
    8e92:	0b 48       	mov	r8,	r11	
    8e94:	5b 0a       	rlam	#3,	r11	
    8e96:	0b 88       	sub	r8,	r11	
    8e98:	3b 50 80 23 	add	#9088,	r11	;#0x2380
    8e9c:	8b 5e 12 00 	add	r14,	18(r11)	;0x0012(r11)
    8ea0:	8b 6f 14 00 	addc	r15,	20(r11)	;0x0014(r11)
    8ea4:	06 4a       	mov	r10,	r6	
    8ea6:	06 59       	add	r9,	r6	
    8ea8:	8b 46 18 00 	mov	r6,	24(r11)	;0x0018(r11)
    8eac:	0a 12       	push	r10		
    8eae:	0c 57       	add	r7,	r12	
    8eb0:	0d 49       	mov	r9,	r13	
    8eb2:	1e 4b 16 00 	mov	22(r11),r14	;0x0016(r11)
    8eb6:	5f 43       	mov.b	#1,	r15	;r3 As==01
    8eb8:	b0 12 bc 88 	call	#0x88bc	
    8ebc:	21 53       	incd	r1		
    8ebe:	65 17       	popm	#7,	r11	
    8ec0:	30 41       	ret			

00008ec2 <LogStorageP__continueReadAt>:
    8ec2:	2b 15       	pushm	#3,	r11	
    8ec4:	09 4f       	mov	r15,	r9	
    8ec6:	c2 43 dd 1e 	mov.b	#0,	&0x1edd	;r3 As==00
    8eca:	5a 42 18 1c 	mov.b	&0x1c18,r10	
    8ece:	3f 40 c4 1f 	mov	#8132,	r15	;#0x1fc4
    8ed2:	b0 12 3a 4b 	call	#0x4b3a	
    8ed6:	5a 06       	rlam	#2,	r10	
    8ed8:	0b 4a       	mov	r10,	r11	
    8eda:	5b 0a       	rlam	#3,	r11	
    8edc:	0b 8a       	sub	r10,	r11	
    8ede:	3b 50 80 23 	add	#9088,	r11	;#0x2380
    8ee2:	0c 49       	mov	r9,	r12	
    8ee4:	0d 43       	clr	r13		
    8ee6:	0e 5c       	add	r12,	r14	
    8ee8:	0f 6d       	addc	r13,	r15	
    8eea:	8b 4e 12 00 	mov	r14,	18(r11)	;0x0012(r11)
    8eee:	8b 4f 14 00 	mov	r15,	20(r11)	;0x0014(r11)
    8ef2:	9b 42 94 1c 16 00 	mov	&0x1c94,22(r11)	;0x0016(r11)
    8ef8:	8b 49 18 00 	mov	r9,	24(r11)	;0x0018(r11)
    8efc:	d2 b3 c9 1f 	bit.b	#1,	&0x1fc9	;r3 As==01
    8f00:	03 24       	jz	$+8      	;abs 0x8f08
    8f02:	5e 42 c8 1f 	mov.b	&0x1fc8,r14	
    8f06:	02 3c       	jmp	$+6      	;abs 0x8f0c
    8f08:	3e 40 06 02 	mov	#518,	r14	;#0x0206
    8f0c:	0f 4a       	mov	r10,	r15	
    8f0e:	5f 0a       	rlam	#3,	r15	
    8f10:	0f 8a       	sub	r10,	r15	
    8f12:	8f 4e 9a 23 	mov	r14,	9114(r15);0x239a(r15)
    8f16:	ff d2 88 23 	bis.b	#8,	9096(r15);r2 As==11, 0x2388(r15)
    8f1a:	b0 12 7c 8d 	call	#0x8d7c	
    8f1e:	29 17       	popm	#3,	r11	
    8f20:	30 41       	ret			

00008f22 <LogStorageP__rmetadataContinue>:
    8f22:	0b 12       	push	r11		
    8f24:	1b 42 94 1c 	mov	&0x1c94,r11	
    8f28:	1b 53       	inc	r11		
    8f2a:	82 4b 94 1c 	mov	r11,	&0x1c94	
    8f2e:	b0 12 0a 5e 	call	#0x5e0a	
    8f32:	0b 9f       	cmp	r15,	r11	
    8f34:	04 20       	jnz	$+10     	;abs 0x8f3e
    8f36:	b0 12 34 5d 	call	#0x5d34	
    8f3a:	82 4f 94 1c 	mov	r15,	&0x1c94	
    8f3e:	1f 42 94 1c 	mov	&0x1c94,r15	
    8f42:	5d 42 18 1c 	mov.b	&0x1c18,r13	
    8f46:	5d 06       	rlam	#2,	r13	
    8f48:	0e 4d       	mov	r13,	r14	
    8f4a:	5e 0a       	rlam	#3,	r14	
    8f4c:	0e 8d       	sub	r13,	r14	
    8f4e:	0d 4e       	mov	r14,	r13	
    8f50:	3d 50 80 23 	add	#9088,	r13	;#0x2380
    8f54:	1f 9d 0e 00 	cmp	14(r13),r15	;0x000e(r13)
    8f58:	1f 20       	jnz	$+64     	;abs 0x8f98
    8f5a:	fe b2 88 23 	bit.b	#8,	9096(r14);r2 As==11, 0x2388(r14)
    8f5e:	0f 43       	clr	r15		
    8f60:	0f 6f       	rlc	r15		
    8f62:	4f 93       	tst.b	r15		
    8f64:	04 20       	jnz	$+10     	;abs 0x8f6e
    8f66:	0f 43       	clr	r15		
    8f68:	b0 12 cc 7e 	call	#0x7ecc	
    8f6c:	17 3c       	jmp	$+48     	;abs 0x8f9c
    8f6e:	c2 43 c9 1f 	mov.b	#0,	&0x1fc9	;r3 As==00
    8f72:	1e 4d 10 00 	mov	16(r13),r14	;0x0010(r13)
    8f76:	0f 43       	clr	r15		
    8f78:	1b 4d 0a 00 	mov	10(r13),r11	;0x000a(r13)
    8f7c:	1c 4d 0c 00 	mov	12(r13),r12	;0x000c(r13)
    8f80:	0b 8e       	sub	r14,	r11	
    8f82:	0c 7f       	subc	r15,	r12	
    8f84:	0d 4b       	mov	r11,	r13	
    8f86:	0e 4c       	mov	r12,	r14	
    8f88:	3f 40 c4 1f 	mov	#8132,	r15	;#0x1fc4
    8f8c:	b0 12 0e 4b 	call	#0x4b0e	
    8f90:	0f 43       	clr	r15		
    8f92:	b0 12 c2 8e 	call	#0x8ec2	
    8f96:	02 3c       	jmp	$+6      	;abs 0x8f9c
    8f98:	b0 12 38 8a 	call	#0x8a38	
    8f9c:	3b 41       	pop	r11		
    8f9e:	30 41       	ret			

00008fa0 <LogStorageP__startRequest>:
    8fa0:	7b 15       	pushm	#8,	r11	
    8fa2:	56 42 18 1c 	mov.b	&0x1c18,r6	
    8fa6:	47 46       	mov.b	r6,	r7	
    8fa8:	0e 47       	mov	r7,	r14	
    8faa:	5e 06       	rlam	#2,	r14	
    8fac:	0f 4e       	mov	r14,	r15	
    8fae:	5f 0a       	rlam	#3,	r15	
    8fb0:	0f 8e       	sub	r14,	r15	
    8fb2:	df b3 88 23 	bit.b	#1,	9096(r15);r3 As==01, 0x2388(r15)
    8fb6:	0e 43       	clr	r14		
    8fb8:	0e 6e       	rlc	r14		
    8fba:	4e 93       	tst.b	r14		
    8fbc:	0f 20       	jnz	$+32     	;abs 0x8fdc
    8fbe:	df 93 80 23 	cmp.b	#1,	9088(r15);r3 As==01, 0x2380(r15)
    8fc2:	0c 24       	jz	$+26     	;abs 0x8fdc
    8fc4:	d2 43 dd 1e 	mov.b	#1,	&0x1edd	;r3 As==01
    8fc8:	b0 12 34 5d 	call	#0x5d34	
    8fcc:	82 4f 94 1c 	mov	r15,	&0x1c94	
    8fd0:	b0 12 0a 5e 	call	#0x5e0a	
    8fd4:	3f 53       	add	#-1,	r15	;r3 As==11
    8fd6:	82 4f c4 22 	mov	r15,	&0x22c4	
    8fda:	c1 3c       	jmp	$+388    	;abs 0x915e
    8fdc:	c2 43 dd 1e 	mov.b	#0,	&0x1edd	;r3 As==00
    8fe0:	0e 47       	mov	r7,	r14	
    8fe2:	5e 06       	rlam	#2,	r14	
    8fe4:	0f 4e       	mov	r14,	r15	
    8fe6:	5f 0a       	rlam	#3,	r15	
    8fe8:	0f 8e       	sub	r14,	r15	
    8fea:	5f 4f 80 23 	mov.b	9088(r15),r15	;0x2380(r15)
    8fee:	7f 53       	add.b	#-1,	r15	;r3 As==11
    8ff0:	7f 90 05 00 	cmp.b	#5,	r15	;#0x0005
    8ff4:	b6 2c       	jc	$+366    	;abs 0x9162
    8ff6:	4f 4f       	mov.b	r15,	r15	
    8ff8:	5f 02       	rlam	#1,	r15	
    8ffa:	10 4f 48 ce 	br	-12728(r15)	;0xce48(r15)
    8ffe:	57 06       	rlam	#2,	r7	
    9000:	0f 47       	mov	r7,	r15	
    9002:	5f 0a       	rlam	#3,	r15	
    9004:	0f 87       	sub	r7,	r15	
    9006:	df c3 88 23 	bic.b	#1,	9096(r15);r3 As==01, 0x2388(r15)
    900a:	b0 12 34 5d 	call	#0x5d34	
    900e:	82 4f 94 1c 	mov	r15,	&0x1c94	
    9012:	b0 12 0a 5e 	call	#0x5e0a	
    9016:	82 4f c4 22 	mov	r15,	&0x22c4	
    901a:	b0 12 a6 8b 	call	#0x8ba6	
    901e:	a1 3c       	jmp	$+324    	;abs 0x9162
    9020:	b0 12 d6 8c 	call	#0x8cd6	
    9024:	9e 3c       	jmp	$+318    	;abs 0x9162
    9026:	57 06       	rlam	#2,	r7	
    9028:	0f 47       	mov	r7,	r15	
    902a:	5f 0a       	rlam	#3,	r15	
    902c:	0f 87       	sub	r7,	r15	
    902e:	3f 50 80 23 	add	#9088,	r15	;#0x2380
    9032:	8f 93 10 00 	tst	16(r15)	;0x0010(r15)
    9036:	02 20       	jnz	$+6      	;abs 0x903c
    9038:	0f 43       	clr	r15		
    903a:	34 3c       	jmp	$+106    	;abs 0x90a4
    903c:	b0 12 76 8b 	call	#0x8b76	
    9040:	90 3c       	jmp	$+290    	;abs 0x9162
    9042:	b0 12 7c 8d 	call	#0x8d7c	
    9046:	8d 3c       	jmp	$+284    	;abs 0x9162
    9048:	0e 47       	mov	r7,	r14	
    904a:	5e 06       	rlam	#2,	r14	
    904c:	0f 4e       	mov	r14,	r15	
    904e:	5f 0a       	rlam	#3,	r15	
    9050:	0f 8e       	sub	r14,	r15	
    9052:	0d 4f       	mov	r15,	r13	
    9054:	3d 50 80 23 	add	#9088,	r13	;#0x2380
    9058:	0a 43       	clr	r10		
    905a:	0b 43       	clr	r11		
    905c:	1b 4d 02 00 	mov	2(r13),	r11	;0x0002(r13)
    9060:	1a dd 04 00 	bis	4(r13),	r10	;0x0004(r13)
    9064:	1b dd 06 00 	bis	6(r13),	r11	;0x0006(r13)
    9068:	ff c2 88 23 	bic.b	#8,	9096(r15);r2 As==11, 0x2388(r15)
    906c:	0a 93       	tst	r10		
    906e:	05 20       	jnz	$+12     	;abs 0x907a
    9070:	0b 93       	tst	r11		
    9072:	03 20       	jnz	$+8      	;abs 0x907a
    9074:	3a 40 06 02 	mov	#518,	r10	;#0x0206
    9078:	0b 43       	clr	r11		
    907a:	0f 4e       	mov	r14,	r15	
    907c:	5f 0a       	rlam	#3,	r15	
    907e:	0f 8e       	sub	r14,	r15	
    9080:	3f 50 80 23 	add	#9088,	r15	;#0x2380
    9084:	3f 50 0a 00 	add	#10,	r15	;#0x000a
    9088:	8f 9b 02 00 	cmp	r11,	2(r15)	;0x0002(r15)
    908c:	09 28       	jnc	$+20     	;abs 0x90a0
    908e:	03 20       	jnz	$+8      	;abs 0x9096
    9090:	8f 9a 00 00 	cmp	r10,	0(r15)	;0x0000(r15)
    9094:	05 28       	jnc	$+12     	;abs 0x90a0
    9096:	1b 93       	cmp	#1,	r11	;r3 As==01
    9098:	08 2c       	jc	$+18     	;abs 0x90aa
    909a:	3a 90 06 02 	cmp	#518,	r10	;#0x0206
    909e:	05 2c       	jc	$+12     	;abs 0x90aa
    90a0:	3f 40 06 00 	mov	#6,	r15	;#0x0006
    90a4:	b0 12 cc 7e 	call	#0x7ecc	
    90a8:	5c 3c       	jmp	$+186    	;abs 0x9162
    90aa:	05 47       	mov	r7,	r5	
    90ac:	55 06       	rlam	#2,	r5	
    90ae:	0f 45       	mov	r5,	r15	
    90b0:	5f 0a       	rlam	#3,	r15	
    90b2:	0f 85       	sub	r5,	r15	
    90b4:	3f 50 80 23 	add	#9088,	r15	;#0x2380
    90b8:	8f 4a 12 00 	mov	r10,	18(r15)	;0x0012(r15)
    90bc:	8f 4b 14 00 	mov	r11,	20(r15)	;0x0014(r15)
    90c0:	08 4a       	mov	r10,	r8	
    90c2:	09 4b       	mov	r11,	r9	
    90c4:	38 50 fa fd 	add	#-518,	r8	;#0xfdfa
    90c8:	39 63       	addc	#-1,	r9	;r3 As==11
    90ca:	04 4f       	mov	r15,	r4	
    90cc:	34 50 18 00 	add	#24,	r4	;#0x0018
    90d0:	3c 40 06 02 	mov	#518,	r12	;#0x0206
    90d4:	0d 43       	clr	r13		
    90d6:	0e 48       	mov	r8,	r14	
    90d8:	0f 49       	mov	r9,	r15	
    90da:	b0 12 36 bd 	call	#0xbd36	
    90de:	84 4e 00 00 	mov	r14,	0(r4)	;0x0000(r4)
    90e2:	b0 12 34 5d 	call	#0x5d34	
    90e6:	04 4f       	mov	r15,	r4	
    90e8:	3c 40 06 02 	mov	#518,	r12	;#0x0206
    90ec:	0d 43       	clr	r13		
    90ee:	0e 48       	mov	r8,	r14	
    90f0:	0f 49       	mov	r9,	r15	
    90f2:	b0 12 08 bd 	call	#0xbd08	
    90f6:	46 93       	tst.b	r6		
    90f8:	02 24       	jz	$+6      	;abs 0x90fe
    90fa:	0c 43       	clr	r12		
    90fc:	02 3c       	jmp	$+6      	;abs 0x9102
    90fe:	3c 40 f8 0f 	mov	#4088,	r12	;#0x0ff8
    9102:	09 45       	mov	r5,	r9	
    9104:	59 0a       	rlam	#3,	r9	
    9106:	09 85       	sub	r5,	r9	
    9108:	39 50 80 23 	add	#9088,	r9	;#0x2380
    910c:	08 49       	mov	r9,	r8	
    910e:	38 50 16 00 	add	#22,	r8	;#0x0016
    9112:	0d 43       	clr	r13		
    9114:	b0 12 36 bd 	call	#0xbd36	
    9118:	04 5e       	add	r14,	r4	
    911a:	88 44 00 00 	mov	r4,	0(r8)	;0x0000(r8)
    911e:	b9 40 06 02 1a 00 	mov	#518,	26(r9)	;#0x0206, 0x001a(r9)
    9124:	0f 44       	mov	r4,	r15	
    9126:	14 99 0e 00 	cmp	14(r9),	r4	;0x000e(r9)
    912a:	17 20       	jnz	$+48     	;abs 0x915a
    912c:	1e 49 10 00 	mov	16(r9),	r14	;0x0010(r9)
    9130:	0f 43       	clr	r15		
    9132:	1c 49 0a 00 	mov	10(r9),	r12	;0x000a(r9)
    9136:	1d 49 0c 00 	mov	12(r9),	r13	;0x000c(r9)
    913a:	0c 8e       	sub	r14,	r12	
    913c:	0d 7f       	subc	r15,	r13	
    913e:	0e 4c       	mov	r12,	r14	
    9140:	0f 4d       	mov	r13,	r15	
    9142:	0b 9f       	cmp	r15,	r11	
    9144:	79 2b       	jnc	$-268    	;abs 0x9038
    9146:	02 20       	jnz	$+6      	;abs 0x914c
    9148:	0a 9c       	cmp	r12,	r10	
    914a:	76 2b       	jnc	$-274    	;abs 0x9038
    914c:	57 06       	rlam	#2,	r7	
    914e:	0f 47       	mov	r7,	r15	
    9150:	5f 0a       	rlam	#3,	r15	
    9152:	0f 87       	sub	r7,	r15	
    9154:	ff d2 88 23 	bis.b	#8,	9096(r15);r2 As==11, 0x2388(r15)
    9158:	6f 3f       	jmp	$-288    	;abs 0x9038
    915a:	e2 42 dd 1e 	mov.b	#4,	&0x1edd	;r2 As==10
    915e:	b0 12 38 8a 	call	#0x8a38	
    9162:	74 17       	popm	#8,	r11	
    9164:	30 41       	ret			

00009166 <At45dbP__syncOrFlushAll>:
    9166:	c2 4f 5c 1f 	mov.b	r15,	&0x1f5c	
    916a:	e2 b3 ce 1e 	bit.b	#2,	&0x1ece	;r3 As==10
    916e:	03 20       	jnz	$+8      	;abs 0x9176
    9170:	c2 43 3b 21 	mov.b	#0,	&0x213b	;r3 As==00
    9174:	09 3c       	jmp	$+20     	;abs 0x9188
    9176:	e2 b3 d2 1e 	bit.b	#2,	&0x1ed2	;r3 As==10
    917a:	03 20       	jnz	$+8      	;abs 0x9182
    917c:	d2 43 3b 21 	mov.b	#1,	&0x213b	;r3 As==01
    9180:	03 3c       	jmp	$+8      	;abs 0x9188
    9182:	b0 12 44 4f 	call	#0x4f44	
    9186:	30 41       	ret			
    9188:	5f 42 3b 21 	mov.b	&0x213b,r15	
    918c:	5f 06       	rlam	#2,	r15	
    918e:	ff f0 e7 ff ce 1e 	and.b	#-25,	7886(r15);#0xffe7, 0x1ece(r15)
    9194:	b0 12 d4 86 	call	#0x86d4	
    9198:	30 41       	ret			

0000919a <BlockStorageP__startRequest>:
    919a:	5f 42 0b 1c 	mov.b	&0x1c0b,r15	
    919e:	4e 4f       	mov.b	r15,	r14	
    91a0:	0d 4e       	mov	r14,	r13	
    91a2:	5d 06       	rlam	#2,	r13	
    91a4:	5e 0e       	rlam	#4,	r14	
    91a6:	0e 8d       	sub	r13,	r14	
    91a8:	3e 50 c4 20 	add	#8388,	r14	;#0x20c4
    91ac:	6d 4e       	mov.b	@r14,	r13	
    91ae:	6d 93       	cmp.b	#2,	r13	;r3 As==10
    91b0:	04 24       	jz	$+10     	;abs 0x91ba
    91b2:	7d 90 03 00 	cmp.b	#3,	r13	;#0x0003
    91b6:	12 20       	jnz	$+38     	;abs 0x91dc
    91b8:	0c 3c       	jmp	$+26     	;abs 0x91d2
    91ba:	0e 43       	clr	r14		
    91bc:	b0 12 be 5c 	call	#0x5cbe	
    91c0:	03 12       	push	#0		;r3 As==00
    91c2:	0c 43       	clr	r12		
    91c4:	0d 43       	clr	r13		
    91c6:	0e 4f       	mov	r15,	r14	
    91c8:	6f 42       	mov.b	#4,	r15	;r2 As==10
    91ca:	b0 12 bc 88 	call	#0x88bc	
    91ce:	21 53       	incd	r1		
    91d0:	30 41       	ret			
    91d2:	7f 40 07 00 	mov.b	#7,	r15	;#0x0007
    91d6:	b0 12 66 91 	call	#0x9166	
    91da:	30 41       	ret			
    91dc:	1f 4e 02 00 	mov	2(r14),	r15	;0x0002(r14)
    91e0:	82 43 d8 1e 	mov	#0,	&0x1ed8	;r3 As==00
    91e4:	82 43 da 1e 	mov	#0,	&0x1eda	;r3 As==00
    91e8:	b0 12 36 89 	call	#0x8936	
    91ec:	30 41       	ret			

000091ee <ConfigStorageP__copyCopyPageDone>:
    91ee:	2b 15       	pushm	#3,	r11	
    91f0:	5b 42 0c 1c 	mov.b	&0x1c0c,r11	
    91f4:	0f 93       	tst	r15		
    91f6:	08 24       	jz	$+18     	;abs 0x9208
    91f8:	f2 43 0c 1c 	mov.b	#-1,	&0x1c0c	;r3 As==11
    91fc:	c2 4b 0b 1c 	mov.b	r11,	&0x1c0b	
    9200:	0e 43       	clr	r14		
    9202:	b0 12 08 7c 	call	#0x7c08	
    9206:	33 3c       	jmp	$+104    	;abs 0x926e
    9208:	1e 42 68 1f 	mov	&0x1f68,r14	
    920c:	0e 93       	tst	r14		
    920e:	10 20       	jnz	$+34     	;abs 0x9230
    9210:	4f 4b       	mov.b	r11,	r15	
    9212:	5f 02       	rlam	#1,	r15	
    9214:	5e 4f f4 23 	mov.b	9204(r15),r14	;0x23f4(r15)
    9218:	7e f0 f8 ff 	and.b	#-8,	r14	;#0xfff8
    921c:	6e d2       	bis.b	#4,	r14	;r2 As==10
    921e:	cf 4e f4 23 	mov.b	r14,	9204(r15);0x23f4(r15)
    9222:	f2 43 0c 1c 	mov.b	#-1,	&0x1c0c	;r3 As==11
    9226:	c2 4b 0b 1c 	mov.b	r11,	&0x1c0b	
    922a:	b0 12 9a 91 	call	#0x919a	
    922e:	1f 3c       	jmp	$+64     	;abs 0x926e
    9230:	4b 93       	tst.b	r11		
    9232:	02 24       	jz	$+6      	;abs 0x9238
    9234:	09 43       	clr	r9		
    9236:	01 3c       	jmp	$+4      	;abs 0x923a
    9238:	39 42       	mov	#8,	r9	;r2 As==11
    923a:	59 03       	rrum	#1,	r9	
    923c:	3e 53       	add	#-1,	r14	;r3 As==11
    923e:	82 4e 68 1f 	mov	r14,	&0x1f68	
    9242:	4f 4b       	mov.b	r11,	r15	
    9244:	b0 12 be 5c 	call	#0x5cbe	
    9248:	0a 4f       	mov	r15,	r10	
    924a:	4f 4b       	mov.b	r11,	r15	
    924c:	b0 12 ac 4b 	call	#0x4bac	
    9250:	4f 93       	tst.b	r15		
    9252:	03 24       	jz	$+8      	;abs 0x925a
    9254:	0e 4a       	mov	r10,	r14	
    9256:	0e 89       	sub	r9,	r14	
    9258:	02 3c       	jmp	$+6      	;abs 0x925e
    925a:	0e 49       	mov	r9,	r14	
    925c:	0e 5a       	add	r10,	r14	
    925e:	03 12       	push	#0		;r3 As==00
    9260:	0c 43       	clr	r12		
    9262:	0d 4a       	mov	r10,	r13	
    9264:	7f 40 05 00 	mov.b	#5,	r15	;#0x0005
    9268:	b0 12 bc 88 	call	#0x88bc	
    926c:	21 53       	incd	r1		
    926e:	29 17       	popm	#3,	r11	
    9270:	30 41       	ret			

00009272 <At45dbP__syncOrFlush>:
    9272:	c2 4e 5c 1f 	mov.b	r14,	&0x1f5c	
    9276:	1f 92 cc 1e 	cmp	&0x1ecc,r15	
    927a:	03 20       	jnz	$+8      	;abs 0x9282
    927c:	c2 43 3b 21 	mov.b	#0,	&0x213b	;r3 As==00
    9280:	09 3c       	jmp	$+20     	;abs 0x9294
    9282:	1f 92 d0 1e 	cmp	&0x1ed0,r15	
    9286:	03 20       	jnz	$+8      	;abs 0x928e
    9288:	d2 43 3b 21 	mov.b	#1,	&0x213b	;r3 As==01
    928c:	03 3c       	jmp	$+8      	;abs 0x9294
    928e:	b0 12 44 4f 	call	#0x4f44	
    9292:	30 41       	ret			
    9294:	5f 42 3b 21 	mov.b	&0x213b,r15	
    9298:	5f 06       	rlam	#2,	r15	
    929a:	ff f0 e7 ff ce 1e 	and.b	#-25,	7886(r15);#0xffe7, 0x1ece(r15)
    92a0:	b0 12 d4 86 	call	#0x86d4	
    92a4:	30 41       	ret			

000092a6 <AdcStreamP__nextMultiple.part.292.constprop.464>:
    92a6:	5b 15       	pushm	#6,	r11	
    92a8:	31 50 f0 ff 	add	#-16,	r1	;#0xfff0
    92ac:	1a 42 c0 22 	mov	&0x22c0,r10	
    92b0:	18 42 22 23 	mov	&0x2322,r8	
    92b4:	1b 42 e6 1c 	mov	&0x1ce6,r11	
    92b8:	0b 93       	tst	r11		
    92ba:	bb 24       	jz	$+376    	;abs 0x9432
    92bc:	08 93       	tst	r8		
    92be:	b9 24       	jz	$+372    	;abs 0x9432
    92c0:	1a 93       	cmp	#1,	r10	;r3 As==01
    92c2:	b7 24       	jz	$+368    	;abs 0x9432
    92c4:	2a 93       	cmp	#2,	r10	;r3 As==10
    92c6:	b5 24       	jz	$+364    	;abs 0x9432
    92c8:	09 42       	mov	r2,	r9	
    92ca:	39 f2       	and	#8,	r9	;r2 As==11
    92cc:	32 c2       	dint			
    92ce:	03 43       	nop			
    92d0:	f2 b0 20 00 d0 20 	bit.b	#32,	&0x20d0	;#0x0020
    92d6:	04 24       	jz	$+10     	;abs 0x92e0
    92d8:	09 93       	tst	r9		
    92da:	ab 24       	jz	$+344    	;abs 0x9432
    92dc:	32 d2       	eint			
    92de:	a9 3c       	jmp	$+340    	;abs 0x9432
    92e0:	d2 93 02 1c 	cmp.b	#1,	&0x1c02	;r3 As==01
    92e4:	9c 20       	jnz	$+314    	;abs 0x941e
    92e6:	81 43 0a 00 	mov	#0,	10(r1)	;r3 As==00, 0x000a(r1)
    92ea:	38 90 11 00 	cmp	#17,	r8	;#0x0011
    92ee:	03 28       	jnc	$+8      	;abs 0x92f6
    92f0:	7e 40 03 00 	mov.b	#3,	r14	;#0x0003
    92f4:	01 3c       	jmp	$+4      	;abs 0x92f8
    92f6:	5e 43       	mov.b	#1,	r14	;r3 As==01
    92f8:	3e f0 03 00 	and	#3,	r14	;#0x0003
    92fc:	5e 02       	rlam	#1,	r14	
    92fe:	5f 41 0a 00 	mov.b	10(r1),	r15	;0x000a(r1)
    9302:	7f f0 e1 ff 	and.b	#-31,	r15	;#0xffe1
    9306:	4f de       	bis.b	r14,	r15	
    9308:	7f d2       	bis.b	#8,	r15	;r2 As==11
    930a:	c1 4f 0a 00 	mov.b	r15,	10(r1)	;0x000a(r1)
    930e:	e1 d3 0b 00 	bis.b	#2,	11(r1)	;r3 As==10, 0x000b(r1)
    9312:	57 43       	mov.b	#1,	r7	;r3 As==01
    9314:	0a 93       	tst	r10		
    9316:	01 20       	jnz	$+4      	;abs 0x931a
    9318:	47 43       	clr.b	r7		
    931a:	0f 47       	mov	r7,	r15	
    931c:	1f f3       	and	#1,	r15	;r3 As==01
    931e:	5f 06       	rlam	#2,	r15	
    9320:	5e 41 0b 00 	mov.b	11(r1),	r14	;0x000b(r1)
    9324:	7e f0 f3 ff 	and.b	#-13,	r14	;#0xfff3
    9328:	4e df       	bis.b	r15,	r14	
    932a:	c1 4e 0b 00 	mov.b	r14,	11(r1)	;0x000b(r1)
    932e:	76 40 05 00 	mov.b	#5,	r6	;#0x0005
    9332:	b0 12 90 4b 	call	#0x4b90	
    9336:	c1 4f 0c 00 	mov.b	r15,	12(r1)	;0x000c(r1)
    933a:	8f 10       	swpb	r15		
    933c:	c1 4f 0d 00 	mov.b	r15,	13(r1)	;0x000d(r1)
    9340:	91 41 0c 00 08 00 	mov	12(r1),	8(r1)	;0x000c(r1), 0x0008(r1)
    9346:	5d 43       	mov.b	#1,	r13	;r3 As==01
    9348:	0a 93       	tst	r10		
    934a:	01 24       	jz	$+4      	;abs 0x934e
    934c:	4d 43       	clr.b	r13		
    934e:	1d f3       	and	#1,	r13	;r3 As==01
    9350:	5d 0e       	rlam	#4,	r13	
    9352:	5d 0a       	rlam	#3,	r13	
    9354:	1f 41 08 00 	mov	8(r1),	r15	;0x0008(r1)
    9358:	3f f0 7f ff 	and	#-129,	r15	;#0xff7f
    935c:	0f dd       	bis	r13,	r15	
    935e:	81 4f 08 00 	mov	r15,	8(r1)	;0x0008(r1)
    9362:	b1 f0 ff f0 08 00 	and	#-3841,	8(r1)	;#0xf0ff, 0x0008(r1)
    9368:	b1 f0 ff 0f 08 00 	and	#4095,	8(r1)	;#0x0fff, 0x0008(r1)
    936e:	e2 42 d0 20 	mov.b	#4,	&0x20d0	;r2 As==10
    9372:	82 48 72 1e 	mov	r8,	&0x1e72	
    9376:	82 4b 70 20 	mov	r11,	&0x2070	
    937a:	82 43 90 1c 	mov	#0,	&0x1c90	;r3 As==00
    937e:	91 41 08 00 04 00 	mov	8(r1),	4(r1)	;0x0008(r1), 0x0004(r1)
    9384:	1f 41 08 00 	mov	8(r1),	r15	;0x0008(r1)
    9388:	b0 12 74 4b 	call	#0x4b74	
    938c:	91 41 0a 00 06 00 	mov	10(r1),	6(r1)	;0x000a(r1), 0x0006(r1)
    9392:	91 41 0a 00 02 00 	mov	10(r1),	2(r1)	;0x000a(r1), 0x0002(r1)
    9398:	91 41 0a 00 00 00 	mov	10(r1),	0(r1)	;0x000a(r1), 0x0000(r1)
    939e:	a1 41 0e 00 	mov	@r1,	14(r1)	;0x000e(r1)
    93a2:	a2 41 02 07 	mov	@r1,	&0x0702	
    93a6:	0b 43       	clr	r11		
    93a8:	38 53       	add	#-1,	r8	;r3 As==11
    93aa:	04 3c       	jmp	$+10     	;abs 0x93b4
    93ac:	4f 4b       	mov.b	r11,	r15	
    93ae:	b0 12 82 4b 	call	#0x4b82	
    93b2:	1b 53       	inc	r11		
    93b4:	4e 46       	mov.b	r6,	r14	
    93b6:	0b 98       	cmp	r8,	r11	
    93b8:	03 2c       	jc	$+8      	;abs 0x93c0
    93ba:	3b 90 0f 00 	cmp	#15,	r11	;#0x000f
    93be:	f6 23       	jnz	$-18     	;abs 0x93ac
    93c0:	7e d0 80 ff 	bis.b	#-128,	r14	;#0xff80
    93c4:	4f 4b       	mov.b	r11,	r15	
    93c6:	b0 12 82 4b 	call	#0x4b82	
    93ca:	7b f0 0f 00 	and.b	#15,	r11	;#0x000f
    93ce:	1f 43       	mov	#1,	r15	;r3 As==01
    93d0:	03 24       	jz	$+8      	;abs 0x93d8
    93d2:	7b 53       	add.b	#-1,	r11	;r3 As==11
    93d4:	cb 18 0f 5f 	.rpt	r11
				addx	r15,	r15	
    93d8:	82 4f 0c 07 	mov	r15,	&0x070c	
    93dc:	47 93       	tst.b	r7		
    93de:	1d 24       	jz	$+60     	;abs 0x941a
    93e0:	f2 d0 40 00 d0 20 	bis.b	#64,	&0x20d0	;#0x0040
    93e6:	b2 f0 cf ff c0 03 	and	#-49,	&0x03c0	;#0xffcf
    93ec:	a2 d2 c0 03 	bis	#4,	&0x03c0	;r2 As==10
    93f0:	a2 c3 c0 03 	bic	#2,	&0x03c0	;r3 As==10
    93f4:	1f 42 c0 03 	mov	&0x03c0,r15	
    93f8:	3f f0 ff fc 	and	#-769,	r15	;#0xfcff
    93fc:	3f d0 00 02 	bis	#512,	r15	;#0x0200
    9400:	82 4f c0 03 	mov	r15,	&0x03c0	
    9404:	b2 f0 3f ff c0 03 	and	#-193,	&0x03c0	;#0xff3f
    940a:	82 43 c2 03 	mov	#0,	&0x03c2	;r3 As==00
    940e:	3a 53       	add	#-1,	r10	;r3 As==11
    9410:	82 4a d2 03 	mov	r10,	&0x03d2	
    9414:	5a 03       	rrum	#1,	r10	
    9416:	82 4a d4 03 	mov	r10,	&0x03d4	
    941a:	0f 43       	clr	r15		
    941c:	01 3c       	jmp	$+4      	;abs 0x9420
    941e:	3f 42       	mov	#8,	r15	;r2 As==11
    9420:	09 93       	tst	r9		
    9422:	01 24       	jz	$+4      	;abs 0x9426
    9424:	32 d2       	eint			
    9426:	0f 93       	tst	r15		
    9428:	04 20       	jnz	$+10     	;abs 0x9432
    942a:	5f 43       	mov.b	#1,	r15	;r3 As==01
    942c:	b0 12 7c 6d 	call	#0x6d7c	
    9430:	20 3c       	jmp	$+66     	;abs 0x9472
    9432:	1c 42 22 23 	mov	&0x2322,r12	
    9436:	1e 42 e6 1c 	mov	&0x1ce6,r14	
    943a:	2c 92       	cmp	#4,	r12	;r2 As==10
    943c:	16 28       	jnc	$+46     	;abs 0x946a
    943e:	0f 42       	mov	r2,	r15	
    9440:	3f f2       	and	#8,	r15	;r2 As==11
    9442:	32 c2       	dint			
    9444:	03 43       	nop			
    9446:	1d 42 4e 24 	mov	&0x244e,r13	
    944a:	0d 93       	tst	r13		
    944c:	04 20       	jnz	$+10     	;abs 0x9456
    944e:	0f 93       	tst	r15		
    9450:	0c 24       	jz	$+26     	;abs 0x946a
    9452:	32 d2       	eint			
    9454:	0a 3c       	jmp	$+22     	;abs 0x946a
    9456:	8e 4c 00 00 	mov	r12,	0(r14)	;0x0000(r14)
    945a:	8e 43 02 00 	mov	#0,	2(r14)	;r3 As==00, 0x0002(r14)
    945e:	8d 4e 00 00 	mov	r14,	0(r13)	;0x0000(r13)
    9462:	2e 53       	incd	r14		
    9464:	82 4e 4e 24 	mov	r14,	&0x244e	
    9468:	f2 3f       	jmp	$-26     	;abs 0x944e
    946a:	7f 40 2c 00 	mov.b	#44,	r15	;#0x002c
    946e:	b0 12 f6 4e 	call	#0x4ef6	
    9472:	31 50 10 00 	add	#16,	r1	;#0x0010
    9476:	56 17       	popm	#6,	r11	
    9478:	30 41       	ret			

0000947a <Msp430Adc12ImplP__SingleChannel__multipleDataReady.isra.294>:
    947a:	5f 93       	cmp.b	#1,	r15	;r3 As==01
    947c:	23 20       	jnz	$+72     	;abs 0x94c4
    947e:	82 93 c0 1f 	tst	&0x1fc0	
    9482:	0a 24       	jz	$+22     	;abs 0x9498
    9484:	5f 42 00 1c 	mov.b	&0x1c00,r15	
    9488:	5f 02       	rlam	#1,	r15	
    948a:	8f 43 4e 24 	mov	#0,	9294(r15);r3 As==00, 0x244e(r15)
    948e:	7f 40 2c 00 	mov.b	#44,	r15	;#0x002c
    9492:	b0 12 f6 4e 	call	#0x4ef6	
    9496:	16 3c       	jmp	$+46     	;abs 0x94c4
    9498:	1f 42 3e 24 	mov	&0x243e,r15	
    949c:	82 4f c0 1f 	mov	r15,	&0x1fc0	
    94a0:	1e 42 e6 1c 	mov	&0x1ce6,r14	
    94a4:	0e 8f       	sub	r15,	r14	
    94a6:	0f 4e       	mov	r14,	r15	
    94a8:	5f 01       	rram	#1,	r15	
    94aa:	82 4f 1a 33 	mov	r15,	&0x331a	
    94ae:	7f 40 2d 00 	mov.b	#45,	r15	;#0x002d
    94b2:	b0 12 f6 4e 	call	#0x4ef6	
    94b6:	4f 43       	clr.b	r15		
    94b8:	b0 12 6e 65 	call	#0x656e	
    94bc:	0f 93       	tst	r15		
    94be:	02 20       	jnz	$+6      	;abs 0x94c4
    94c0:	b0 12 a6 92 	call	#0x92a6	
    94c4:	0f 43       	clr	r15		
    94c6:	30 41       	ret			

000094c8 <Msp430RefVoltArbiterImplP__ClientResource__granted>:
    94c8:	0b 12       	push	r11		
    94ca:	5f 93       	cmp.b	#1,	r15	;r3 As==01
    94cc:	23 24       	jz	$+72     	;abs 0x9514
    94ce:	03 28       	jnc	$+8      	;abs 0x94d6
    94d0:	6f 93       	cmp.b	#2,	r15	;r3 As==10
    94d2:	6e 20       	jnz	$+222    	;abs 0x95b0
    94d4:	5b 3c       	jmp	$+184    	;abs 0x958c
    94d6:	5f 42 60 cf 	mov.b	&0xcf60,r15	
    94da:	7f f0 1f 00 	and.b	#31,	r15	;#0x001f
    94de:	7f 90 10 00 	cmp.b	#16,	r15	;#0x0010
    94e2:	0c 24       	jz	$+26     	;abs 0x94fc
    94e4:	3e 40 60 cf 	mov	#-12448,r14	;#0xcf60
    94e8:	4f 43       	clr.b	r15		
    94ea:	b0 12 b0 55 	call	#0x55b0	
    94ee:	0f 93       	tst	r15		
    94f0:	08 20       	jnz	$+18     	;abs 0x9502
    94f2:	c2 43 73 20 	mov.b	#0,	&0x2073	;r3 As==00
    94f6:	b0 12 7c 6d 	call	#0x6d7c	
    94fa:	5a 3c       	jmp	$+182    	;abs 0x95b0
    94fc:	3b 40 06 00 	mov	#6,	r11	;#0x0006
    9500:	01 3c       	jmp	$+4      	;abs 0x9504
    9502:	0b 4f       	mov	r15,	r11	
    9504:	4f 43       	clr.b	r15		
    9506:	b0 12 ee 5d 	call	#0x5dee	
    950a:	0e 43       	clr	r14		
    950c:	0f 4b       	mov	r11,	r15	
    950e:	b0 12 36 69 	call	#0x6936	
    9512:	4e 3c       	jmp	$+158    	;abs 0x95b0
    9514:	1e 42 50 1f 	mov	&0x1f50,r14	
    9518:	1f 42 52 1f 	mov	&0x1f52,r15	
    951c:	0c 4e       	mov	r14,	r12	
    951e:	0d 4f       	mov	r15,	r13	
    9520:	0c f3       	and	#0,	r12	;r3 As==00
    9522:	3d f3       	and	#-1,	r13	;r3 As==11
    9524:	0c 93       	tst	r12		
    9526:	02 20       	jnz	$+6      	;abs 0x952c
    9528:	0d 93       	tst	r13		
    952a:	20 24       	jz	$+66     	;abs 0x956c
    952c:	3c 40 e8 03 	mov	#1000,	r12	;#0x03e8
    9530:	0d 43       	clr	r13		
    9532:	b0 12 08 bd 	call	#0xbd08	
    9536:	82 4e c0 22 	mov	r14,	&0x22c0	
    953a:	82 4f c2 22 	mov	r15,	&0x22c2	
    953e:	d2 43 38 21 	mov.b	#1,	&0x2138	;r3 As==01
    9542:	c2 43 00 1c 	mov.b	#0,	&0x1c00	;r3 As==00
    9546:	b0 12 a0 4e 	call	#0x4ea0	
    954a:	82 4e 0a 34 	mov	r14,	&0x340a	
    954e:	82 4f 0c 34 	mov	r15,	&0x340c	
    9552:	3e 40 60 cf 	mov	#-12448,r14	;#0xcf60
    9556:	5f 43       	mov.b	#1,	r15	;r3 As==01
    9558:	b0 12 b0 55 	call	#0x55b0	
    955c:	4f 43       	clr.b	r15		
    955e:	b0 12 6e 65 	call	#0x656e	
    9562:	0f 93       	tst	r15		
    9564:	25 20       	jnz	$+76     	;abs 0x95b0
    9566:	b0 12 9e 6e 	call	#0x6e9e	
    956a:	22 3c       	jmp	$+70     	;abs 0x95b0
    956c:	82 4e c0 22 	mov	r14,	&0x22c0	
    9570:	82 4f c2 22 	mov	r15,	&0x22c2	
    9574:	c2 43 38 21 	mov.b	#0,	&0x2138	;r3 As==00
    9578:	c2 43 00 1c 	mov.b	#0,	&0x1c00	;r3 As==00
    957c:	4f 43       	clr.b	r15		
    957e:	b0 12 6e 65 	call	#0x656e	
    9582:	0f 93       	tst	r15		
    9584:	15 20       	jnz	$+44     	;abs 0x95b0
    9586:	b0 12 a6 92 	call	#0x92a6	
    958a:	12 3c       	jmp	$+38     	;abs 0x95b0
    958c:	5e 42 60 cf 	mov.b	&0xcf60,r14	
    9590:	7e f0 1f 00 	and.b	#31,	r14	;#0x001f
    9594:	7e 90 10 00 	cmp.b	#16,	r14	;#0x0010
    9598:	09 24       	jz	$+20     	;abs 0x95ac
    959a:	3e 40 60 cf 	mov	#-12448,r14	;#0xcf60
    959e:	b0 12 b0 55 	call	#0x55b0	
    95a2:	0f 93       	tst	r15		
    95a4:	03 20       	jnz	$+8      	;abs 0x95ac
    95a6:	d2 43 73 20 	mov.b	#1,	&0x2073	;r3 As==01
    95aa:	02 3c       	jmp	$+6      	;abs 0x95b0
    95ac:	e2 43 73 20 	mov.b	#2,	&0x2073	;r3 As==10
    95b0:	3b 41       	pop	r11		
    95b2:	30 41       	ret			

000095b4 <VirtualizeTimerC__0__fireTimers>:
    95b4:	7b 15       	pushm	#8,	r11	
    95b6:	31 50 fa ff 	add	#-6,	r1	;#0xfffa
    95ba:	04 43       	clr	r4		
    95bc:	05 44       	mov	r4,	r5	
    95be:	55 02       	rlam	#1,	r5	
    95c0:	0d 44       	mov	r4,	r13	
    95c2:	5d 0a       	rlam	#3,	r13	
    95c4:	05 5d       	add	r13,	r5	
    95c6:	35 50 3e 21 	add	#8510,	r5	;#0x213e
    95ca:	d1 45 08 00 04 00 	mov.b	8(r5),	4(r1)	;0x0008(r5), 0x0004(r1)
    95d0:	e1 b3 04 00 	bit.b	#2,	4(r1)	;r3 As==10, 0x0004(r1)
    95d4:	02 20       	jnz	$+6      	;abs 0x95da
    95d6:	80 00 30 9a 	bra	#0x09a30	
    95da:	26 45       	mov	@r5,	r6	
    95dc:	17 45 02 00 	mov	2(r5),	r7	;0x0002(r5)
    95e0:	1c 45 04 00 	mov	4(r5),	r12	;0x0004(r5)
    95e4:	1d 45 06 00 	mov	6(r5),	r13	;0x0006(r5)
    95e8:	08 4e       	mov	r14,	r8	
    95ea:	09 4f       	mov	r15,	r9	
    95ec:	08 86       	sub	r6,	r8	
    95ee:	09 77       	subc	r7,	r9	
    95f0:	09 9d       	cmp	r13,	r9	
    95f2:	02 2c       	jc	$+6      	;abs 0x95f8
    95f4:	80 00 30 9a 	bra	#0x09a30	
    95f8:	04 20       	jnz	$+10     	;abs 0x9602
    95fa:	08 9c       	cmp	r12,	r8	
    95fc:	02 2c       	jc	$+6      	;abs 0x9602
    95fe:	80 00 30 9a 	bra	#0x09a30	
    9602:	d1 b3 04 00 	bit.b	#1,	4(r1)	;r3 As==01, 0x0004(r1)
    9606:	03 24       	jz	$+8      	;abs 0x960e
    9608:	e5 c3 08 00 	bic.b	#2,	8(r5)	;r3 As==10, 0x0008(r5)
    960c:	08 3c       	jmp	$+18     	;abs 0x961e
    960e:	0e 4c       	mov	r12,	r14	
    9610:	0f 4d       	mov	r13,	r15	
    9612:	0e 56       	add	r6,	r14	
    9614:	0f 67       	addc	r7,	r15	
    9616:	85 4e 00 00 	mov	r14,	0(r5)	;0x0000(r5)
    961a:	85 4f 02 00 	mov	r15,	2(r5)	;0x0002(r5)
    961e:	74 90 17 00 	cmp.b	#23,	r4	;#0x0017
    9622:	02 28       	jnc	$+6      	;abs 0x9628
    9624:	80 00 3c 9a 	bra	#0x09a3c	
    9628:	44 44       	mov.b	r4,	r4	
    962a:	54 02       	rlam	#1,	r4	
    962c:	10 44 54 ce 	br	-12716(r4)	;0xce54(r4)
    9630:	5f 42 92 1c 	mov.b	&0x1c92,r15	
    9634:	7f 90 0d 00 	cmp.b	#13,	r15	;#0x000d
    9638:	04 20       	jnz	$+10     	;abs 0x9642
    963a:	f2 40 14 00 92 1c 	mov.b	#20,	&0x1c92	;#0x0014
    9640:	14 3c       	jmp	$+42     	;abs 0x966a
    9642:	7f 90 17 00 	cmp.b	#23,	r15	;#0x0017
    9646:	04 20       	jnz	$+10     	;abs 0x9650
    9648:	f2 40 0a 00 92 1c 	mov.b	#10,	&0x1c92	;#0x000a
    964e:	0d 3c       	jmp	$+28     	;abs 0x966a
    9650:	7f 90 22 00 	cmp.b	#34,	r15	;#0x0022
    9654:	04 20       	jnz	$+10     	;abs 0x965e
    9656:	f2 40 23 00 92 1c 	mov.b	#35,	&0x1c92	;#0x0023
    965c:	06 3c       	jmp	$+14     	;abs 0x966a
    965e:	7f 90 21 00 	cmp.b	#33,	r15	;#0x0021
    9662:	03 20       	jnz	$+8      	;abs 0x966a
    9664:	f2 40 24 00 92 1c 	mov.b	#36,	&0x1c92	;#0x0024
    966a:	b0 12 76 4f 	call	#0x4f76	
    966e:	80 00 3c 9a 	bra	#0x09a3c	
    9672:	c2 93 76 1c 	tst.b	&0x1c76	
    9676:	03 20       	jnz	$+8      	;abs 0x967e
    9678:	e2 c3 5a 21 	bic.b	#2,	&0x215a	;r3 As==10
    967c:	5b 3c       	jmp	$+184    	;abs 0x9734
    967e:	c2 93 75 1c 	tst.b	&0x1c75	
    9682:	4d 20       	jnz	$+156    	;abs 0x971e
    9684:	c2 93 70 1c 	tst.b	&0x1c70	
    9688:	4a 20       	jnz	$+150    	;abs 0x971e
    968a:	82 43 68 1c 	mov	#0,	&0x1c68	;r3 As==00
    968e:	b0 12 a0 50 	call	#0x50a0	
    9692:	3d 40 05 00 	mov	#5,	r13	;#0x0005
    9696:	0e 43       	clr	r14		
    9698:	6f 42       	mov.b	#4,	r15	;r2 As==10
    969a:	b0 12 66 5e 	call	#0x5e66	
    969e:	1f 42 6c 1c 	mov	&0x1c6c,r15	
    96a2:	0e 4f       	mov	r15,	r14	
    96a4:	1e 53       	inc	r14		
    96a6:	82 4e 6c 1c 	mov	r14,	&0x1c6c	
    96aa:	c2 4f b1 23 	mov.b	r15,	&0x23b1	
    96ae:	8f 10       	swpb	r15		
    96b0:	c2 4f b0 23 	mov.b	r15,	&0x23b0	
    96b4:	1f 42 44 1c 	mov	&0x1c44,r15	
    96b8:	c2 4f b3 23 	mov.b	r15,	&0x23b3	
    96bc:	8f 10       	swpb	r15		
    96be:	c2 4f b2 23 	mov.b	r15,	&0x23b2	
    96c2:	b0 12 a0 4e 	call	#0x4ea0	
    96c6:	81 4e 00 00 	mov	r14,	0(r1)	;0x0000(r1)
    96ca:	81 4f 02 00 	mov	r15,	2(r1)	;0x0002(r1)
    96ce:	0d 4e       	mov	r14,	r13	
    96d0:	0e 4f       	mov	r15,	r14	
    96d2:	3f 40 b4 23 	mov	#9140,	r15	;#0x23b4
    96d6:	b0 12 0e 4b 	call	#0x4b0e	
    96da:	0f 41       	mov	r1,	r15	
    96dc:	b0 12 2e 61 	call	#0x612e	
    96e0:	2d 41       	mov	@r1,	r13	
    96e2:	1e 41 02 00 	mov	2(r1),	r14	;0x0002(r1)
    96e6:	3f 40 b8 23 	mov	#9144,	r15	;#0x23b8
    96ea:	b0 12 0e 4b 	call	#0x4b0e	
    96ee:	c2 43 e2 23 	mov.b	#0,	&0x23e2	;r3 As==00
    96f2:	e2 43 e3 23 	mov.b	#2,	&0x23e3	;r3 As==10
    96f6:	3f 40 b4 23 	mov	#9140,	r15	;#0x23b4
    96fa:	b0 12 3a 4b 	call	#0x4b3a	
    96fe:	1f 15       	pushm	#2,	r15	
    9700:	7c 40 0c 00 	mov.b	#12,	r12	;#0x000c
    9704:	3d 40 a4 23 	mov	#9124,	r13	;#0x23a4
    9708:	3e 43       	mov	#-1,	r14	;r3 As==11
    970a:	7f 40 06 00 	mov.b	#6,	r15	;#0x0006
    970e:	b0 12 f2 6a 	call	#0x6af2	
    9712:	21 52       	add	#4,	r1	;r2 As==10
    9714:	0f 93       	tst	r15		
    9716:	0e 20       	jnz	$+30     	;abs 0x9734
    9718:	d2 43 75 1c 	mov.b	#1,	&0x1c75	;r3 As==01
    971c:	0b 3c       	jmp	$+24     	;abs 0x9734
    971e:	1f 42 68 1c 	mov	&0x1c68,r15	
    9722:	1f 53       	inc	r15		
    9724:	82 4f 68 1c 	mov	r15,	&0x1c68	
    9728:	2f 93       	cmp	#2,	r15	;r3 As==10
    972a:	04 28       	jnc	$+10     	;abs 0x9734
    972c:	c2 43 75 1c 	mov.b	#0,	&0x1c75	;r3 As==00
    9730:	82 43 68 1c 	mov	#0,	&0x1c68	;r3 As==00
    9734:	c2 43 70 1c 	mov.b	#0,	&0x1c70	;r3 As==00
    9738:	80 00 3c 9a 	bra	#0x09a3c	
    973c:	b0 12 b0 51 	call	#0x51b0	
    9740:	3d 40 05 00 	mov	#5,	r13	;#0x0005
    9744:	0e 43       	clr	r14		
    9746:	6f 42       	mov.b	#4,	r15	;r2 As==10
    9748:	b0 12 66 5e 	call	#0x5e66	
    974c:	92 93 44 1c 	cmp	#1,	&0x1c44	;r3 As==01
    9750:	03 20       	jnz	$+8      	;abs 0x9758
    9752:	7f 42       	mov.b	#8,	r15	;r2 As==11
    9754:	b0 12 f6 4e 	call	#0x4ef6	
    9758:	4f 43       	clr.b	r15		
    975a:	b0 12 6c 67 	call	#0x676c	
    975e:	80 00 3c 9a 	bra	#0x09a3c	
    9762:	b0 12 68 50 	call	#0x5068	
    9766:	b0 12 7a 50 	call	#0x507a	
    976a:	b0 12 8c 50 	call	#0x508c	
    976e:	80 00 3c 9a 	bra	#0x09a3c	
    9772:	3d 40 20 4e 	mov	#20000,	r13	;#0x4e20
    9776:	0e 43       	clr	r14		
    9778:	6f 43       	mov.b	#2,	r15	;r3 As==10
    977a:	b0 12 be 60 	call	#0x60be	
    977e:	80 00 3c 9a 	bra	#0x09a3c	
    9782:	7f 42       	mov.b	#8,	r15	;r2 As==11
    9784:	9e 3c       	jmp	$+318    	;abs 0x98c2
    9786:	b0 12 c2 51 	call	#0x51c2	
    978a:	3d 40 05 00 	mov	#5,	r13	;#0x0005
    978e:	0e 43       	clr	r14		
    9790:	6f 42       	mov.b	#4,	r15	;r2 As==10
    9792:	80 00 9c 99 	bra	#0x0999c	
    9796:	3d 40 b8 0b 	mov	#3000,	r13	;#0x0bb8
    979a:	0e 43       	clr	r14		
    979c:	7f 40 0d 00 	mov.b	#13,	r15	;#0x000d
    97a0:	b0 12 66 5e 	call	#0x5e66	
    97a4:	0b 93       	tst	r11		
    97a6:	02 20       	jnz	$+6      	;abs 0x97ac
    97a8:	80 00 3c 9a 	bra	#0x09a3c	
    97ac:	32 d2       	eint			
    97ae:	80 00 3c 9a 	bra	#0x09a3c	
    97b2:	7f 40 09 00 	mov.b	#9,	r15	;#0x0009
    97b6:	85 3c       	jmp	$+268    	;abs 0x98c2
    97b8:	5f 42 22 33 	mov.b	&0x3322,r15	
    97bc:	7f 90 0f 00 	cmp.b	#15,	r15	;#0x000f
    97c0:	07 2c       	jc	$+16     	;abs 0x97d0
    97c2:	5f 53       	inc.b	r15		
    97c4:	c2 4f 22 33 	mov.b	r15,	&0x3322	
    97c8:	b0 12 62 4f 	call	#0x4f62	
    97cc:	80 00 3c 9a 	bra	#0x09a3c	
    97d0:	e2 c3 aa 21 	bic.b	#2,	&0x21aa	;r3 As==10
    97d4:	80 00 3c 9a 	bra	#0x09a3c	
    97d8:	0b 42       	mov	r2,	r11	
    97da:	3b f2       	and	#8,	r11	;r2 As==11
    97dc:	32 c2       	dint			
    97de:	03 43       	nop			
    97e0:	1c 42 9e 23 	mov	&0x239e,r12	
    97e4:	1d 42 a0 23 	mov	&0x23a0,r13	
    97e8:	1e 42 58 1f 	mov	&0x1f58,r14	
    97ec:	1f 42 5a 1f 	mov	&0x1f5a,r15	
    97f0:	0f 93       	tst	r15		
    97f2:	03 20       	jnz	$+8      	;abs 0x97fa
    97f4:	3e 90 33 00 	cmp	#51,	r14	;#0x0033
    97f8:	04 28       	jnc	$+10     	;abs 0x9802
    97fa:	3e 50 cf ff 	add	#-49,	r14	;#0xffcf
    97fe:	3f 63       	addc	#-1,	r15	;r3 As==11
    9800:	02 3c       	jmp	$+6      	;abs 0x9806
    9802:	0e 43       	clr	r14		
    9804:	0f 43       	clr	r15		
    9806:	0f 9d       	cmp	r13,	r15	
    9808:	04 28       	jnc	$+10     	;abs 0x9812
    980a:	0d 9f       	cmp	r15,	r13	
    980c:	c4 2b       	jnc	$-118    	;abs 0x9796
    980e:	0e 9c       	cmp	r12,	r14	
    9810:	c2 2f       	jc	$-122    	;abs 0x9796
    9812:	b0 12 4e 4f 	call	#0x4f4e	
    9816:	c6 3f       	jmp	$-114    	;abs 0x97a4
    9818:	5e 42 96 1c 	mov.b	&0x1c96,r14	
    981c:	1e 53       	inc	r14		
    981e:	0f 4e       	mov	r14,	r15	
    9820:	8f 10       	swpb	r15		
    9822:	8f 11       	sxt	r15		
    9824:	8f 10       	swpb	r15		
    9826:	8f 11       	sxt	r15		
    9828:	3c 40 32 00 	mov	#50,	r12	;#0x0032
    982c:	0d 43       	clr	r13		
    982e:	b0 12 36 bd 	call	#0xbd36	
    9832:	c2 4e 04 34 	mov.b	r14,	&0x3404	
    9836:	c2 9e 36 24 	cmp.b	r14,	&0x2436	
    983a:	0f 20       	jnz	$+32     	;abs 0x985a
    983c:	5f 42 32 21 	mov.b	&0x2132,r15	
    9840:	6f 92       	cmp.b	#4,	r15	;r2 As==10
    9842:	04 28       	jnc	$+10     	;abs 0x984c
    9844:	e2 c3 be 21 	bic.b	#2,	&0x21be	;r3 As==10
    9848:	80 00 3c 9a 	bra	#0x09a3c	
    984c:	5f 53       	inc.b	r15		
    984e:	c2 4f 32 21 	mov.b	r15,	&0x2132	
    9852:	b0 12 58 4f 	call	#0x4f58	
    9856:	80 00 3c 9a 	bra	#0x09a3c	
    985a:	c2 4e 36 24 	mov.b	r14,	&0x2436	
    985e:	d2 43 32 21 	mov.b	#1,	&0x2132	;r3 As==01
    9862:	f7 3f       	jmp	$-16     	;abs 0x9852
    9864:	c2 93 81 1c 	tst.b	&0x1c81	
    9868:	2f 20       	jnz	$+96     	;abs 0x98c8
    986a:	1f 42 e8 1c 	mov	&0x1ce8,r15	
    986e:	6e 4f       	mov.b	@r15,	r14	
    9870:	8e 10       	swpb	r14		
    9872:	5d 4f 01 00 	mov.b	1(r15),	r13	;0x0001(r15)
    9876:	0e dd       	bis	r13,	r14	
    9878:	3e 93       	cmp	#-1,	r14	;r3 As==11
    987a:	11 20       	jnz	$+36     	;abs 0x989e
    987c:	5e 42 72 20 	mov.b	&0x2072,r14	
    9880:	5e 53       	inc.b	r14		
    9882:	c2 4e 72 20 	mov.b	r14,	&0x2072	
    9886:	7e 90 05 00 	cmp.b	#5,	r14	;#0x0005
    988a:	09 28       	jnc	$+20     	;abs 0x989e
    988c:	cf 43 04 00 	mov.b	#0,	4(r15)	;r3 As==00, 0x0004(r15)
    9890:	1e 42 44 1c 	mov	&0x1c44,r14	
    9894:	cf 4e 01 00 	mov.b	r14,	1(r15)	;0x0001(r15)
    9898:	8e 10       	swpb	r14		
    989a:	cf 4e 00 00 	mov.b	r14,	0(r15)	;0x0000(r15)
    989e:	1e 42 e8 1c 	mov	&0x1ce8,r14	
    98a2:	6f 4e       	mov.b	@r14,	r15	
    98a4:	8f 10       	swpb	r15		
    98a6:	5e 4e 01 00 	mov.b	1(r14),	r14	;0x0001(r14)
    98aa:	0f de       	bis	r14,	r15	
    98ac:	3f 93       	cmp	#-1,	r15	;r3 As==11
    98ae:	c6 24       	jz	$+398    	;abs 0x9a3c
    98b0:	5f 42 71 1f 	mov.b	&0x1f71,r15	
    98b4:	6f b3       	bit.b	#2,	r15	;r3 As==10
    98b6:	c2 20       	jnz	$+390    	;abs 0x9a3c
    98b8:	6f d3       	bis.b	#2,	r15	;r3 As==10
    98ba:	c2 4f 71 1f 	mov.b	r15,	&0x1f71	
    98be:	7f 40 24 00 	mov.b	#36,	r15	;#0x0024
    98c2:	b0 12 f6 4e 	call	#0x4ef6	
    98c6:	ba 3c       	jmp	$+374    	;abs 0x9a3c
    98c8:	e2 c3 d2 21 	bic.b	#2,	&0x21d2	;r3 As==10
    98cc:	b7 3c       	jmp	$+368    	;abs 0x9a3c
    98ce:	e2 b3 40 02 	bit.b	#2,	&0x0240	;r3 As==10
    98d2:	0d 20       	jnz	$+28     	;abs 0x98ee
    98d4:	d2 b3 40 02 	bit.b	#1,	&0x0240	;r3 As==01
    98d8:	03 20       	jnz	$+8      	;abs 0x98e0
    98da:	82 43 da 36 	mov	#0,	&0x36da	;r3 As==00
    98de:	02 3c       	jmp	$+6      	;abs 0x98e4
    98e0:	92 43 da 36 	mov	#1,	&0x36da	;r3 As==01
    98e4:	b0 12 c2 51 	call	#0x51c2	
    98e8:	b0 12 7a 50 	call	#0x507a	
    98ec:	a7 3c       	jmp	$+336    	;abs 0x9a3c
    98ee:	d2 b3 40 02 	bit.b	#1,	&0x0240	;r3 As==01
    98f2:	07 20       	jnz	$+16     	;abs 0x9902
    98f4:	b0 12 68 50 	call	#0x5068	
    98f8:	b0 12 b0 51 	call	#0x51b0	
    98fc:	a2 43 da 36 	mov	#2,	&0x36da	;r3 As==10
    9900:	9d 3c       	jmp	$+316    	;abs 0x9a3c
    9902:	b0 12 68 50 	call	#0x5068	
    9906:	b0 12 7a 50 	call	#0x507a	
    990a:	e2 c3 dc 21 	bic.b	#2,	&0x21dc	;r3 As==10
    990e:	0f 42       	mov	r2,	r15	
    9910:	32 c2       	dint			
    9912:	03 43       	nop			
    9914:	d2 c3 1a 02 	bic.b	#1,	&0x021a	;r3 As==01
    9918:	d2 c3 1c 02 	bic.b	#1,	&0x021c	;r3 As==01
    991c:	d2 d3 18 02 	bis.b	#1,	&0x0218	;r3 As==01
    9920:	d2 d3 1a 02 	bis.b	#1,	&0x021a	;r3 As==01
    9924:	3f f2       	and	#8,	r15	;r2 As==11
    9926:	01 24       	jz	$+4      	;abs 0x992a
    9928:	32 d2       	eint			
    992a:	b2 40 03 00 da 36 	mov	#3,	&0x36da	;#0x0003
    9930:	85 3c       	jmp	$+268    	;abs 0x9a3c
    9932:	1f 42 2a 24 	mov	&0x242a,r15	
    9936:	3f 90 03 00 	cmp	#3,	r15	;#0x0003
    993a:	03 24       	jz	$+8      	;abs 0x9942
    993c:	2f 92       	cmp	#4,	r15	;r2 As==10
    993e:	7e 20       	jnz	$+254    	;abs 0x9a3c
    9940:	03 3c       	jmp	$+8      	;abs 0x9948
    9942:	92 43 2a 24 	mov	#1,	&0x242a	;r3 As==01
    9946:	02 3c       	jmp	$+6      	;abs 0x994c
    9948:	a2 43 2a 24 	mov	#2,	&0x242a	;r3 As==10
    994c:	5f 42 01 1c 	mov.b	&0x1c01,r15	
    9950:	7f 93       	cmp.b	#-1,	r15	;r3 As==11
    9952:	74 24       	jz	$+234    	;abs 0x9a3c
    9954:	b0 12 c8 94 	call	#0x94c8	
    9958:	71 3c       	jmp	$+228    	;abs 0x9a3c
    995a:	1f 42 2a 24 	mov	&0x242a,r15	
    995e:	3f 90 05 00 	cmp	#5,	r15	;#0x0005
    9962:	04 24       	jz	$+10     	;abs 0x996c
    9964:	3f 90 06 00 	cmp	#6,	r15	;#0x0006
    9968:	69 20       	jnz	$+212    	;abs 0x9a3c
    996a:	0d 3c       	jmp	$+28     	;abs 0x9986
    996c:	b0 12 2c 62 	call	#0x622c	
    9970:	0f 93       	tst	r15		
    9972:	03 20       	jnz	$+8      	;abs 0x997a
    9974:	82 43 2a 24 	mov	#0,	&0x242a	;r3 As==00
    9978:	61 3c       	jmp	$+196    	;abs 0x9a3c
    997a:	3d 40 14 00 	mov	#20,	r13	;#0x0014
    997e:	0e 43       	clr	r14		
    9980:	7f 40 11 00 	mov.b	#17,	r15	;#0x0011
    9984:	0b 3c       	jmp	$+24     	;abs 0x999c
    9986:	b0 12 2c 62 	call	#0x622c	
    998a:	0f 93       	tst	r15		
    998c:	f6 23       	jnz	$-18     	;abs 0x997a
    998e:	82 43 2a 24 	mov	#0,	&0x242a	;r3 As==00
    9992:	3d 40 00 08 	mov	#2048,	r13	;#0x0800
    9996:	0e 43       	clr	r14		
    9998:	7f 40 12 00 	mov.b	#18,	r15	;#0x0012
    999c:	b0 12 66 5e 	call	#0x5e66	
    99a0:	4d 3c       	jmp	$+156    	;abs 0x9a3c
    99a2:	b0 12 60 53 	call	#0x5360	
    99a6:	4a 3c       	jmp	$+150    	;abs 0x9a3c
    99a8:	b0 12 72 53 	call	#0x5372	
    99ac:	47 3c       	jmp	$+144    	;abs 0x9a3c
    99ae:	b0 12 84 53 	call	#0x5384	
    99b2:	44 3c       	jmp	$+138    	;abs 0x9a3c
    99b4:	55 42 96 1c 	mov.b	&0x1c96,r5	
    99b8:	08 43       	clr	r8		
    99ba:	09 43       	clr	r9		
    99bc:	06 43       	clr	r6		
    99be:	2e 3c       	jmp	$+94     	;abs 0x9a1c
    99c0:	4a 45       	mov.b	r5,	r10	
    99c2:	8a 11       	sxt	r10		
    99c4:	0f 4a       	mov	r10,	r15	
    99c6:	8f 10       	swpb	r15		
    99c8:	8f 11       	sxt	r15		
    99ca:	0b 4f       	mov	r15,	r11	
    99cc:	3c 40 32 00 	mov	#50,	r12	;#0x0032
    99d0:	0d 43       	clr	r13		
    99d2:	0e 48       	mov	r8,	r14	
    99d4:	0f 49       	mov	r9,	r15	
    99d6:	0e 5a       	add	r10,	r14	
    99d8:	0f 6b       	addc	r11,	r15	
    99da:	b0 12 36 bd 	call	#0xbd36	
    99de:	0f 4e       	mov	r14,	r15	
    99e0:	5f 02       	rlam	#1,	r15	
    99e2:	07 4e       	mov	r14,	r7	
    99e4:	57 0e       	rlam	#4,	r7	
    99e6:	07 8f       	sub	r15,	r7	
    99e8:	04 47       	mov	r7,	r4	
    99ea:	34 50 16 34 	add	#13334,	r4	;#0x3416
    99ee:	6f 44       	mov.b	@r4,	r15	
    99f0:	7f 90 03 00 	cmp.b	#3,	r15	;#0x0003
    99f4:	10 24       	jz	$+34     	;abs 0x9a16
    99f6:	4f 93       	tst.b	r15		
    99f8:	0e 24       	jz	$+30     	;abs 0x9a16
    99fa:	37 50 20 34 	add	#13344,	r7	;#0x3420
    99fe:	e2 47 04 34 	mov.b	@r7,	&0x3404	
    9a02:	d7 53 01 00 	inc.b	1(r7)		;0x0001(r7)
    9a06:	b0 12 58 4f 	call	#0x4f58	
    9a0a:	f7 90 06 00 01 00 	cmp.b	#6,	1(r7)	;#0x0006, 0x0001(r7)
    9a10:	02 28       	jnc	$+6      	;abs 0x9a16
    9a12:	c4 43 00 00 	mov.b	#0,	0(r4)	;r3 As==00, 0x0000(r4)
    9a16:	16 53       	inc	r6		
    9a18:	18 53       	inc	r8		
    9a1a:	09 63       	adc	r9		
    9a1c:	5f 42 96 1c 	mov.b	&0x1c96,r15	
    9a20:	3f 50 31 00 	add	#49,	r15	;#0x0031
    9a24:	4e 45       	mov.b	r5,	r14	
    9a26:	8e 11       	sxt	r14		
    9a28:	0e 56       	add	r6,	r14	
    9a2a:	0f 9e       	cmp	r14,	r15	
    9a2c:	c9 37       	jge	$-108    	;abs 0x99c0
    9a2e:	06 3c       	jmp	$+14     	;abs 0x9a3c
    9a30:	14 53       	inc	r4		
    9a32:	34 90 17 00 	cmp	#23,	r4	;#0x0017
    9a36:	02 24       	jz	$+6      	;abs 0x9a3c
    9a38:	80 00 bc 95 	bra	#0x095bc	
    9a3c:	7f 40 05 00 	mov.b	#5,	r15	;#0x0005
    9a40:	b0 12 f6 4e 	call	#0x4ef6	
    9a44:	31 50 06 00 	add	#6,	r1	;#0x0006
    9a48:	74 17       	popm	#8,	r11	
    9a4a:	30 41       	ret			

00009a4c <Msp430RefVoltGeneratorP__signalStartDone.isra.338>:
    9a4c:	5f 42 01 1c 	mov.b	&0x1c01,r15	
    9a50:	7f 93       	cmp.b	#-1,	r15	;r3 As==11
    9a52:	02 24       	jz	$+6      	;abs 0x9a58
    9a54:	b0 12 c8 94 	call	#0x94c8	
    9a58:	30 41       	ret			

00009a5a <Msp430RefVoltGeneratorP__stop>:
    9a5a:	0b 12       	push	r11		
    9a5c:	1e 42 2a 24 	mov	&0x242a,r14	
    9a60:	0e 93       	tst	r14		
    9a62:	25 24       	jz	$+76     	;abs 0x9aae
    9a64:	0d 4e       	mov	r14,	r13	
    9a66:	3d 53       	add	#-1,	r13	;r3 As==11
    9a68:	2d 93       	cmp	#2,	r13	;r3 As==10
    9a6a:	0a 2c       	jc	$+22     	;abs 0x9a80
    9a6c:	82 4f 2a 24 	mov	r15,	&0x242a	
    9a70:	3d 40 14 00 	mov	#20,	r13	;#0x0014
    9a74:	0e 43       	clr	r14		
    9a76:	7f 40 11 00 	mov.b	#17,	r15	;#0x0011
    9a7a:	b0 12 66 5e 	call	#0x5e66	
    9a7e:	15 3c       	jmp	$+44     	;abs 0x9aaa
    9a80:	0d 4e       	mov	r14,	r13	
    9a82:	3d 50 fd ff 	add	#-3,	r13	;#0xfffd
    9a86:	2d 93       	cmp	#2,	r13	;r3 As==10
    9a88:	0e 2c       	jc	$+30     	;abs 0x9aa6
    9a8a:	b0 12 2c 62 	call	#0x622c	
    9a8e:	0b 4f       	mov	r15,	r11	
    9a90:	0f 93       	tst	r15		
    9a92:	12 20       	jnz	$+38     	;abs 0x9ab8
    9a94:	1f 42 2a 24 	mov	&0x242a,r15	
    9a98:	e2 c3 e6 21 	bic.b	#2,	&0x21e6	;r3 As==10
    9a9c:	82 43 2a 24 	mov	#0,	&0x242a	;r3 As==00
    9aa0:	b0 12 4c 9a 	call	#0x9a4c	
    9aa4:	09 3c       	jmp	$+20     	;abs 0x9ab8
    9aa6:	0e 9f       	cmp	r15,	r14	
    9aa8:	05 20       	jnz	$+12     	;abs 0x9ab4
    9aaa:	0b 43       	clr	r11		
    9aac:	05 3c       	jmp	$+12     	;abs 0x9ab8
    9aae:	3b 40 09 00 	mov	#9,	r11	;#0x0009
    9ab2:	02 3c       	jmp	$+6      	;abs 0x9ab8
    9ab4:	3b 40 05 00 	mov	#5,	r11	;#0x0005
    9ab8:	0f 4b       	mov	r11,	r15	
    9aba:	3b 41       	pop	r11		
    9abc:	30 41       	ret			

00009abe <Msp430RefVoltGeneratorP__start>:
    9abe:	1b 15       	pushm	#2,	r11	
    9ac0:	0b 4f       	mov	r15,	r11	
    9ac2:	1f 42 2a 24 	mov	&0x242a,r15	
    9ac6:	0e 4f       	mov	r15,	r14	
    9ac8:	3e 53       	add	#-1,	r14	;r3 As==11
    9aca:	2e 93       	cmp	#2,	r14	;r3 As==10
    9acc:	0c 2c       	jc	$+26     	;abs 0x9ae6
    9ace:	0b 9f       	cmp	r15,	r11	
    9ad0:	5d 24       	jz	$+188    	;abs 0x9b8c
    9ad2:	4f 4b       	mov.b	r11,	r15	
    9ad4:	b0 12 94 62 	call	#0x6294	
    9ad8:	0a 4f       	mov	r15,	r10	
    9ada:	0f 93       	tst	r15		
    9adc:	5c 20       	jnz	$+186    	;abs 0x9b96
    9ade:	92 93 2a 24 	cmp	#1,	&0x242a	;r3 As==01
    9ae2:	44 20       	jnz	$+138    	;abs 0x9b6c
    9ae4:	3d 3c       	jmp	$+124    	;abs 0x9b60
    9ae6:	0f 93       	tst	r15		
    9ae8:	1f 20       	jnz	$+64     	;abs 0x9b28
    9aea:	4f 4b       	mov.b	r11,	r15	
    9aec:	b0 12 94 62 	call	#0x6294	
    9af0:	0a 4f       	mov	r15,	r10	
    9af2:	0f 93       	tst	r15		
    9af4:	50 20       	jnz	$+162    	;abs 0x9b96
    9af6:	1b 93       	cmp	#1,	r11	;r3 As==01
    9af8:	0a 20       	jnz	$+22     	;abs 0x9b0e
    9afa:	e2 b3 fa 21 	bit.b	#2,	&0x21fa	;r3 As==10
    9afe:	0f 43       	clr	r15		
    9b00:	0f 6f       	rlc	r15		
    9b02:	4f 93       	tst.b	r15		
    9b04:	04 24       	jz	$+10     	;abs 0x9b0e
    9b06:	3d 40 46 00 	mov	#70,	r13	;#0x0046
    9b0a:	0e 43       	clr	r14		
    9b0c:	03 3c       	jmp	$+8      	;abs 0x9b14
    9b0e:	3d 40 11 00 	mov	#17,	r13	;#0x0011
    9b12:	0e 43       	clr	r14		
    9b14:	7f 40 10 00 	mov.b	#16,	r15	;#0x0010
    9b18:	b0 12 66 5e 	call	#0x5e66	
    9b1c:	e2 c3 fa 21 	bic.b	#2,	&0x21fa	;r3 As==10
    9b20:	2b 53       	incd	r11		
    9b22:	82 4b 2a 24 	mov	r11,	&0x242a	
    9b26:	37 3c       	jmp	$+112    	;abs 0x9b96
    9b28:	0e 4f       	mov	r15,	r14	
    9b2a:	3e 50 fb ff 	add	#-5,	r14	;#0xfffb
    9b2e:	2e 93       	cmp	#2,	r14	;r3 As==10
    9b30:	28 2c       	jc	$+82     	;abs 0x9b82
    9b32:	4f 4b       	mov.b	r11,	r15	
    9b34:	b0 12 94 62 	call	#0x6294	
    9b38:	0a 4f       	mov	r15,	r10	
    9b3a:	0f 93       	tst	r15		
    9b3c:	2c 20       	jnz	$+90     	;abs 0x9b96
    9b3e:	e2 c3 f0 21 	bic.b	#2,	&0x21f0	;r3 As==10
    9b42:	1f 42 2a 24 	mov	&0x242a,r15	
    9b46:	0e 4f       	mov	r15,	r14	
    9b48:	2e 82       	sub	#4,	r14	;r2 As==10
    9b4a:	0b 9e       	cmp	r14,	r11	
    9b4c:	06 20       	jnz	$+14     	;abs 0x9b5a
    9b4e:	82 4b 2a 24 	mov	r11,	&0x242a	
    9b52:	0f 4b       	mov	r11,	r15	
    9b54:	b0 12 4c 9a 	call	#0x9a4c	
    9b58:	1e 3c       	jmp	$+62     	;abs 0x9b96
    9b5a:	3f 90 05 00 	cmp	#5,	r15	;#0x0005
    9b5e:	06 20       	jnz	$+14     	;abs 0x9b6c
    9b60:	a2 42 2a 24 	mov	#4,	&0x242a	;r2 As==10
    9b64:	3d 40 11 00 	mov	#17,	r13	;#0x0011
    9b68:	0e 43       	clr	r14		
    9b6a:	06 3c       	jmp	$+14     	;abs 0x9b78
    9b6c:	b2 40 03 00 2a 24 	mov	#3,	&0x242a	;#0x0003
    9b72:	3d 40 46 00 	mov	#70,	r13	;#0x0046
    9b76:	0e 43       	clr	r14		
    9b78:	7f 40 10 00 	mov.b	#16,	r15	;#0x0010
    9b7c:	b0 12 66 5e 	call	#0x5e66	
    9b80:	0a 3c       	jmp	$+22     	;abs 0x9b96
    9b82:	2b 53       	incd	r11		
    9b84:	0f 9b       	cmp	r11,	r15	
    9b86:	05 20       	jnz	$+12     	;abs 0x9b92
    9b88:	0a 43       	clr	r10		
    9b8a:	05 3c       	jmp	$+12     	;abs 0x9b96
    9b8c:	3a 40 09 00 	mov	#9,	r10	;#0x0009
    9b90:	02 3c       	jmp	$+6      	;abs 0x9b96
    9b92:	3a 40 05 00 	mov	#5,	r10	;#0x0005
    9b96:	0f 4a       	mov	r10,	r15	
    9b98:	1a 17       	popm	#2,	r11	
    9b9a:	30 41       	ret			

00009b9c <Msp430RefVoltArbiterImplP__AdcResource__granted>:
    9b9c:	0b 12       	push	r11		
    9b9e:	4b 4f       	mov.b	r15,	r11	
    9ba0:	7f 90 03 00 	cmp.b	#3,	r15	;#0x0003
    9ba4:	03 28       	jnc	$+8      	;abs 0x9bac
    9ba6:	3f 40 68 cf 	mov	#-12440,r15	;#0xcf68
    9baa:	02 3c       	jmp	$+6      	;abs 0x9bb0
    9bac:	3f 40 60 cf 	mov	#-12448,r15	;#0xcf60
    9bb0:	6e 4f       	mov.b	@r15,	r14	
    9bb2:	7e f0 e0 ff 	and.b	#-32,	r14	;#0xffe0
    9bb6:	7e 90 20 00 	cmp.b	#32,	r14	;#0x0020
    9bba:	03 24       	jz	$+8      	;abs 0x9bc2
    9bbc:	7e 90 a0 ff 	cmp.b	#-96,	r14	;#0xffa0
    9bc0:	1d 20       	jnz	$+60     	;abs 0x9bfc
    9bc2:	f2 93 01 1c 	cmp.b	#-1,	&0x1c01	;r3 As==11
    9bc6:	01 24       	jz	$+4      	;abs 0x9bca
    9bc8:	12 3c       	jmp	$+38     	;abs 0x9bee
    9bca:	c2 4b 01 1c 	mov.b	r11,	&0x1c01	
    9bce:	df b3 01 00 	bit.b	#1,	1(r15)	;r3 As==01, 0x0001(r15)
    9bd2:	04 20       	jnz	$+10     	;abs 0x9bdc
    9bd4:	c2 43 f8 23 	mov.b	#0,	&0x23f8	;r3 As==00
    9bd8:	1f 43       	mov	#1,	r15	;r3 As==01
    9bda:	03 3c       	jmp	$+8      	;abs 0x9be2
    9bdc:	d2 43 f8 23 	mov.b	#1,	&0x23f8	;r3 As==01
    9be0:	2f 43       	mov	#2,	r15	;r3 As==10
    9be2:	b0 12 be 9a 	call	#0x9abe	
    9be6:	0f 93       	tst	r15		
    9be8:	0c 24       	jz	$+26     	;abs 0x9c02
    9bea:	f2 43 01 1c 	mov.b	#-1,	&0x1c01	;r3 As==11
    9bee:	4f 4b       	mov.b	r11,	r15	
    9bf0:	b0 12 d6 5d 	call	#0x5dd6	
    9bf4:	4f 4b       	mov.b	r11,	r15	
    9bf6:	b0 12 38 68 	call	#0x6838	
    9bfa:	03 3c       	jmp	$+8      	;abs 0x9c02
    9bfc:	4f 4b       	mov.b	r11,	r15	
    9bfe:	b0 12 c8 94 	call	#0x94c8	
    9c02:	3b 41       	pop	r11		
    9c04:	30 41       	ret			

00009c06 <SchedulerBasicP__TaskBasic__runTask>:
    9c06:	7b 15       	pushm	#8,	r11	
    9c08:	31 50 b2 ff 	add	#-78,	r1	;#0xffb2
    9c0c:	7f 90 2e 00 	cmp.b	#46,	r15	;#0x002e
    9c10:	02 28       	jnc	$+6      	;abs 0x9c16
    9c12:	80 00 0c bc 	bra	#0x0bc0c	
    9c16:	4f 4f       	mov.b	r15,	r15	
    9c18:	5f 02       	rlam	#1,	r15	
    9c1a:	10 4f 84 ce 	br	-12668(r15)	;0xce84(r15)
    9c1e:	0f 42       	mov	r2,	r15	
    9c20:	32 c2       	dint			
    9c22:	03 43       	nop			
    9c24:	d2 42 36 1c 77 1c 	mov.b	&0x1c36,&0x1c77	
    9c2a:	f2 43 36 1c 	mov.b	#-1,	&0x1c36	;r3 As==11
    9c2e:	e2 42 5f 1f 	mov.b	#4,	&0x1f5f	;r2 As==10
    9c32:	3f f2       	and	#8,	r15	;r2 As==11
    9c34:	0f 93       	tst	r15		
    9c36:	02 20       	jnz	$+6      	;abs 0x9c3c
    9c38:	80 00 0c bc 	bra	#0x0bc0c	
    9c3c:	32 d2       	eint			
    9c3e:	80 00 0c bc 	bra	#0x0bc0c	
    9c42:	0f 42       	mov	r2,	r15	
    9c44:	32 c2       	dint			
    9c46:	03 43       	nop			
    9c48:	d2 42 32 1c 33 1c 	mov.b	&0x1c32,&0x1c33	
    9c4e:	f2 43 32 1c 	mov.b	#-1,	&0x1c32	;r3 As==11
    9c52:	e2 42 da 20 	mov.b	#4,	&0x20da	;r2 As==10
    9c56:	3f f2       	and	#8,	r15	;r2 As==11
    9c58:	01 24       	jz	$+4      	;abs 0x9c5c
    9c5a:	32 d2       	eint			
    9c5c:	5f 42 33 1c 	mov.b	&0x1c33,r15	
    9c60:	4f 93       	tst.b	r15		
    9c62:	03 24       	jz	$+8      	;abs 0x9c6a
    9c64:	5f 93       	cmp.b	#1,	r15	;r3 As==01
    9c66:	08 20       	jnz	$+18     	;abs 0x9c78
    9c68:	03 3c       	jmp	$+8      	;abs 0x9c70
    9c6a:	3f 40 12 1c 	mov	#7186,	r15	;#0x1c12
    9c6e:	02 3c       	jmp	$+6      	;abs 0x9c74
    9c70:	3f 40 38 1c 	mov	#7224,	r15	;#0x1c38
    9c74:	b0 12 08 59 	call	#0x5908	
    9c78:	5f 42 33 1c 	mov.b	&0x1c33,r15	
    9c7c:	4f 93       	tst.b	r15		
    9c7e:	05 24       	jz	$+12     	;abs 0x9c8a
    9c80:	5f 93       	cmp.b	#1,	r15	;r3 As==01
    9c82:	02 24       	jz	$+6      	;abs 0x9c88
    9c84:	80 00 0c bc 	bra	#0x0bc0c	
    9c88:	c9 3c       	jmp	$+404    	;abs 0x9e1c
    9c8a:	5f 42 61 1c 	mov.b	&0x1c61,r15	
    9c8e:	7f 50 fb ff 	add.b	#-5,	r15	;#0xfffb
    9c92:	6f 93       	cmp.b	#2,	r15	;r3 As==10
    9c94:	0c 2c       	jc	$+26     	;abs 0x9cae
    9c96:	b0 12 8c 51 	call	#0x518c	
    9c9a:	7f 40 d7 ff 	mov.b	#-41,	r15	;#0xffd7
    9c9e:	b0 12 18 4d 	call	#0x4d18	
    9ca2:	7f 40 1b 00 	mov.b	#27,	r15	;#0x001b
    9ca6:	b0 12 f6 4e 	call	#0x4ef6	
    9caa:	80 00 0c bc 	bra	#0x0bc0c	
    9cae:	18 42 2e 20 	mov	&0x202e,r8	
    9cb2:	82 93 be 22 	tst	&0x22be	
    9cb6:	35 24       	jz	$+108    	;abs 0x9d22
    9cb8:	5b 42 d2 1f 	mov.b	&0x1fd2,r11	
    9cbc:	2b 52       	add	#4,	r11	;r2 As==10
    9cbe:	b0 12 8c 51 	call	#0x518c	
    9cc2:	59 43       	mov.b	#1,	r9	;r3 As==01
    9cc4:	3a 40 2c 24 	mov	#9260,	r10	;#0x242c
    9cc8:	47 43       	clr.b	r7		
    9cca:	4f 43       	clr.b	r15		
    9ccc:	79 90 03 00 	cmp.b	#3,	r9	;#0x0003
    9cd0:	06 20       	jnz	$+14     	;abs 0x9cde
    9cd2:	4e 4f       	mov.b	r15,	r14	
    9cd4:	0f 48       	mov	r8,	r15	
    9cd6:	b0 12 20 4c 	call	#0x4c20	
    9cda:	08 4f       	mov	r15,	r8	
    9cdc:	13 3c       	jmp	$+40     	;abs 0x9d04
    9cde:	59 93       	cmp.b	#1,	r9	;r3 As==01
    9ce0:	0c 20       	jnz	$+26     	;abs 0x9cfa
    9ce2:	67 4a       	mov.b	@r10,	r7	
    9ce4:	3b 53       	add	#-1,	r11	;r3 As==11
    9ce6:	02 24       	jz	$+6      	;abs 0x9cec
    9ce8:	1a 53       	inc	r10		
    9cea:	15 3c       	jmp	$+44     	;abs 0x9d16
    9cec:	59 42 61 1c 	mov.b	&0x1c61,r9	
    9cf0:	1a 42 2e 20 	mov	&0x202e,r10	
    9cf4:	1b 42 be 22 	mov	&0x22be,r11	
    9cf8:	0e 3c       	jmp	$+30     	;abs 0x9d16
    9cfa:	69 93       	cmp.b	#2,	r9	;r3 As==10
    9cfc:	06 20       	jnz	$+14     	;abs 0x9d0a
    9cfe:	ca 4f 00 00 	mov.b	r15,	0(r10)	;0x0000(r10)
    9d02:	1a 53       	inc	r10		
    9d04:	3b 53       	add	#-1,	r11	;r3 As==11
    9d06:	07 20       	jnz	$+16     	;abs 0x9d16
    9d08:	0a 3c       	jmp	$+22     	;abs 0x9d1e
    9d0a:	69 92       	cmp.b	#4,	r9	;r2 As==10
    9d0c:	08 20       	jnz	$+18     	;abs 0x9d1e
    9d0e:	0b 93       	tst	r11		
    9d10:	06 24       	jz	$+14     	;abs 0x9d1e
    9d12:	77 4a       	mov.b	@r10+,	r7	
    9d14:	3b 53       	add	#-1,	r11	;r3 As==11
    9d16:	4f 47       	mov.b	r7,	r15	
    9d18:	b0 12 18 4d 	call	#0x4d18	
    9d1c:	d7 3f       	jmp	$-80     	;abs 0x9ccc
    9d1e:	b0 12 9e 51 	call	#0x519e	
    9d22:	4f 43       	clr.b	r15		
    9d24:	b0 12 52 7b 	call	#0x7b52	
    9d28:	5d 42 61 1c 	mov.b	&0x1c61,r13	
    9d2c:	c2 43 61 1c 	mov.b	#0,	&0x1c61	;r3 As==00
    9d30:	6d 83       	decd.b	r13		
    9d32:	7d 90 0a 00 	cmp.b	#10,	r13	;#0x000a
    9d36:	02 28       	jnc	$+6      	;abs 0x9d3c
    9d38:	80 00 0c bc 	bra	#0x0bc0c	
    9d3c:	4d 4d       	mov.b	r13,	r13	
    9d3e:	5d 02       	rlam	#1,	r13	
    9d40:	10 4d e0 ce 	br	-12576(r13)	;0xcee0(r13)
    9d44:	4d 43       	clr.b	r13		
    9d46:	0e 48       	mov	r8,	r14	
    9d48:	0f 43       	clr	r15		
    9d4a:	b0 12 9e 81 	call	#0x819e	
    9d4e:	80 00 0c bc 	bra	#0x0bc0c	
    9d52:	d2 43 84 1c 	mov.b	#1,	&0x1c84	;r3 As==01
    9d56:	5f 42 3b 21 	mov.b	&0x213b,r15	
    9d5a:	5f 06       	rlam	#2,	r15	
    9d5c:	9f 42 66 1f cc 1e 	mov	&0x1f66,7884(r15);0x1ecc(r15)
    9d62:	5e 4f ce 1e 	mov.b	7886(r15),r14	;0x1ece(r15)
    9d66:	7e f0 f8 ff 	and.b	#-8,	r14	;#0xfff8
    9d6a:	7e d0 03 00 	bis.b	#3,	r14	;#0x0003
    9d6e:	cf 4e ce 1e 	mov.b	r14,	7886(r15);0x1ece(r15)
    9d72:	b0 12 d4 86 	call	#0x86d4	
    9d76:	80 00 0c bc 	bra	#0x0bc0c	
    9d7a:	d2 43 84 1c 	mov.b	#1,	&0x1c84	;r3 As==01
    9d7e:	5f 42 3b 21 	mov.b	&0x213b,r15	
    9d82:	5f 06       	rlam	#2,	r15	
    9d84:	3f 50 ce 1e 	add	#7886,	r15	;#0x1ece
    9d88:	6d 4f       	mov.b	@r15,	r13	
    9d8a:	7d d0 03 00 	bis.b	#3,	r13	;#0x0003
    9d8e:	0e 4d       	mov	r13,	r14	
    9d90:	5e 0b       	rrum	#3,	r14	
    9d92:	5e 53       	inc.b	r14		
    9d94:	3e f0 03 00 	and	#3,	r14	;#0x0003
    9d98:	5e 0a       	rlam	#3,	r14	
    9d9a:	7d f0 e3 ff 	and.b	#-29,	r13	;#0xffe3
    9d9e:	4d de       	bis.b	r14,	r13	
    9da0:	cf 4d 00 00 	mov.b	r13,	0(r15)	;0x0000(r15)
    9da4:	b0 12 d4 86 	call	#0x86d4	
    9da8:	80 00 0c bc 	bra	#0x0bc0c	
    9dac:	d2 43 84 1c 	mov.b	#1,	&0x1c84	;r3 As==01
    9db0:	5f 42 39 21 	mov.b	&0x2139,r15	
    9db4:	5f 06       	rlam	#2,	r15	
    9db6:	df d3 ce 1e 	bis.b	#1,	7886(r15);r3 As==01, 0x1ece(r15)
    9dba:	3f 40 0a 00 	mov	#10,	r15	;#0x000a
    9dbe:	b0 12 46 52 	call	#0x5246	
    9dc2:	f2 40 06 00 61 1c 	mov.b	#6,	&0x1c61	;#0x0006
    9dc8:	b0 12 9a 59 	call	#0x599a	
    9dcc:	80 00 0c bc 	bra	#0x0bc0c	
    9dd0:	d2 43 84 1c 	mov.b	#1,	&0x1c84	;r3 As==01
    9dd4:	5f 42 3b 21 	mov.b	&0x213b,r15	
    9dd8:	5f 06       	rlam	#2,	r15	
    9dda:	9f 42 66 1f cc 1e 	mov	&0x1f66,7884(r15);0x1ecc(r15)
    9de0:	ff d0 06 00 ce 1e 	bis.b	#6,	7886(r15);#0x0006, 0x1ece(r15)
    9de6:	4d 43       	clr.b	r13		
    9de8:	0e 43       	clr	r14		
    9dea:	0f 43       	clr	r15		
    9dec:	b0 12 9e 81 	call	#0x819e	
    9df0:	80 00 0c bc 	bra	#0x0bc0c	
    9df4:	4d 43       	clr.b	r13		
    9df6:	0e 43       	clr	r14		
    9df8:	0f 43       	clr	r15		
    9dfa:	b0 12 9e 81 	call	#0x819e	
    9dfe:	80 00 0c bc 	bra	#0x0bc0c	
    9e02:	5f 42 3b 21 	mov.b	&0x213b,r15	
    9e06:	5f 06       	rlam	#2,	r15	
    9e08:	ff f0 e5 ff ce 1e 	and.b	#-27,	7886(r15);#0xffe5, 0x1ece(r15)
    9e0e:	4d 43       	clr.b	r13		
    9e10:	0e 43       	clr	r14		
    9e12:	0f 43       	clr	r15		
    9e14:	b0 12 9e 81 	call	#0x819e	
    9e18:	80 00 0c bc 	bra	#0x0bc0c	
    9e1c:	5f 43       	mov.b	#1,	r15	;r3 As==01
    9e1e:	b0 12 52 7b 	call	#0x7b52	
    9e22:	80 00 0c bc 	bra	#0x0bc0c	
    9e26:	0f 42       	mov	r2,	r15	
    9e28:	32 c2       	dint			
    9e2a:	03 43       	nop			
    9e2c:	d2 42 2e 1c 2f 1c 	mov.b	&0x1c2e,&0x1c2f	
    9e32:	f2 43 2e 1c 	mov.b	#-1,	&0x1c2e	;r3 As==11
    9e36:	e2 42 37 20 	mov.b	#4,	&0x2037	;r2 As==10
    9e3a:	3f f2       	and	#8,	r15	;r2 As==11
    9e3c:	01 24       	jz	$+4      	;abs 0x9e40
    9e3e:	32 d2       	eint			
    9e40:	c2 93 2f 1c 	tst.b	&0x1c2f	
    9e44:	02 20       	jnz	$+6      	;abs 0x9e4a
    9e46:	b0 12 02 5c 	call	#0x5c02	
    9e4a:	c2 93 2f 1c 	tst.b	&0x1c2f	
    9e4e:	02 24       	jz	$+6      	;abs 0x9e54
    9e50:	80 00 0c bc 	bra	#0x0bc0c	
    9e54:	b0 12 24 7a 	call	#0x7a24	
    9e58:	80 00 0c bc 	bra	#0x0bc0c	
    9e5c:	0f 42       	mov	r2,	r15	
    9e5e:	32 c2       	dint			
    9e60:	03 43       	nop			
    9e62:	d2 42 2a 1c 2b 1c 	mov.b	&0x1c2a,&0x1c2b	
    9e68:	f2 43 2a 1c 	mov.b	#-1,	&0x1c2a	;r3 As==11
    9e6c:	e2 42 4c 1f 	mov.b	#4,	&0x1f4c	;r2 As==10
    9e70:	3f f2       	and	#8,	r15	;r2 As==11
    9e72:	01 24       	jz	$+4      	;abs 0x9e76
    9e74:	32 d2       	eint			
    9e76:	c2 93 2b 1c 	tst.b	&0x1c2b	
    9e7a:	02 24       	jz	$+6      	;abs 0x9e80
    9e7c:	80 00 0c bc 	bra	#0x0bc0c	
    9e80:	b0 12 56 5a 	call	#0x5a56	
    9e84:	80 00 0c bc 	bra	#0x0bc0c	
    9e88:	c2 93 dc 1e 	tst.b	&0x1edc	
    9e8c:	28 20       	jnz	$+82     	;abs 0x9ede
    9e8e:	1e 42 38 24 	mov	&0x2438,r14	
    9e92:	1f 42 3a 24 	mov	&0x243a,r15	
    9e96:	0b 42       	mov	r2,	r11	
    9e98:	32 c2       	dint			
    9e9a:	03 43       	nop			
    9e9c:	1c 42 20 20 	mov	&0x2020,r12	
    9ea0:	1d 42 22 20 	mov	&0x2022,r13	
    9ea4:	1c 52 32 20 	add	&0x2032,r12	
    9ea8:	1d 62 34 20 	addc	&0x2034,r13	
    9eac:	3b f2       	and	#8,	r11	;r2 As==11
    9eae:	01 24       	jz	$+4      	;abs 0x9eb2
    9eb0:	32 d2       	eint			
    9eb2:	82 4e 38 24 	mov	r14,	&0x2438	
    9eb6:	82 4f 3a 24 	mov	r15,	&0x243a	
    9eba:	c2 43 dc 1e 	mov.b	#0,	&0x1edc	;r3 As==00
    9ebe:	0b 42       	mov	r2,	r11	
    9ec0:	32 c2       	dint			
    9ec2:	03 43       	nop			
    9ec4:	82 4c 32 20 	mov	r12,	&0x2032	
    9ec8:	82 4d 34 20 	mov	r13,	&0x2034	
    9ecc:	82 4e 20 20 	mov	r14,	&0x2020	
    9ed0:	82 4f 22 20 	mov	r15,	&0x2022	
    9ed4:	b0 12 d4 65 	call	#0x65d4	
    9ed8:	3b f2       	and	#8,	r11	;r2 As==11
    9eda:	01 24       	jz	$+4      	;abs 0x9ede
    9edc:	32 d2       	eint			
    9ede:	b0 12 a0 4e 	call	#0x4ea0	
    9ee2:	b0 12 b4 95 	call	#0x95b4	
    9ee6:	80 00 0c bc 	bra	#0x0bc0c	
    9eea:	b0 12 a0 4e 	call	#0x4ea0	
    9eee:	b2 f0 ef ff 42 03 	and	#-17,	&0x0342	;#0xffef
    9ef4:	47 43       	clr.b	r7		
    9ef6:	3c 43       	mov	#-1,	r12	;r3 As==11
    9ef8:	3d 40 ff 7f 	mov	#32767,	r13	;#0x7fff
    9efc:	08 43       	clr	r8		
    9efe:	09 48       	mov	r8,	r9	
    9f00:	59 02       	rlam	#1,	r9	
    9f02:	0b 48       	mov	r8,	r11	
    9f04:	5b 0a       	rlam	#3,	r11	
    9f06:	09 5b       	add	r11,	r9	
    9f08:	39 50 3e 21 	add	#8510,	r9	;#0x213e
    9f0c:	5b 49 08 00 	mov.b	8(r9),	r11	;0x0008(r9)
    9f10:	6b f3       	and.b	#2,	r11	;r3 As==10
    9f12:	15 24       	jz	$+44     	;abs 0x9f3e
    9f14:	0a 4e       	mov	r14,	r10	
    9f16:	0b 4f       	mov	r15,	r11	
    9f18:	2a 89       	sub	@r9,	r10	
    9f1a:	1b 79 02 00 	subc	2(r9),	r11	;0x0002(r9)
    9f1e:	15 49 04 00 	mov	4(r9),	r5	;0x0004(r9)
    9f22:	16 49 06 00 	mov	6(r9),	r6	;0x0006(r9)
    9f26:	05 8a       	sub	r10,	r5	
    9f28:	06 7b       	subc	r11,	r6	
    9f2a:	0a 45       	mov	r5,	r10	
    9f2c:	0b 46       	mov	r6,	r11	
    9f2e:	0b 9d       	cmp	r13,	r11	
    9f30:	03 38       	jl	$+8      	;abs 0x9f38
    9f32:	05 20       	jnz	$+12     	;abs 0x9f3e
    9f34:	05 9c       	cmp	r12,	r5	
    9f36:	03 2c       	jc	$+8      	;abs 0x9f3e
    9f38:	0c 4a       	mov	r10,	r12	
    9f3a:	0d 4b       	mov	r11,	r13	
    9f3c:	57 43       	mov.b	#1,	r7	;r3 As==01
    9f3e:	18 53       	inc	r8		
    9f40:	38 90 17 00 	cmp	#23,	r8	;#0x0017
    9f44:	dc 23       	jnz	$-70     	;abs 0x9efe
    9f46:	47 93       	tst.b	r7		
    9f48:	02 20       	jnz	$+6      	;abs 0x9f4e
    9f4a:	80 00 0c bc 	bra	#0x0bc0c	
    9f4e:	0d 93       	tst	r13		
    9f50:	04 38       	jl	$+10     	;abs 0x9f5a
    9f52:	1d 93       	cmp	#1,	r13	;r3 As==01
    9f54:	06 34       	jge	$+14     	;abs 0x9f62
    9f56:	1c 93       	cmp	#1,	r12	;r3 As==01
    9f58:	04 2c       	jc	$+10     	;abs 0x9f62
    9f5a:	b0 12 b4 95 	call	#0x95b4	
    9f5e:	80 00 0c bc 	bra	#0x0bc0c	
    9f62:	82 4c 38 24 	mov	r12,	&0x2438	
    9f66:	82 4d 3a 24 	mov	r13,	&0x243a	
    9f6a:	d2 43 dc 1e 	mov.b	#1,	&0x1edc	;r3 As==01
    9f6e:	0b 42       	mov	r2,	r11	
    9f70:	32 c2       	dint			
    9f72:	03 43       	nop			
    9f74:	82 4e 32 20 	mov	r14,	&0x2032	
    9f78:	82 4f 34 20 	mov	r15,	&0x2034	
    9f7c:	82 4c 20 20 	mov	r12,	&0x2020	
    9f80:	82 4d 22 20 	mov	r13,	&0x2022	
    9f84:	b0 12 d4 65 	call	#0x65d4	
    9f88:	3b f2       	and	#8,	r11	;r2 As==11
    9f8a:	80 00 c8 b4 	bra	#0x0b4c8	
    9f8e:	0f 42       	mov	r2,	r15	
    9f90:	3f f2       	and	#8,	r15	;r2 As==11
    9f92:	32 c2       	dint			
    9f94:	03 43       	nop			
    9f96:	d2 92 d5 22 61 1f 	cmp.b	&0x22d5,&0x1f61	
    9f9c:	07 20       	jnz	$+16     	;abs 0x9fac
    9f9e:	c2 93 8e 1c 	tst.b	&0x1c8e	
    9fa2:	04 20       	jnz	$+10     	;abs 0x9fac
    9fa4:	c2 43 6a 1f 	mov.b	#0,	&0x1f6a	;r3 As==00
    9fa8:	80 00 f8 b5 	bra	#0x0b5f8	
    9fac:	0f 93       	tst	r15		
    9fae:	01 24       	jz	$+4      	;abs 0x9fb2
    9fb0:	32 d2       	eint			
    9fb2:	5f 42 d5 22 	mov.b	&0x22d5,r15	
    9fb6:	5f 02       	rlam	#1,	r15	
    9fb8:	3c 40 20 00 	mov	#32,	r12	;#0x0020
    9fbc:	0d 43       	clr	r13		
    9fbe:	1e 4f 76 1e 	mov	7798(r15),r14	;0x1e76(r15)
    9fc2:	6f 43       	mov.b	#2,	r15	;r3 As==10
    9fc4:	b0 12 c8 5a 	call	#0x5ac8	
    9fc8:	0f 93       	tst	r15		
    9fca:	02 20       	jnz	$+6      	;abs 0x9fd0
    9fcc:	80 00 0c bc 	bra	#0x0bc0c	
    9fd0:	7f 40 06 00 	mov.b	#6,	r15	;#0x0006
    9fd4:	b0 12 f6 4e 	call	#0x4ef6	
    9fd8:	80 00 0c bc 	bra	#0x0bc0c	
    9fdc:	c2 93 74 1c 	tst.b	&0x1c74	
    9fe0:	02 24       	jz	$+6      	;abs 0x9fe6
    9fe2:	80 00 0c bc 	bra	#0x0bc0c	
    9fe6:	1f 42 44 1c 	mov	&0x1c44,r15	
    9fea:	c2 4f 33 23 	mov.b	r15,	&0x2333	
    9fee:	8f 10       	swpb	r15		
    9ff0:	c2 4f 32 23 	mov.b	r15,	&0x2332	
    9ff4:	d2 42 76 1c 34 23 	mov.b	&0x1c76,&0x2334	
    9ffa:	b0 12 a0 4e 	call	#0x4ea0	
    9ffe:	81 4e 20 00 	mov	r14,	32(r1)	;0x0020(r1)
    a002:	81 4f 22 00 	mov	r15,	34(r1)	;0x0022(r1)
    a006:	0d 4e       	mov	r14,	r13	
    a008:	0e 4f       	mov	r15,	r14	
    a00a:	3f 40 35 23 	mov	#9013,	r15	;#0x2335
    a00e:	b0 12 0e 4b 	call	#0x4b0e	
    a012:	0f 41       	mov	r1,	r15	
    a014:	3f 50 20 00 	add	#32,	r15	;#0x0020
    a018:	b0 12 2e 61 	call	#0x612e	
    a01c:	c2 4f 41 23 	mov.b	r15,	&0x2341	
    a020:	1d 41 20 00 	mov	32(r1),	r13	;0x0020(r1)
    a024:	1e 41 22 00 	mov	34(r1),	r14	;0x0022(r1)
    a028:	3f 40 39 23 	mov	#9017,	r15	;#0x2339
    a02c:	b0 12 0e 4b 	call	#0x4b0e	
    a030:	1a 42 8a 23 	mov	&0x238a,r10	
    a034:	1b 42 8c 23 	mov	&0x238c,r11	
    a038:	b0 12 7e 59 	call	#0x597e	
    a03c:	06 4a       	mov	r10,	r6	
    a03e:	07 4b       	mov	r11,	r7	
    a040:	06 8e       	sub	r14,	r6	
    a042:	07 7f       	subc	r15,	r7	
    a044:	0d 46       	mov	r6,	r13	
    a046:	0e 47       	mov	r7,	r14	
    a048:	7f 40 05 00 	mov.b	#5,	r15	;#0x0005
    a04c:	12 c3       	clrc			
    a04e:	0e 10       	rrc	r14		
    a050:	0d 10       	rrc	r13		
    a052:	7f 53       	add.b	#-1,	r15	;r3 As==11
    a054:	fb 23       	jnz	$-8      	;abs 0xa04c
    a056:	3f 40 3d 23 	mov	#9021,	r15	;#0x233d
    a05a:	b0 12 0e 4b 	call	#0x4b0e	
    a05e:	1f 42 48 24 	mov	&0x2448,r15	
    a062:	c2 4f 43 23 	mov.b	r15,	&0x2343	
    a066:	8f 10       	swpb	r15		
    a068:	c2 4f 42 23 	mov.b	r15,	&0x2342	
    a06c:	d2 42 6b 1c 46 23 	mov.b	&0x1c6b,&0x2346	
    a072:	d2 42 6a 1c 47 23 	mov.b	&0x1c6a,&0x2347	
    a078:	d2 42 f9 23 48 23 	mov.b	&0x23f9,&0x2348	
    a07e:	0f 42       	mov	r2,	r15	
    a080:	32 c2       	dint			
    a082:	03 43       	nop			
    a084:	1e 42 26 1c 	mov	&0x1c26,r14	
    a088:	c2 4e 45 23 	mov.b	r14,	&0x2345	
    a08c:	8e 10       	swpb	r14		
    a08e:	c2 4e 44 23 	mov.b	r14,	&0x2344	
    a092:	3f f2       	and	#8,	r15	;r2 As==11
    a094:	01 24       	jz	$+4      	;abs 0xa098
    a096:	32 d2       	eint			
    a098:	f2 43 2c 23 	mov.b	#-1,	&0x232c	;r3 As==11
    a09c:	f2 43 2b 23 	mov.b	#-1,	&0x232b	;r3 As==11
    a0a0:	f2 40 07 00 31 23 	mov.b	#7,	&0x2331	;#0x0007
    a0a6:	f2 40 17 00 2f 23 	mov.b	#23,	&0x232f	;#0x0017
    a0ac:	82 93 58 1c 	tst	&0x1c58	
    a0b0:	02 24       	jz	$+6      	;abs 0xa0b6
    a0b2:	80 00 0c bc 	bra	#0x0bc0c	
    a0b6:	0f 42       	mov	r2,	r15	
    a0b8:	32 c2       	dint			
    a0ba:	03 43       	nop			
    a0bc:	f2 40 05 00 56 1c 	mov.b	#5,	&0x1c56	;#0x0005
    a0c2:	82 43 54 1c 	mov	#0,	&0x1c54	;r3 As==00
    a0c6:	b2 40 26 23 5a 1c 	mov	#8998,	&0x1c5a	;#0x2326
    a0cc:	a2 43 58 1c 	mov	#2,	&0x1c58	;r3 As==10
    a0d0:	c2 43 52 1c 	mov.b	#0,	&0x1c52	;r3 As==00
    a0d4:	c2 43 53 1c 	mov.b	#0,	&0x1c53	;r3 As==00
    a0d8:	f2 40 23 00 57 1c 	mov.b	#35,	&0x1c57	;#0x0023
    a0de:	3f f2       	and	#8,	r15	;r2 As==11
    a0e0:	01 24       	jz	$+4      	;abs 0xa0e4
    a0e2:	32 d2       	eint			
    a0e4:	0f 42       	mov	r2,	r15	
    a0e6:	3f f2       	and	#8,	r15	;r2 As==11
    a0e8:	32 c2       	dint			
    a0ea:	03 43       	nop			
    a0ec:	f2 90 0a 00 ca 22 	cmp.b	#10,	&0x22ca	;#0x000a
    a0f2:	07 20       	jnz	$+16     	;abs 0xa102
    a0f4:	0f 93       	tst	r15		
    a0f6:	02 20       	jnz	$+6      	;abs 0xa0fc
    a0f8:	80 00 ee bb 	bra	#0x0bbee	
    a0fc:	32 d2       	eint			
    a0fe:	80 00 ee bb 	bra	#0x0bbee	
    a102:	0f 93       	tst	r15		
    a104:	01 24       	jz	$+4      	;abs 0xa108
    a106:	32 d2       	eint			
    a108:	0f 42       	mov	r2,	r15	
    a10a:	3f f2       	and	#8,	r15	;r2 As==11
    a10c:	32 c2       	dint			
    a10e:	03 43       	nop			
    a110:	c2 93 6e 20 	tst.b	&0x206e	
    a114:	06 20       	jnz	$+14     	;abs 0xa122
    a116:	d2 43 6e 20 	mov.b	#1,	&0x206e	;r3 As==01
    a11a:	c2 43 6f 20 	mov.b	#0,	&0x206f	;r3 As==00
    a11e:	5e 43       	mov.b	#1,	r14	;r3 As==01
    a120:	01 3c       	jmp	$+4      	;abs 0xa124
    a122:	4e 43       	clr.b	r14		
    a124:	0f 93       	tst	r15		
    a126:	01 24       	jz	$+4      	;abs 0xa12a
    a128:	32 d2       	eint			
    a12a:	4e 93       	tst.b	r14		
    a12c:	02 20       	jnz	$+6      	;abs 0xa132
    a12e:	80 00 ee bb 	bra	#0x0bbee	
    a132:	b0 12 98 53 	call	#0x5398	
    a136:	d2 43 74 1c 	mov.b	#1,	&0x1c74	;r3 As==01
    a13a:	80 00 0c bc 	bra	#0x0bc0c	
    a13e:	c2 93 73 1c 	tst.b	&0x1c73	
    a142:	02 24       	jz	$+6      	;abs 0xa148
    a144:	80 00 0c bc 	bra	#0x0bc0c	
    a148:	1f 42 44 1c 	mov	&0x1c44,r15	
    a14c:	c2 4f 33 23 	mov.b	r15,	&0x2333	
    a150:	8f 10       	swpb	r15		
    a152:	c2 4f 32 23 	mov.b	r15,	&0x2332	
    a156:	d2 42 76 1c 34 23 	mov.b	&0x1c76,&0x2334	
    a15c:	b0 12 a0 4e 	call	#0x4ea0	
    a160:	81 4e 20 00 	mov	r14,	32(r1)	;0x0020(r1)
    a164:	81 4f 22 00 	mov	r15,	34(r1)	;0x0022(r1)
    a168:	0d 4e       	mov	r14,	r13	
    a16a:	0e 4f       	mov	r15,	r14	
    a16c:	3f 40 35 23 	mov	#9013,	r15	;#0x2335
    a170:	b0 12 0e 4b 	call	#0x4b0e	
    a174:	0f 41       	mov	r1,	r15	
    a176:	3f 50 20 00 	add	#32,	r15	;#0x0020
    a17a:	b0 12 2e 61 	call	#0x612e	
    a17e:	c2 4f 41 23 	mov.b	r15,	&0x2341	
    a182:	1d 41 20 00 	mov	32(r1),	r13	;0x0020(r1)
    a186:	1e 41 22 00 	mov	34(r1),	r14	;0x0022(r1)
    a18a:	3f 40 39 23 	mov	#9017,	r15	;#0x2339
    a18e:	b0 12 0e 4b 	call	#0x4b0e	
    a192:	1a 42 8a 23 	mov	&0x238a,r10	
    a196:	1b 42 8c 23 	mov	&0x238c,r11	
    a19a:	b0 12 7e 59 	call	#0x597e	
    a19e:	07 4a       	mov	r10,	r7	
    a1a0:	08 4b       	mov	r11,	r8	
    a1a2:	07 8e       	sub	r14,	r7	
    a1a4:	08 7f       	subc	r15,	r8	
    a1a6:	0d 47       	mov	r7,	r13	
    a1a8:	0e 48       	mov	r8,	r14	
    a1aa:	7f 40 05 00 	mov.b	#5,	r15	;#0x0005
    a1ae:	12 c3       	clrc			
    a1b0:	0e 10       	rrc	r14		
    a1b2:	0d 10       	rrc	r13		
    a1b4:	7f 53       	add.b	#-1,	r15	;r3 As==11
    a1b6:	fb 23       	jnz	$-8      	;abs 0xa1ae
    a1b8:	3f 40 3d 23 	mov	#9021,	r15	;#0x233d
    a1bc:	b0 12 0e 4b 	call	#0x4b0e	
    a1c0:	1f 42 48 24 	mov	&0x2448,r15	
    a1c4:	c2 4f 43 23 	mov.b	r15,	&0x2343	
    a1c8:	8f 10       	swpb	r15		
    a1ca:	c2 4f 42 23 	mov.b	r15,	&0x2342	
    a1ce:	d2 42 6b 1c 46 23 	mov.b	&0x1c6b,&0x2346	
    a1d4:	d2 42 6a 1c 47 23 	mov.b	&0x1c6a,&0x2347	
    a1da:	d2 42 f9 23 48 23 	mov.b	&0x23f9,&0x2348	
    a1e0:	0f 42       	mov	r2,	r15	
    a1e2:	32 c2       	dint			
    a1e4:	03 43       	nop			
    a1e6:	1e 42 26 1c 	mov	&0x1c26,r14	
    a1ea:	c2 4e 45 23 	mov.b	r14,	&0x2345	
    a1ee:	8e 10       	swpb	r14		
    a1f0:	c2 4e 44 23 	mov.b	r14,	&0x2344	
    a1f4:	3f f2       	and	#8,	r15	;r2 As==11
    a1f6:	01 24       	jz	$+4      	;abs 0xa1fa
    a1f8:	32 d2       	eint			
    a1fa:	f2 40 03 00 64 23 	mov.b	#3,	&0x2364	;#0x0003
    a200:	c2 43 65 23 	mov.b	#0,	&0x2365	;r3 As==00
    a204:	11 12 24 00 	push	36(r1)		;0x0024(r1)
    a208:	11 12 24 00 	push	36(r1)		;0x0024(r1)
    a20c:	7c 40 17 00 	mov.b	#23,	r12	;#0x0017
    a210:	3d 40 26 23 	mov	#8998,	r13	;#0x2326
    a214:	0e 43       	clr	r14		
    a216:	7f 40 80 ff 	mov.b	#-128,	r15	;#0xff80
    a21a:	b0 12 f2 6a 	call	#0x6af2	
    a21e:	21 52       	add	#4,	r1	;r2 As==10
    a220:	0f 93       	tst	r15		
    a222:	02 24       	jz	$+6      	;abs 0xa228
    a224:	80 00 0c bc 	bra	#0x0bc0c	
    a228:	d2 43 73 1c 	mov.b	#1,	&0x1c73	;r3 As==01
    a22c:	80 00 0c bc 	bra	#0x0bc0c	
    a230:	92 93 44 1c 	cmp	#1,	&0x1c44	;r3 As==01
    a234:	02 20       	jnz	$+6      	;abs 0xa23a
    a236:	80 00 0c bc 	bra	#0x0bc0c	
    a23a:	b0 12 a0 4e 	call	#0x4ea0	
    a23e:	0a 4e       	mov	r14,	r10	
    a240:	0b 4f       	mov	r15,	r11	
    a242:	c2 93 72 1c 	tst.b	&0x1c72	
    a246:	02 24       	jz	$+6      	;abs 0xa24c
    a248:	80 00 0c bc 	bra	#0x0bc0c	
    a24c:	1f 42 44 1c 	mov	&0x1c44,r15	
    a250:	c2 4f 7f 1f 	mov.b	r15,	&0x1f7f	
    a254:	8f 10       	swpb	r15		
    a256:	c2 4f 7e 1f 	mov.b	r15,	&0x1f7e	
    a25a:	d2 42 76 1c 80 1f 	mov.b	&0x1c76,&0x1f80	
    a260:	18 42 8a 23 	mov	&0x238a,r8	
    a264:	19 42 8c 23 	mov	&0x238c,r9	
    a268:	b0 12 7e 59 	call	#0x597e	
    a26c:	05 48       	mov	r8,	r5	
    a26e:	06 49       	mov	r9,	r6	
    a270:	05 8e       	sub	r14,	r5	
    a272:	06 7f       	subc	r15,	r6	
    a274:	0d 45       	mov	r5,	r13	
    a276:	0e 46       	mov	r6,	r14	
    a278:	7f 40 05 00 	mov.b	#5,	r15	;#0x0005
    a27c:	12 c3       	clrc			
    a27e:	0e 10       	rrc	r14		
    a280:	0d 10       	rrc	r13		
    a282:	7f 53       	add.b	#-1,	r15	;r3 As==11
    a284:	fb 23       	jnz	$-8      	;abs 0xa27c
    a286:	3f 40 81 1f 	mov	#8065,	r15	;#0x1f81
    a28a:	b0 12 0e 4b 	call	#0x4b0e	
    a28e:	d2 42 6a 1c 85 1f 	mov.b	&0x1c6a,&0x1f85	
    a294:	3f 40 81 1f 	mov	#8065,	r15	;#0x1f81
    a298:	b0 12 3a 4b 	call	#0x4b3a	
    a29c:	0e 93       	tst	r14		
    a29e:	04 20       	jnz	$+10     	;abs 0xa2a8
    a2a0:	0f 93       	tst	r15		
    a2a2:	02 20       	jnz	$+6      	;abs 0xa2a8
    a2a4:	80 00 0c bc 	bra	#0x0bc0c	
    a2a8:	f2 40 03 00 b0 1f 	mov.b	#3,	&0x1fb0	;#0x0003
    a2ae:	c2 43 b1 1f 	mov.b	#0,	&0x1fb1	;r3 As==00
    a2b2:	1b 15       	pushm	#2,	r11	
    a2b4:	7c 42       	mov.b	#8,	r12	;r2 As==11
    a2b6:	3d 40 72 1f 	mov	#8050,	r13	;#0x1f72
    a2ba:	1e 42 c2 20 	mov	&0x20c2,r14	
    a2be:	7f 40 70 00 	mov.b	#112,	r15	;#0x0070
    a2c2:	b0 12 f2 6a 	call	#0x6af2	
    a2c6:	21 52       	add	#4,	r1	;r2 As==10
    a2c8:	0f 93       	tst	r15		
    a2ca:	04 20       	jnz	$+10     	;abs 0xa2d4
    a2cc:	d2 43 72 1c 	mov.b	#1,	&0x1c72	;r3 As==01
    a2d0:	80 00 0c bc 	bra	#0x0bc0c	
    a2d4:	c2 43 72 1c 	mov.b	#0,	&0x1c72	;r3 As==00
    a2d8:	7f 40 09 00 	mov.b	#9,	r15	;#0x0009
    a2dc:	b0 12 f6 4e 	call	#0x4ef6	
    a2e0:	80 00 0c bc 	bra	#0x0bc0c	
    a2e4:	5b 42 d4 22 	mov.b	&0x22d4,r11	
    a2e8:	b0 12 c2 53 	call	#0x53c2	
    a2ec:	c2 93 5d 1f 	tst.b	&0x1f5d	
    a2f0:	17 20       	jnz	$+48     	;abs 0xa320
    a2f2:	c2 93 9c 23 	tst.b	&0x239c	
    a2f6:	14 20       	jnz	$+42     	;abs 0xa320
    a2f8:	4f 4b       	mov.b	r11,	r15	
    a2fa:	7f f0 1f 00 	and.b	#31,	r15	;#0x001f
    a2fe:	c2 9f f9 23 	cmp.b	r15,	&0x23f9	
    a302:	02 20       	jnz	$+6      	;abs 0xa308
    a304:	80 00 f4 bb 	bra	#0x0bbf4	
    a308:	c2 4f f9 23 	mov.b	r15,	&0x23f9	
    a30c:	f2 40 07 00 9c 23 	mov.b	#7,	&0x239c	;#0x0007
    a312:	b0 12 f4 79 	call	#0x79f4	
    a316:	f2 40 07 00 5d 1f 	mov.b	#7,	&0x1f5d	;#0x0007
    a31c:	0b 43       	clr	r11		
    a31e:	02 3c       	jmp	$+6      	;abs 0xa324
    a320:	3b 40 05 00 	mov	#5,	r11	;#0x0005
    a324:	b0 12 22 7b 	call	#0x7b22	
    a328:	0b 93       	tst	r11		
    a32a:	03 24       	jz	$+8      	;abs 0xa332
    a32c:	3b 90 09 00 	cmp	#9,	r11	;#0x0009
    a330:	04 20       	jnz	$+10     	;abs 0xa33a
    a332:	b0 12 72 53 	call	#0x5372	
    a336:	80 00 0c bc 	bra	#0x0bc0c	
    a33a:	b0 12 60 53 	call	#0x5360	
    a33e:	7f 40 0a 00 	mov.b	#10,	r15	;#0x000a
    a342:	b0 12 f6 4e 	call	#0x4ef6	
    a346:	80 00 0c bc 	bra	#0x0bc0c	
    a34a:	c2 43 22 33 	mov.b	#0,	&0x3322	;r3 As==00
    a34e:	c2 43 1e 20 	mov.b	#0,	&0x201e	;r3 As==00
    a352:	c2 43 d1 20 	mov.b	#0,	&0x20d1	;r3 As==00
    a356:	b2 90 0d 00 74 1e 	cmp	#13,	&0x1e74	;#0x000d
    a35c:	02 28       	jnc	$+6      	;abs 0xa362
    a35e:	80 00 0c bc 	bra	#0x0bc0c	
    a362:	1f 42 74 1e 	mov	&0x1e74,r15	
    a366:	5f 02       	rlam	#1,	r15	
    a368:	10 4f f4 ce 	br	-12556(r15)	;0xcef4(r15)
    a36c:	e2 43 1e 20 	mov.b	#2,	&0x201e	;r3 As==10
    a370:	b0 12 62 4f 	call	#0x4f62	
    a374:	80 00 0c bc 	bra	#0x0bc0c	
    a378:	c2 43 6a 1c 	mov.b	#0,	&0x1c6a	;r3 As==00
    a37c:	c2 43 76 1c 	mov.b	#0,	&0x1c76	;r3 As==00
    a380:	c2 43 66 1c 	mov.b	#0,	&0x1c66	;r3 As==00
    a384:	c2 43 70 1c 	mov.b	#0,	&0x1c70	;r3 As==00
    a388:	d2 43 6f 1c 	mov.b	#1,	&0x1c6f	;r3 As==01
    a38c:	e2 c3 5a 21 	bic.b	#2,	&0x215a	;r3 As==10
    a390:	4f 43       	clr.b	r15		
    a392:	b0 12 42 5f 	call	#0x5f42	
    a396:	0c 43       	clr	r12		
    a398:	0d 43       	clr	r13		
    a39a:	0e 43       	clr	r14		
    a39c:	5f 43       	mov.b	#1,	r15	;r3 As==01
    a39e:	b0 12 c8 5a 	call	#0x5ac8	
    a3a2:	0f 93       	tst	r15		
    a3a4:	02 24       	jz	$+6      	;abs 0xa3aa
    a3a6:	80 00 0c bc 	bra	#0x0bc0c	
    a3aa:	d2 43 6b 1c 	mov.b	#1,	&0x1c6b	;r3 As==01
    a3ae:	80 00 0c bc 	bra	#0x0bc0c	
    a3b2:	c2 43 6f 1c 	mov.b	#0,	&0x1c6f	;r3 As==00
    a3b6:	b0 12 cc 67 	call	#0x67cc	
    a3ba:	80 00 0c bc 	bra	#0x0bc0c	
    a3be:	b0 12 c2 51 	call	#0x51c2	
    a3c2:	d2 43 6e 1c 	mov.b	#1,	&0x1c6e	;r3 As==01
    a3c6:	c2 43 6a 1c 	mov.b	#0,	&0x1c6a	;r3 As==00
    a3ca:	c2 43 76 1c 	mov.b	#0,	&0x1c76	;r3 As==00
    a3ce:	c2 43 70 1c 	mov.b	#0,	&0x1c70	;r3 As==00
    a3d2:	e2 c3 5a 21 	bic.b	#2,	&0x215a	;r3 As==10
    a3d6:	4f 43       	clr.b	r15		
    a3d8:	b0 12 42 5f 	call	#0x5f42	
    a3dc:	80 00 0c bc 	bra	#0x0bc0c	
    a3e0:	b0 12 d4 51 	call	#0x51d4	
    a3e4:	3c 40 d0 07 	mov	#2000,	r12	;#0x07d0
    a3e8:	0d 43       	clr	r13		
    a3ea:	b0 12 36 bd 	call	#0xbd36	
    a3ee:	0d 4e       	mov	r14,	r13	
    a3f0:	0e 4f       	mov	r15,	r14	
    a3f2:	7f 40 06 00 	mov.b	#6,	r15	;#0x0006
    a3f6:	b0 12 66 5e 	call	#0x5e66	
    a3fa:	80 00 0c bc 	bra	#0x0bc0c	
    a3fe:	c2 43 6a 1c 	mov.b	#0,	&0x1c6a	;r3 As==00
    a402:	c2 43 70 1c 	mov.b	#0,	&0x1c70	;r3 As==00
    a406:	0c 43       	clr	r12		
    a408:	0d 43       	clr	r13		
    a40a:	0e 43       	clr	r14		
    a40c:	7f 40 03 00 	mov.b	#3,	r15	;#0x0003
    a410:	b0 12 c8 5a 	call	#0x5ac8	
    a414:	80 00 0c bc 	bra	#0x0bc0c	
    a418:	b0 12 00 61 	call	#0x6100	
    a41c:	80 00 0c bc 	bra	#0x0bc0c	
    a420:	e2 c3 04 22 	bic.b	#2,	&0x2204	;r3 As==10
    a424:	e2 c3 0e 22 	bic.b	#2,	&0x220e	;r3 As==10
    a428:	e2 c3 18 22 	bic.b	#2,	&0x2218	;r3 As==10
    a42c:	80 00 0c bc 	bra	#0x0bc0c	
    a430:	d2 43 6e 1c 	mov.b	#1,	&0x1c6e	;r3 As==01
    a434:	c2 43 70 1c 	mov.b	#0,	&0x1c70	;r3 As==00
    a438:	80 00 0c bc 	bra	#0x0bc0c	
    a43c:	82 43 c2 20 	mov	#0,	&0x20c2	;r3 As==00
    a440:	b0 12 d4 51 	call	#0x51d4	
    a444:	3c 40 d0 07 	mov	#2000,	r12	;#0x07d0
    a448:	0d 43       	clr	r13		
    a44a:	b0 12 36 bd 	call	#0xbd36	
    a44e:	0d 4e       	mov	r14,	r13	
    a450:	0e 4f       	mov	r15,	r14	
    a452:	7f 40 09 00 	mov.b	#9,	r15	;#0x0009
    a456:	b0 12 66 5e 	call	#0x5e66	
    a45a:	80 00 0c bc 	bra	#0x0bc0c	
    a45e:	b0 12 a0 4e 	call	#0x4ea0	
    a462:	0a 4e       	mov	r14,	r10	
    a464:	0b 4f       	mov	r15,	r11	
    a466:	82 43 2a 20 	mov	#0,	&0x202a	;r3 As==00
    a46a:	82 43 2c 20 	mov	#0,	&0x202c	;r3 As==00
    a46e:	c2 93 71 1c 	tst.b	&0x1c71	
    a472:	02 24       	jz	$+6      	;abs 0xa478
    a474:	80 00 0c bc 	bra	#0x0bc0c	
    a478:	1f 42 44 1c 	mov	&0x1c44,r15	
    a47c:	c2 4f dc 32 	mov.b	r15,	&0x32dc	
    a480:	8f 10       	swpb	r15		
    a482:	c2 4f db 32 	mov.b	r15,	&0x32db	
    a486:	1f 42 74 1e 	mov	&0x1e74,r15	
    a48a:	c2 4f e0 32 	mov.b	r15,	&0x32e0	
    a48e:	8f 10       	swpb	r15		
    a490:	c2 4f df 32 	mov.b	r15,	&0x32df	
    a494:	1f 42 cc 22 	mov	&0x22cc,r15	
    a498:	c2 4f de 32 	mov.b	r15,	&0x32de	
    a49c:	8f 10       	swpb	r15		
    a49e:	c2 4f dd 32 	mov.b	r15,	&0x32dd	
    a4a2:	18 42 8a 23 	mov	&0x238a,r8	
    a4a6:	19 42 8c 23 	mov	&0x238c,r9	
    a4aa:	b0 12 7e 59 	call	#0x597e	
    a4ae:	06 48       	mov	r8,	r6	
    a4b0:	07 49       	mov	r9,	r7	
    a4b2:	06 8e       	sub	r14,	r6	
    a4b4:	07 7f       	subc	r15,	r7	
    a4b6:	0d 46       	mov	r6,	r13	
    a4b8:	0e 47       	mov	r7,	r14	
    a4ba:	7f 40 05 00 	mov.b	#5,	r15	;#0x0005
    a4be:	12 c3       	clrc			
    a4c0:	0e 10       	rrc	r14		
    a4c2:	0d 10       	rrc	r13		
    a4c4:	7f 53       	add.b	#-1,	r15	;r3 As==11
    a4c6:	fb 23       	jnz	$-8      	;abs 0xa4be
    a4c8:	3f 40 e1 32 	mov	#13025,	r15	;#0x32e1
    a4cc:	b0 12 0e 4b 	call	#0x4b0e	
    a4d0:	d2 42 f9 23 e5 32 	mov.b	&0x23f9,&0x32e5	
    a4d6:	d2 42 d1 20 e6 32 	mov.b	&0x20d1,&0x32e6	
    a4dc:	d2 42 1e 20 e7 32 	mov.b	&0x201e,&0x32e7	
    a4e2:	3f 40 e1 32 	mov	#13025,	r15	;#0x32e1
    a4e6:	b0 12 3a 4b 	call	#0x4b3a	
    a4ea:	82 4e 2a 20 	mov	r14,	&0x202a	
    a4ee:	82 4f 2c 20 	mov	r15,	&0x202c	
    a4f2:	3f 40 e1 32 	mov	#13025,	r15	;#0x32e1
    a4f6:	b0 12 3a 4b 	call	#0x4b3a	
    a4fa:	82 4e 58 1f 	mov	r14,	&0x1f58	
    a4fe:	82 4f 5a 1f 	mov	r15,	&0x1f5a	
    a502:	3f 40 e1 32 	mov	#13025,	r15	;#0x32e1
    a506:	b0 12 3a 4b 	call	#0x4b3a	
    a50a:	82 4e 9e 23 	mov	r14,	&0x239e	
    a50e:	82 4f a0 23 	mov	r15,	&0x23a0	
    a512:	3f 40 e1 32 	mov	#13025,	r15	;#0x32e1
    a516:	b0 12 3a 4b 	call	#0x4b3a	
    a51a:	82 4e 7c 23 	mov	r14,	&0x237c	
    a51e:	82 4f 7e 23 	mov	r15,	&0x237e	
    a522:	82 43 74 20 	mov	#0,	&0x2074	;r3 As==00
    a526:	82 43 76 20 	mov	#0,	&0x2076	;r3 As==00
    a52a:	f2 40 03 00 0d 33 	mov.b	#3,	&0x330d	;#0x0003
    a530:	c2 43 0e 33 	mov.b	#0,	&0x330e	;r3 As==00
    a534:	1b 15       	pushm	#2,	r11	
    a536:	7c 40 0d 00 	mov.b	#13,	r12	;#0x000d
    a53a:	3d 40 cf 32 	mov	#13007,	r13	;#0x32cf
    a53e:	1e 42 cc 22 	mov	&0x22cc,r14	
    a542:	7f 40 50 00 	mov.b	#80,	r15	;#0x0050
    a546:	b0 12 f2 6a 	call	#0x6af2	
    a54a:	21 52       	add	#4,	r1	;r2 As==10
    a54c:	0f 93       	tst	r15		
    a54e:	04 20       	jnz	$+10     	;abs 0xa558
    a550:	d2 43 71 1c 	mov.b	#1,	&0x1c71	;r3 As==01
    a554:	80 00 0c bc 	bra	#0x0bc0c	
    a558:	c2 43 71 1c 	mov.b	#0,	&0x1c71	;r3 As==00
    a55c:	b0 12 62 4f 	call	#0x4f62	
    a560:	80 00 0c bc 	bra	#0x0bc0c	
    a564:	b0 12 a0 4e 	call	#0x4ea0	
    a568:	0a 4e       	mov	r14,	r10	
    a56a:	0b 4f       	mov	r15,	r11	
    a56c:	b0 12 a0 50 	call	#0x50a0	
    a570:	5f 42 04 34 	mov.b	&0x3404,r15	
    a574:	5f 02       	rlam	#1,	r15	
    a576:	1d 4f de 1e 	mov	7902(r15),r13	;0x1ede(r15)
    a57a:	bd 40 03 00 3e 00 	mov	#3,	62(r13)	;#0x0003, 0x003e(r13)
    a580:	1b 15       	pushm	#2,	r11	
    a582:	7c 40 1f 00 	mov.b	#31,	r12	;#0x001f
    a586:	1e 42 cc 22 	mov	&0x22cc,r14	
    a58a:	7f 40 90 ff 	mov.b	#-112,	r15	;#0xff90
    a58e:	b0 12 f2 6a 	call	#0x6af2	
    a592:	21 52       	add	#4,	r1	;r2 As==10
    a594:	0f 93       	tst	r15		
    a596:	04 20       	jnz	$+10     	;abs 0xa5a0
    a598:	b0 12 60 53 	call	#0x5360	
    a59c:	80 00 0c bc 	bra	#0x0bc0c	
    a5a0:	b0 12 58 4f 	call	#0x4f58	
    a5a4:	80 00 0c bc 	bra	#0x0bc0c	
    a5a8:	c2 93 6e 1c 	tst.b	&0x1c6e	
    a5ac:	02 24       	jz	$+6      	;abs 0xa5b2
    a5ae:	80 00 0c bc 	bra	#0x0bc0c	
    a5b2:	3c 40 20 00 	mov	#32,	r12	;#0x0020
    a5b6:	0d 43       	clr	r13		
    a5b8:	3e 40 00 24 	mov	#9216,	r14	;#0x2400
    a5bc:	6f 42       	mov.b	#4,	r15	;r2 As==10
    a5be:	b0 12 c8 5a 	call	#0x5ac8	
    a5c2:	0f 93       	tst	r15		
    a5c4:	02 20       	jnz	$+6      	;abs 0xa5ca
    a5c6:	80 00 0c bc 	bra	#0x0bc0c	
    a5ca:	b0 12 4e 4f 	call	#0x4f4e	
    a5ce:	80 00 0c bc 	bra	#0x0bc0c	
    a5d2:	c2 43 6a 1c 	mov.b	#0,	&0x1c6a	;r3 As==00
    a5d6:	c2 43 6e 1c 	mov.b	#0,	&0x1c6e	;r3 As==00
    a5da:	c2 43 70 1c 	mov.b	#0,	&0x1c70	;r3 As==00
    a5de:	c2 43 76 1c 	mov.b	#0,	&0x1c76	;r3 As==00
    a5e2:	c2 43 66 1c 	mov.b	#0,	&0x1c66	;r3 As==00
    a5e6:	d2 43 6f 1c 	mov.b	#1,	&0x1c6f	;r3 As==01
    a5ea:	e2 c3 5a 21 	bic.b	#2,	&0x215a	;r3 As==10
    a5ee:	4f 43       	clr.b	r15		
    a5f0:	b0 12 42 5f 	call	#0x5f42	
    a5f4:	3d 40 e8 03 	mov	#1000,	r13	;#0x03e8
    a5f8:	0e 43       	clr	r14		
    a5fa:	7f 42       	mov.b	#8,	r15	;r2 As==11
    a5fc:	b0 12 66 5e 	call	#0x5e66	
    a600:	80 00 0c bc 	bra	#0x0bc0c	
    a604:	09 42       	mov	r2,	r9	
    a606:	32 c2       	dint			
    a608:	03 43       	nop			
    a60a:	1e 42 26 1c 	mov	&0x1c26,r14	
    a60e:	0f 43       	clr	r15		
    a610:	b0 12 4a c1 	call	#0xc14a	
    a614:	0c 43       	clr	r12		
    a616:	3d 40 90 40 	mov	#16528,	r13	;#0x4090
    a61a:	b0 12 8c bd 	call	#0xbd8c	
    a61e:	0c 43       	clr	r12		
    a620:	3d 40 80 39 	mov	#14720,	r13	;#0x3980
    a624:	b0 12 8c bd 	call	#0xbd8c	
    a628:	0a 4e       	mov	r14,	r10	
    a62a:	0b 4f       	mov	r15,	r11	
    a62c:	39 f2       	and	#8,	r9	;r2 As==11
    a62e:	01 24       	jz	$+4      	;abs 0xa632
    a630:	32 d2       	eint			
    a632:	3c 40 66 66 	mov	#26214,	r12	;#0x6666
    a636:	3d 40 66 40 	mov	#16486,	r13	;#0x4066
    a63a:	0e 4a       	mov	r10,	r14	
    a63c:	0f 4b       	mov	r11,	r15	
    a63e:	b0 12 cc bf 	call	#0xbfcc	
    a642:	0f 93       	tst	r15		
    a644:	08 24       	jz	$+18     	;abs 0xa656
    a646:	07 38       	jl	$+16     	;abs 0xa656
    a648:	b2 40 03 00 28 1c 	mov	#3,	&0x1c28	;#0x0003
    a64e:	e2 c3 8c 21 	bic.b	#2,	&0x218c	;r3 As==10
    a652:	80 00 0c bc 	bra	#0x0bc0c	
    a656:	3c 40 33 33 	mov	#13107,	r12	;#0x3333
    a65a:	3d 40 53 40 	mov	#16467,	r13	;#0x4053
    a65e:	0e 4a       	mov	r10,	r14	
    a660:	0f 4b       	mov	r11,	r15	
    a662:	b0 12 cc bf 	call	#0xbfcc	
    a666:	0f 93       	tst	r15		
    a668:	1c 24       	jz	$+58     	;abs 0xa6a2
    a66a:	1b 38       	jl	$+56     	;abs 0xa6a2
    a66c:	1e 42 28 1c 	mov	&0x1c28,r14	
    a670:	0f 43       	clr	r15		
    a672:	b0 12 4a c1 	call	#0xc14a	
    a676:	3c 40 33 33 	mov	#13107,	r12	;#0x3333
    a67a:	3d 40 53 40 	mov	#16467,	r13	;#0x4053
    a67e:	b0 12 7e bf 	call	#0xbf7e	
    a682:	0f 93       	tst	r15		
    a684:	02 20       	jnz	$+6      	;abs 0xa68a
    a686:	80 00 0c bc 	bra	#0x0bc0c	
    a68a:	b2 40 03 00 28 1c 	mov	#3,	&0x1c28	;#0x0003
    a690:	3d 40 88 13 	mov	#5000,	r13	;#0x1388
    a694:	0e 43       	clr	r14		
    a696:	7f 40 07 00 	mov.b	#7,	r15	;#0x0007
    a69a:	b0 12 be 60 	call	#0x60be	
    a69e:	80 00 0c bc 	bra	#0x0bc0c	
    a6a2:	0c 43       	clr	r12		
    a6a4:	3d 40 40 40 	mov	#16448,	r13	;#0x4040
    a6a8:	0e 4a       	mov	r10,	r14	
    a6aa:	0f 4b       	mov	r11,	r15	
    a6ac:	b0 12 cc bf 	call	#0xbfcc	
    a6b0:	0f 93       	tst	r15		
    a6b2:	1b 24       	jz	$+56     	;abs 0xa6ea
    a6b4:	1a 38       	jl	$+54     	;abs 0xa6ea
    a6b6:	1e 42 28 1c 	mov	&0x1c28,r14	
    a6ba:	0f 43       	clr	r15		
    a6bc:	b0 12 4a c1 	call	#0xc14a	
    a6c0:	0c 43       	clr	r12		
    a6c2:	3d 40 40 40 	mov	#16448,	r13	;#0x4040
    a6c6:	b0 12 7e bf 	call	#0xbf7e	
    a6ca:	0f 93       	tst	r15		
    a6cc:	02 20       	jnz	$+6      	;abs 0xa6d2
    a6ce:	80 00 0c bc 	bra	#0x0bc0c	
    a6d2:	b2 40 03 00 28 1c 	mov	#3,	&0x1c28	;#0x0003
    a6d8:	3d 40 e8 03 	mov	#1000,	r13	;#0x03e8
    a6dc:	0e 43       	clr	r14		
    a6de:	7f 40 07 00 	mov.b	#7,	r15	;#0x0007
    a6e2:	b0 12 be 60 	call	#0x60be	
    a6e6:	80 00 0c bc 	bra	#0x0bc0c	
    a6ea:	5f 42 92 1c 	mov.b	&0x1c92,r15	
    a6ee:	7f 90 17 00 	cmp.b	#23,	r15	;#0x0017
    a6f2:	03 24       	jz	$+8      	;abs 0xa6fa
    a6f4:	7f 90 0d 00 	cmp.b	#13,	r15	;#0x000d
    a6f8:	04 20       	jnz	$+10     	;abs 0xa702
    a6fa:	e2 c3 46 21 	bic.b	#2,	&0x2146	;r3 As==10
    a6fe:	b0 12 76 4f 	call	#0x4f76	
    a702:	5f 42 92 1c 	mov.b	&0x1c92,r15	
    a706:	4e 4f       	mov.b	r15,	r14	
    a708:	7e 50 f4 ff 	add.b	#-12,	r14	;#0xfff4
    a70c:	6e 93       	cmp.b	#2,	r14	;r3 As==10
    a70e:	03 28       	jnc	$+8      	;abs 0xa716
    a710:	7f 90 14 00 	cmp.b	#20,	r15	;#0x0014
    a714:	03 20       	jnz	$+8      	;abs 0xa71c
    a716:	d2 43 92 1c 	mov.b	#1,	&0x1c92	;r3 As==01
    a71a:	12 3c       	jmp	$+38     	;abs 0xa740
    a71c:	7f 90 15 00 	cmp.b	#21,	r15	;#0x0015
    a720:	03 20       	jnz	$+8      	;abs 0xa728
    a722:	e2 43 92 1c 	mov.b	#2,	&0x1c92	;r3 As==10
    a726:	0c 3c       	jmp	$+26     	;abs 0xa740
    a728:	7f 90 0a 00 	cmp.b	#10,	r15	;#0x000a
    a72c:	06 24       	jz	$+14     	;abs 0xa73a
    a72e:	7f 90 16 00 	cmp.b	#22,	r15	;#0x0016
    a732:	03 24       	jz	$+8      	;abs 0xa73a
    a734:	7f 90 17 00 	cmp.b	#23,	r15	;#0x0017
    a738:	03 20       	jnz	$+8      	;abs 0xa740
    a73a:	f2 40 03 00 92 1c 	mov.b	#3,	&0x1c92	;#0x0003
    a740:	0f 42       	mov	r2,	r15	
    a742:	3f f2       	and	#8,	r15	;r2 As==11
    a744:	32 c2       	dint			
    a746:	03 43       	nop			
    a748:	c2 93 60 1f 	tst.b	&0x1f60	
    a74c:	02 20       	jnz	$+6      	;abs 0xa752
    a74e:	e2 42 60 1f 	mov.b	#4,	&0x1f60	;r2 As==10
    a752:	0f 93       	tst	r15		
    a754:	01 24       	jz	$+4      	;abs 0xa758
    a756:	32 d2       	eint			
    a758:	0f 42       	mov	r2,	r15	
    a75a:	3f f2       	and	#8,	r15	;r2 As==11
    a75c:	32 c2       	dint			
    a75e:	03 43       	nop			
    a760:	c2 93 ca 22 	tst.b	&0x22ca	
    a764:	03 20       	jnz	$+8      	;abs 0xa76c
    a766:	f2 40 0a 00 ca 22 	mov.b	#10,	&0x22ca	;#0x000a
    a76c:	0f 93       	tst	r15		
    a76e:	01 24       	jz	$+4      	;abs 0xa772
    a770:	32 d2       	eint			
    a772:	b0 12 b8 56 	call	#0x56b8	
    a776:	e2 c3 50 21 	bic.b	#2,	&0x2150	;r3 As==10
    a77a:	e2 c3 5a 21 	bic.b	#2,	&0x215a	;r3 As==10
    a77e:	e2 c3 64 21 	bic.b	#2,	&0x2164	;r3 As==10
    a782:	e2 c3 6e 21 	bic.b	#2,	&0x216e	;r3 As==10
    a786:	e2 c3 78 21 	bic.b	#2,	&0x2178	;r3 As==10
    a78a:	e2 c3 82 21 	bic.b	#2,	&0x2182	;r3 As==10
    a78e:	e2 c3 8c 21 	bic.b	#2,	&0x218c	;r3 As==10
    a792:	e2 c3 a0 21 	bic.b	#2,	&0x21a0	;r3 As==10
    a796:	80 00 0c bc 	bra	#0x0bc0c	
    a79a:	0f 42       	mov	r2,	r15	
    a79c:	32 c2       	dint			
    a79e:	03 43       	nop			
    a7a0:	d2 42 43 1f 20 1c 	mov.b	&0x1f43,&0x1c20	
    a7a6:	e2 43 62 1c 	mov.b	#2,	&0x1c62	;r3 As==10
    a7aa:	3f f2       	and	#8,	r15	;r2 As==11
    a7ac:	01 24       	jz	$+4      	;abs 0xa7b0
    a7ae:	32 d2       	eint			
    a7b0:	c2 93 20 1c 	tst.b	&0x1c20	
    a7b4:	02 24       	jz	$+6      	;abs 0xa7ba
    a7b6:	80 00 0c bc 	bra	#0x0bc0c	
    a7ba:	1f 42 46 1f 	mov	&0x1f46,r15	
    a7be:	ff 40 3f 00 0a 00 	mov.b	#63,	10(r15)	;#0x003f, 0x000a(r15)
    a7c4:	5e 42 80 1c 	mov.b	&0x1c80,r14	
    a7c8:	5e 53       	inc.b	r14		
    a7ca:	c2 4e 80 1c 	mov.b	r14,	&0x1c80	
    a7ce:	cf 4e 03 00 	mov.b	r14,	3(r15)	;0x0003(r15)
    a7d2:	b0 12 f2 5a 	call	#0x5af2	
    a7d6:	0b 4f       	mov	r15,	r11	
    a7d8:	0f 93       	tst	r15		
    a7da:	02 20       	jnz	$+6      	;abs 0xa7e0
    a7dc:	80 00 0c bc 	bra	#0x0bc0c	
    a7e0:	b0 12 a0 5b 	call	#0x5ba0	
    a7e4:	0e 4b       	mov	r11,	r14	
    a7e6:	1f 42 46 1f 	mov	&0x1f46,r15	
    a7ea:	b0 12 c6 6a 	call	#0x6ac6	
    a7ee:	80 00 0c bc 	bra	#0x0bc0c	
    a7f2:	5f 42 92 1c 	mov.b	&0x1c92,r15	
    a7f6:	7f 90 0a 00 	cmp.b	#10,	r15	;#0x000a
    a7fa:	03 24       	jz	$+8      	;abs 0xa802
    a7fc:	7f 90 1e 00 	cmp.b	#30,	r15	;#0x001e
    a800:	2d 20       	jnz	$+92     	;abs 0xa85c
    a802:	b0 12 c2 53 	call	#0x53c2	
    a806:	c2 93 5d 1f 	tst.b	&0x1f5d	
    a80a:	1a 20       	jnz	$+54     	;abs 0xa840
    a80c:	c2 93 9c 23 	tst.b	&0x239c	
    a810:	17 20       	jnz	$+48     	;abs 0xa840
    a812:	5f 42 f2 36 	mov.b	&0x36f2,r15	
    a816:	5f 93       	cmp.b	#1,	r15	;r3 As==01
    a818:	04 20       	jnz	$+10     	;abs 0xa822
    a81a:	c2 93 bc 22 	tst.b	&0x22bc	
    a81e:	10 20       	jnz	$+34     	;abs 0xa840
    a820:	05 3c       	jmp	$+12     	;abs 0xa82c
    a822:	7f 90 05 00 	cmp.b	#5,	r15	;#0x0005
    a826:	02 20       	jnz	$+6      	;abs 0xa82c
    a828:	80 00 fc bb 	bra	#0x0bbfc	
    a82c:	f2 40 03 00 9c 23 	mov.b	#3,	&0x239c	;#0x0003
    a832:	b0 12 f4 79 	call	#0x79f4	
    a836:	f2 40 05 00 5d 1f 	mov.b	#5,	&0x1f5d	;#0x0005
    a83c:	0b 43       	clr	r11		
    a83e:	02 3c       	jmp	$+6      	;abs 0xa844
    a840:	3b 40 05 00 	mov	#5,	r11	;#0x0005
    a844:	b0 12 22 7b 	call	#0x7b22	
    a848:	0b 93       	tst	r11		
    a84a:	04 20       	jnz	$+10     	;abs 0xa854
    a84c:	d2 53 92 1c 	inc.b	&0x1c92	
    a850:	80 00 0c bc 	bra	#0x0bc0c	
    a854:	b0 12 76 4f 	call	#0x4f76	
    a858:	80 00 0c bc 	bra	#0x0bc0c	
    a85c:	7f 90 14 00 	cmp.b	#20,	r15	;#0x0014
    a860:	02 24       	jz	$+6      	;abs 0xa866
    a862:	5f 93       	cmp.b	#1,	r15	;r3 As==01
    a864:	20 20       	jnz	$+66     	;abs 0xa8a6
    a866:	b0 12 c2 53 	call	#0x53c2	
    a86a:	c2 93 5d 1f 	tst.b	&0x1f5d	
    a86e:	11 20       	jnz	$+36     	;abs 0xa892
    a870:	c2 93 9c 23 	tst.b	&0x239c	
    a874:	0e 20       	jnz	$+30     	;abs 0xa892
    a876:	d2 93 f2 36 	cmp.b	#1,	&0x36f2	;r3 As==01
    a87a:	02 20       	jnz	$+6      	;abs 0xa880
    a87c:	80 00 04 bc 	bra	#0x0bc04	
    a880:	d2 43 9c 23 	mov.b	#1,	&0x239c	;r3 As==01
    a884:	b0 12 f4 79 	call	#0x79f4	
    a888:	f2 40 06 00 5d 1f 	mov.b	#6,	&0x1f5d	;#0x0006
    a88e:	0b 43       	clr	r11		
    a890:	02 3c       	jmp	$+6      	;abs 0xa896
    a892:	3b 40 05 00 	mov	#5,	r11	;#0x0005
    a896:	b0 12 22 7b 	call	#0x7b22	
    a89a:	0b 93       	tst	r11		
    a89c:	db 23       	jnz	$-72     	;abs 0xa854
    a89e:	d2 53 92 1c 	inc.b	&0x1c92	
    a8a2:	80 00 0c bc 	bra	#0x0bc0c	
    a8a6:	6f 92       	cmp.b	#4,	r15	;r2 As==10
    a8a8:	1b 20       	jnz	$+56     	;abs 0xa8e0
    a8aa:	f2 40 0a 00 92 1c 	mov.b	#10,	&0x1c92	;#0x000a
    a8b0:	b0 12 76 4f 	call	#0x4f76	
    a8b4:	b2 40 00 02 1e 1c 	mov	#512,	&0x1c1e	;#0x0200
    a8ba:	5f 42 92 1c 	mov.b	&0x1c92,r15	
    a8be:	7f 90 0d 00 	cmp.b	#13,	r15	;#0x000d
    a8c2:	03 24       	jz	$+8      	;abs 0xa8ca
    a8c4:	7f 90 17 00 	cmp.b	#23,	r15	;#0x0017
    a8c8:	07 20       	jnz	$+16     	;abs 0xa8d8
    a8ca:	e2 c3 46 21 	bic.b	#2,	&0x2146	;r3 As==10
    a8ce:	7f 53       	add.b	#-1,	r15	;r3 As==11
    a8d0:	c2 4f 92 1c 	mov.b	r15,	&0x1c92	
    a8d4:	b0 12 76 4f 	call	#0x4f76	
    a8d8:	c2 43 12 34 	mov.b	#0,	&0x3412	;r3 As==00
    a8dc:	80 00 0c bc 	bra	#0x0bc0c	
    a8e0:	7f 90 03 00 	cmp.b	#3,	r15	;#0x0003
    a8e4:	04 20       	jnz	$+10     	;abs 0xa8ee
    a8e6:	c2 43 92 1c 	mov.b	#0,	&0x1c92	;r3 As==00
    a8ea:	80 00 0c bc 	bra	#0x0bc0c	
    a8ee:	7f 90 0c 00 	cmp.b	#12,	r15	;#0x000c
    a8f2:	10 20       	jnz	$+34     	;abs 0xa914
    a8f4:	f2 40 0d 00 92 1c 	mov.b	#13,	&0x1c92	;#0x000d
    a8fa:	82 93 1e 1c 	tst	&0x1c1e	
    a8fe:	02 20       	jnz	$+6      	;abs 0xa904
    a900:	80 00 0c bc 	bra	#0x0bc0c	
    a904:	3d 40 05 00 	mov	#5,	r13	;#0x0005
    a908:	0e 43       	clr	r14		
    a90a:	4f 43       	clr.b	r15		
    a90c:	b0 12 66 5e 	call	#0x5e66	
    a910:	80 00 0c bc 	bra	#0x0bc0c	
    a914:	7f 90 16 00 	cmp.b	#22,	r15	;#0x0016
    a918:	14 20       	jnz	$+42     	;abs 0xa942
    a91a:	1d 42 1e 1c 	mov	&0x1c1e,r13	
    a91e:	0d 93       	tst	r13		
    a920:	09 24       	jz	$+20     	;abs 0xa934
    a922:	f2 40 17 00 92 1c 	mov.b	#23,	&0x1c92	;#0x0017
    a928:	0e 43       	clr	r14		
    a92a:	4f 43       	clr.b	r15		
    a92c:	b0 12 66 5e 	call	#0x5e66	
    a930:	80 00 0c bc 	bra	#0x0bc0c	
    a934:	f2 40 0a 00 92 1c 	mov.b	#10,	&0x1c92	;#0x000a
    a93a:	b0 12 76 4f 	call	#0x4f76	
    a93e:	80 00 0c bc 	bra	#0x0bc0c	
    a942:	7f 90 20 00 	cmp.b	#32,	r15	;#0x0020
    a946:	13 20       	jnz	$+40     	;abs 0xa96e
    a948:	1f 42 10 34 	mov	&0x3410,r15	
    a94c:	1d 4f 3e 00 	mov	62(r15),r13	;0x003e(r15)
    a950:	0d 93       	tst	r13		
    a952:	06 24       	jz	$+14     	;abs 0xa960
    a954:	3d 50 0a 00 	add	#10,	r13	;#0x000a
    a958:	0e 43       	clr	r14		
    a95a:	4f 43       	clr.b	r15		
    a95c:	b0 12 66 5e 	call	#0x5e66	
    a960:	f2 40 21 00 92 1c 	mov.b	#33,	&0x1c92	;#0x0021
    a966:	b0 12 76 4f 	call	#0x4f76	
    a96a:	80 00 0c bc 	bra	#0x0bc0c	
    a96e:	7f 90 21 00 	cmp.b	#33,	r15	;#0x0021
    a972:	25 20       	jnz	$+76     	;abs 0xa9be
    a974:	1b 42 10 34 	mov	&0x3410,r11	
    a978:	b0 12 c2 53 	call	#0x53c2	
    a97c:	c2 93 5d 1f 	tst.b	&0x1f5d	
    a980:	0a 20       	jnz	$+22     	;abs 0xa996
    a982:	82 4b ce 22 	mov	r11,	&0x22ce	
    a986:	d2 43 5d 1f 	mov.b	#1,	&0x1f5d	;r3 As==01
    a98a:	c2 43 c7 22 	mov.b	#0,	&0x22c7	;r3 As==00
    a98e:	b0 12 6c 4f 	call	#0x4f6c	
    a992:	0b 43       	clr	r11		
    a994:	02 3c       	jmp	$+6      	;abs 0xa99a
    a996:	3b 40 05 00 	mov	#5,	r11	;#0x0005
    a99a:	b0 12 22 7b 	call	#0x7b22	
    a99e:	82 4b 82 1c 	mov	r11,	&0x1c82	
    a9a2:	0b 93       	tst	r11		
    a9a4:	05 20       	jnz	$+12     	;abs 0xa9b0
    a9a6:	f2 40 22 00 92 1c 	mov.b	#34,	&0x1c92	;#0x0022
    a9ac:	80 00 0c bc 	bra	#0x0bc0c	
    a9b0:	f2 40 24 00 92 1c 	mov.b	#36,	&0x1c92	;#0x0024
    a9b6:	b0 12 76 4f 	call	#0x4f76	
    a9ba:	80 00 0c bc 	bra	#0x0bc0c	
    a9be:	7f 90 24 00 	cmp.b	#36,	r15	;#0x0024
    a9c2:	02 24       	jz	$+6      	;abs 0xa9c8
    a9c4:	80 00 0c bc 	bra	#0x0bc0c	
    a9c8:	f2 40 0d 00 92 1c 	mov.b	#13,	&0x1c92	;#0x000d
    a9ce:	82 93 1e 1c 	tst	&0x1c1e	
    a9d2:	06 24       	jz	$+14     	;abs 0xa9e0
    a9d4:	1d 42 1a 1c 	mov	&0x1c1a,r13	
    a9d8:	0e 43       	clr	r14		
    a9da:	4f 43       	clr.b	r15		
    a9dc:	b0 12 66 5e 	call	#0x5e66	
    a9e0:	1a 42 82 1c 	mov	&0x1c82,r10	
    a9e4:	1b 42 10 34 	mov	&0x3410,r11	
    a9e8:	fb 90 3f 00 0a 00 	cmp.b	#63,	10(r11)	;#0x003f, 0x000a(r11)
    a9ee:	02 24       	jz	$+6      	;abs 0xa9f4
    a9f0:	80 00 0c bc 	bra	#0x0bc0c	
    a9f4:	b0 12 a0 5b 	call	#0x5ba0	
    a9f8:	0e 4a       	mov	r10,	r14	
    a9fa:	0f 4b       	mov	r11,	r15	
    a9fc:	b0 12 c6 6a 	call	#0x6ac6	
    aa00:	80 00 0c bc 	bra	#0x0bc0c	
    aa04:	5f 42 5d 1f 	mov.b	&0x1f5d,r15	
    aa08:	c2 43 5d 1f 	mov.b	#0,	&0x1f5d	;r3 As==00
    aa0c:	7f 90 05 00 	cmp.b	#5,	r15	;#0x0005
    aa10:	06 20       	jnz	$+14     	;abs 0xaa1e
    aa12:	d2 53 92 1c 	inc.b	&0x1c92	
    aa16:	b0 12 76 4f 	call	#0x4f76	
    aa1a:	80 00 0c bc 	bra	#0x0bc0c	
    aa1e:	7f 90 06 00 	cmp.b	#6,	r15	;#0x0006
    aa22:	06 20       	jnz	$+14     	;abs 0xaa30
    aa24:	d2 53 92 1c 	inc.b	&0x1c92	
    aa28:	b0 12 76 4f 	call	#0x4f76	
    aa2c:	80 00 0c bc 	bra	#0x0bc0c	
    aa30:	7f 90 07 00 	cmp.b	#7,	r15	;#0x0007
    aa34:	04 20       	jnz	$+10     	;abs 0xaa3e
    aa36:	b0 12 a4 4f 	call	#0x4fa4	
    aa3a:	80 00 0c bc 	bra	#0x0bc0c	
    aa3e:	c2 4f 5d 1f 	mov.b	r15,	&0x1f5d	
    aa42:	80 00 0c bc 	bra	#0x0bc0c	
    aa46:	b0 12 c2 53 	call	#0x53c2	
    aa4a:	d2 93 5d 1f 	cmp.b	#1,	&0x1f5d	;r3 As==01
    aa4e:	2a 20       	jnz	$+86     	;abs 0xaaa4
    aa50:	5f 42 c7 22 	mov.b	&0x22c7,r15	
    aa54:	5f 53       	inc.b	r15		
    aa56:	c2 4f c7 22 	mov.b	r15,	&0x22c7	
    aa5a:	7f 90 06 00 	cmp.b	#6,	r15	;#0x0006
    aa5e:	22 2c       	jc	$+70     	;abs 0xaaa4
    aa60:	1f 42 ce 22 	mov	&0x22ce,r15	
    aa64:	c2 93 5e 1f 	tst.b	&0x1f5e	
    aa68:	0f 20       	jnz	$+32     	;abs 0xaa88
    aa6a:	c2 93 bc 22 	tst.b	&0x22bc	
    aa6e:	0c 20       	jnz	$+26     	;abs 0xaa88
    aa70:	82 4f 54 1f 	mov	r15,	&0x1f54	
    aa74:	d2 43 5e 1f 	mov.b	#1,	&0x1f5e	;r3 As==01
    aa78:	3f 40 40 06 	mov	#1600,	r15	;#0x0640
    aa7c:	b0 12 ee 52 	call	#0x52ee	
    aa80:	b0 12 56 64 	call	#0x6456	
    aa84:	0f 43       	clr	r15		
    aa86:	02 3c       	jmp	$+6      	;abs 0xaa8c
    aa88:	3f 40 05 00 	mov	#5,	r15	;#0x0005
    aa8c:	82 4f 20 33 	mov	r15,	&0x3320	
    aa90:	0f 93       	tst	r15		
    aa92:	04 20       	jnz	$+10     	;abs 0xaa9c
    aa94:	f2 40 03 00 5d 1f 	mov.b	#3,	&0x1f5d	;#0x0003
    aa9a:	02 3c       	jmp	$+6      	;abs 0xaaa0
    aa9c:	e2 43 5d 1f 	mov.b	#2,	&0x1f5d	;r3 As==10
    aaa0:	4b 43       	clr.b	r11		
    aaa2:	03 3c       	jmp	$+8      	;abs 0xaaaa
    aaa4:	c2 43 5d 1f 	mov.b	#0,	&0x1f5d	;r3 As==00
    aaa8:	5b 43       	mov.b	#1,	r11	;r3 As==01
    aaaa:	b0 12 22 7b 	call	#0x7b22	
    aaae:	4b 93       	tst.b	r11		
    aab0:	02 20       	jnz	$+6      	;abs 0xaab6
    aab2:	80 00 0c bc 	bra	#0x0bc0c	
    aab6:	1f 42 20 33 	mov	&0x3320,r15	
    aaba:	1e 42 ce 22 	mov	&0x22ce,r14	
    aabe:	82 4f 82 1c 	mov	r15,	&0x1c82	
    aac2:	0f 93       	tst	r15		
    aac4:	13 20       	jnz	$+40     	;abs 0xaaec
    aac6:	8e 93 3e 00 	tst	62(r14)	;0x003e(r14)
    aaca:	10 24       	jz	$+34     	;abs 0xaaec
    aacc:	f2 90 23 00 92 1c 	cmp.b	#35,	&0x1c92	;#0x0023
    aad2:	0c 24       	jz	$+26     	;abs 0xaaec
    aad4:	5f 4e 02 00 	mov.b	2(r14),	r15	;0x0002(r14)
    aad8:	8f 10       	swpb	r15		
    aada:	57 4e 01 00 	mov.b	1(r14),	r7	;0x0001(r14)
    aade:	0f d7       	bis	r7,	r15	
    aae0:	3f f0 20 00 	and	#32,	r15	;#0x0020
    aae4:	0a 24       	jz	$+22     	;abs 0xaafa
    aae6:	de b3 44 00 	bit.b	#1,	68(r14)	;r3 As==01, 0x0044(r14)
    aaea:	07 24       	jz	$+16     	;abs 0xaafa
    aaec:	e2 c3 46 21 	bic.b	#2,	&0x2146	;r3 As==10
    aaf0:	f2 40 24 00 92 1c 	mov.b	#36,	&0x1c92	;#0x0024
    aaf6:	80 00 54 a8 	bra	#0x0a854	
    aafa:	f2 40 21 00 92 1c 	mov.b	#33,	&0x1c92	;#0x0021
    ab00:	80 00 54 a8 	bra	#0x0a854	
    ab04:	0f 42       	mov	r2,	r15	
    ab06:	3f f2       	and	#8,	r15	;r2 As==11
    ab08:	32 c2       	dint			
    ab0a:	03 43       	nop			
    ab0c:	c2 93 a2 23 	tst.b	&0x23a2	
    ab10:	02 20       	jnz	$+6      	;abs 0xab16
    ab12:	80 00 f8 b5 	bra	#0x0b5f8	
    ab16:	5e 42 51 24 	mov.b	&0x2451,r14	
    ab1a:	5e 02       	rlam	#1,	r14	
    ab1c:	17 4e 88 1c 	mov	7304(r14),r7	;0x1c88(r14)
    ab20:	0f 93       	tst	r15		
    ab22:	01 24       	jz	$+4      	;abs 0xab26
    ab24:	32 d2       	eint			
    ab26:	f2 90 14 00 92 1c 	cmp.b	#20,	&0x1c92	;#0x0014
    ab2c:	03 20       	jnz	$+8      	;abs 0xab34
    ab2e:	f2 40 0d 00 92 1c 	mov.b	#13,	&0x1c92	;#0x000d
    ab34:	f2 90 0d 00 92 1c 	cmp.b	#13,	&0x1c92	;#0x000d
    ab3a:	09 20       	jnz	$+20     	;abs 0xab4e
    ab3c:	82 93 1e 1c 	tst	&0x1c1e	
    ab40:	06 24       	jz	$+14     	;abs 0xab4e
    ab42:	1d 42 1a 1c 	mov	&0x1c1a,r13	
    ab46:	0e 43       	clr	r14		
    ab48:	4f 43       	clr.b	r15		
    ab4a:	b0 12 66 5e 	call	#0x5e66	
    ab4e:	55 47 07 00 	mov.b	7(r7),	r5	;0x0007(r7)
    ab52:	5f 47 06 00 	mov.b	6(r7),	r15	;0x0006(r7)
    ab56:	f7 90 3f 00 0a 00 	cmp.b	#63,	10(r7)	;#0x003f, 0x000a(r7)
    ab5c:	02 24       	jz	$+6      	;abs 0xab62
    ab5e:	80 00 52 b0 	bra	#0x0b052	
    ab62:	54 47 0b 00 	mov.b	11(r7),	r4	;0x000b(r7)
    ab66:	66 47       	mov.b	@r7,	r6	
    ab68:	85 10       	swpb	r5		
    ab6a:	05 df       	bis	r15,	r5	
    ab6c:	b0 12 a2 52 	call	#0x52a2	
    ab70:	05 9f       	cmp	r15,	r5	
    ab72:	05 24       	jz	$+12     	;abs 0xab7e
    ab74:	1f 43       	mov	#1,	r15	;r3 As==01
    ab76:	35 93       	cmp	#-1,	r5	;r3 As==11
    ab78:	03 24       	jz	$+8      	;abs 0xab80
    ab7a:	0f 43       	clr	r15		
    ab7c:	01 3c       	jmp	$+4      	;abs 0xab80
    ab7e:	1f 43       	mov	#1,	r15	;r3 As==01
    ab80:	4f 93       	tst.b	r15		
    ab82:	02 20       	jnz	$+6      	;abs 0xab88
    ab84:	80 00 70 b0 	bra	#0x0b070	
    ab88:	74 90 3d 00 	cmp.b	#61,	r4	;#0x003d
    ab8c:	02 24       	jz	$+6      	;abs 0xab92
    ab8e:	80 00 70 b0 	bra	#0x0b070	
    ab92:	76 50 ee ff 	add.b	#-18,	r6	;#0xffee
    ab96:	6f 47       	mov.b	@r7,	r15	
    ab98:	7f 50 ee ff 	add.b	#-18,	r15	;#0xffee
    ab9c:	4f 4f       	mov.b	r15,	r15	
    ab9e:	0f 57       	add	r7,	r15	
    aba0:	5f 4f 0c 00 	mov.b	12(r15),r15	;0x000c(r15)
    aba4:	7f 90 40 00 	cmp.b	#64,	r15	;#0x0040
    aba8:	02 20       	jnz	$+6      	;abs 0xabae
    abaa:	80 00 24 ae 	bra	#0x0ae24	
    abae:	7f 90 41 00 	cmp.b	#65,	r15	;#0x0041
    abb2:	0a 2c       	jc	$+22     	;abs 0xabc8
    abb4:	7f 90 06 00 	cmp.b	#6,	r15	;#0x0006
    abb8:	13 24       	jz	$+40     	;abs 0xabe0
    abba:	7f 90 3e 00 	cmp.b	#62,	r15	;#0x003e
    abbe:	02 24       	jz	$+6      	;abs 0xabc4
    abc0:	80 00 70 b0 	bra	#0x0b070	
    abc4:	80 00 ca ad 	bra	#0x0adca	
    abc8:	7f 90 50 00 	cmp.b	#80,	r15	;#0x0050
    abcc:	02 20       	jnz	$+6      	;abs 0xabd2
    abce:	80 00 60 af 	bra	#0x0af60	
    abd2:	7f 90 80 ff 	cmp.b	#-128,	r15	;#0xff80
    abd6:	02 24       	jz	$+6      	;abs 0xabdc
    abd8:	80 00 70 b0 	bra	#0x0b070	
    abdc:	80 00 f0 af 	bra	#0x0aff0	
    abe0:	76 90 0c 00 	cmp.b	#12,	r6	;#0x000c
    abe4:	04 24       	jz	$+10     	;abs 0xabee
    abe6:	b0 12 72 53 	call	#0x5372	
    abea:	80 00 70 b0 	bra	#0x0b070	
    abee:	06 42       	mov	r2,	r6	
    abf0:	36 f2       	and	#8,	r6	;r2 As==11
    abf2:	32 c2       	dint			
    abf4:	03 43       	nop			
    abf6:	92 53 64 1c 	inc	&0x1c64	
    abfa:	c2 93 8e 1c 	tst.b	&0x1c8e	
    abfe:	02 24       	jz	$+6      	;abs 0xac04
    ac00:	80 00 c2 af 	bra	#0x0afc2	
    ac04:	c2 93 76 1c 	tst.b	&0x1c76	
    ac08:	0f 20       	jnz	$+32     	;abs 0xac28
    ac0a:	c2 93 6f 1c 	tst.b	&0x1c6f	
    ac0e:	0c 20       	jnz	$+26     	;abs 0xac28
    ac10:	5f 42 66 1c 	mov.b	&0x1c66,r15	
    ac14:	5f 53       	inc.b	r15		
    ac16:	c2 4f 66 1c 	mov.b	r15,	&0x1c66	
    ac1a:	7f 90 0b 00 	cmp.b	#11,	r15	;#0x000b
    ac1e:	04 28       	jnc	$+10     	;abs 0xac28
    ac20:	c2 43 66 1c 	mov.b	#0,	&0x1c66	;r3 As==00
    ac24:	b0 12 cc 67 	call	#0x67cc	
    ac28:	14 42 8a 23 	mov	&0x238a,r4	
    ac2c:	15 42 8c 23 	mov	&0x238c,r5	
    ac30:	b0 12 7e 59 	call	#0x597e	
    ac34:	0c 44       	mov	r4,	r12	
    ac36:	0d 45       	mov	r5,	r13	
    ac38:	0c 8e       	sub	r14,	r12	
    ac3a:	0d 7f       	subc	r15,	r13	
    ac3c:	0e 4c       	mov	r12,	r14	
    ac3e:	0f 4d       	mov	r13,	r15	
    ac40:	3f 90 20 00 	cmp	#32,	r15	;#0x0020
    ac44:	0a 28       	jnc	$+22     	;abs 0xac5a
    ac46:	3f 90 21 00 	cmp	#33,	r15	;#0x0021
    ac4a:	02 28       	jnc	$+6      	;abs 0xac50
    ac4c:	80 00 c2 af 	bra	#0x0afc2	
    ac50:	3c 90 00 3a 	cmp	#14848,	r12	;#0x3a00
    ac54:	02 28       	jnc	$+6      	;abs 0xac5a
    ac56:	80 00 c2 af 	bra	#0x0afc2	
    ac5a:	0f 47       	mov	r7,	r15	
    ac5c:	b0 12 36 4d 	call	#0x4d36	
    ac60:	4f 93       	tst.b	r15		
    ac62:	04 24       	jz	$+10     	;abs 0xac6c
    ac64:	0f 47       	mov	r7,	r15	
    ac66:	b0 12 a4 63 	call	#0x63a4	
    ac6a:	02 3c       	jmp	$+6      	;abs 0xac70
    ac6c:	b0 12 a0 4e 	call	#0x4ea0	
    ac70:	81 4e 20 00 	mov	r14,	32(r1)	;0x0020(r1)
    ac74:	81 4f 22 00 	mov	r15,	34(r1)	;0x0022(r1)
    ac78:	5f 47 0e 00 	mov.b	14(r7),	r15	;0x000e(r7)
    ac7c:	8f 10       	swpb	r15		
    ac7e:	5e 47 0f 00 	mov.b	15(r7),	r14	;0x000f(r7)
    ac82:	0f de       	bis	r14,	r15	
    ac84:	1f 93       	cmp	#1,	r15	;r3 As==01
    ac86:	02 24       	jz	$+6      	;abs 0xac8c
    ac88:	2f 93       	cmp	#2,	r15	;r3 As==10
    ac8a:	16 20       	jnz	$+46     	;abs 0xacb8
    ac8c:	d2 43 70 1c 	mov.b	#1,	&0x1c70	;r3 As==01
    ac90:	e2 c3 5a 21 	bic.b	#2,	&0x215a	;r3 As==10
    ac94:	b0 12 d4 51 	call	#0x51d4	
    ac98:	3c 40 20 4e 	mov	#20000,	r12	;#0x4e20
    ac9c:	0d 43       	clr	r13		
    ac9e:	b0 12 36 bd 	call	#0xbd36	
    aca2:	0d 4e       	mov	r14,	r13	
    aca4:	0e 4f       	mov	r15,	r14	
    aca6:	3d 50 a0 86 	add	#-31072,r13	;#0x86a0
    acaa:	1e 63       	addc	#1,	r14	;r3 As==01
    acac:	7f 40 05 00 	mov.b	#5,	r15	;#0x0005
    acb0:	b0 12 66 5e 	call	#0x5e66	
    acb4:	80 00 c2 af 	bra	#0x0afc2	
    acb8:	c2 93 70 1c 	tst.b	&0x1c70	
    acbc:	02 24       	jz	$+6      	;abs 0xacc2
    acbe:	80 00 c2 af 	bra	#0x0afc2	
    acc2:	5e 47 0c 00 	mov.b	12(r7),	r14	;0x000c(r7)
    acc6:	8e 10       	swpb	r14		
    acc8:	5d 47 0d 00 	mov.b	13(r7),	r13	;0x000d(r7)
    accc:	0e dd       	bis	r13,	r14	
    acce:	c1 4e 01 00 	mov.b	r14,	1(r1)	;0x0001(r1)
    acd2:	8e 10       	swpb	r14		
    acd4:	c1 4e 00 00 	mov.b	r14,	0(r1)	;0x0000(r1)
    acd8:	1e 42 44 1c 	mov	&0x1c44,r14	
    acdc:	c1 4e 03 00 	mov.b	r14,	3(r1)	;0x0003(r1)
    ace0:	8e 10       	swpb	r14		
    ace2:	c1 4e 02 00 	mov.b	r14,	2(r1)	;0x0002(r1)
    ace6:	d1 47 48 00 04 00 	mov.b	72(r7),	4(r1)	;0x0048(r7), 0x0004(r1)
    acec:	c1 4f 06 00 	mov.b	r15,	6(r1)	;0x0006(r1)
    acf0:	8f 10       	swpb	r15		
    acf2:	c1 4f 05 00 	mov.b	r15,	5(r1)	;0x0005(r1)
    acf6:	0f 47       	mov	r7,	r15	
    acf8:	3f 50 10 00 	add	#16,	r15	;#0x0010
    acfc:	b0 12 3a 4b 	call	#0x4b3a	
    ad00:	0d 4e       	mov	r14,	r13	
    ad02:	0e 4f       	mov	r15,	r14	
    ad04:	0f 41       	mov	r1,	r15	
    ad06:	3f 50 07 00 	add	#7,	r15	;#0x0007
    ad0a:	b0 12 0e 4b 	call	#0x4b0e	
    ad0e:	0f 47       	mov	r7,	r15	
    ad10:	3f 50 14 00 	add	#20,	r15	;#0x0014
    ad14:	b0 12 3a 4b 	call	#0x4b3a	
    ad18:	0d 4e       	mov	r14,	r13	
    ad1a:	0e 4f       	mov	r15,	r14	
    ad1c:	0f 41       	mov	r1,	r15	
    ad1e:	3f 50 0b 00 	add	#11,	r15	;#0x000b
    ad22:	b0 12 0e 4b 	call	#0x4b0e	
    ad26:	1d 41 20 00 	mov	32(r1),	r13	;0x0020(r1)
    ad2a:	1e 41 22 00 	mov	34(r1),	r14	;0x0022(r1)
    ad2e:	0f 41       	mov	r1,	r15	
    ad30:	3f 50 0f 00 	add	#15,	r15	;#0x000f
    ad34:	b0 12 0e 4b 	call	#0x4b0e	
    ad38:	0f 41       	mov	r1,	r15	
    ad3a:	3f 50 20 00 	add	#32,	r15	;#0x0020
    ad3e:	b0 12 2e 61 	call	#0x612e	
    ad42:	c1 4f 17 00 	mov.b	r15,	23(r1)	;0x0017(r1)
    ad46:	1d 41 20 00 	mov	32(r1),	r13	;0x0020(r1)
    ad4a:	1e 41 22 00 	mov	34(r1),	r14	;0x0022(r1)
    ad4e:	0f 41       	mov	r1,	r15	
    ad50:	3f 50 13 00 	add	#19,	r15	;#0x0013
    ad54:	b0 12 0e 4b 	call	#0x4b0e	
    ad58:	d1 42 48 24 18 00 	mov.b	&0x2448,24(r1)	;0x0018(r1)
    ad5e:	1f 42 26 1c 	mov	&0x1c26,r15	
    ad62:	c1 4f 1a 00 	mov.b	r15,	26(r1)	;0x001a(r1)
    ad66:	8f 10       	swpb	r15		
    ad68:	c1 4f 19 00 	mov.b	r15,	25(r1)	;0x0019(r1)
    ad6c:	5f 42 61 1f 	mov.b	&0x1f61,r15	
    ad70:	5f 02       	rlam	#1,	r15	
    ad72:	1f 4f 76 1e 	mov	7798(r15),r15	;0x1e76(r15)
    ad76:	ff 40 1f 00 00 00 	mov.b	#31,	0(r15)	;#0x001f, 0x0000(r15)
    ad7c:	5f 42 61 1f 	mov.b	&0x1f61,r15	
    ad80:	5f 02       	rlam	#1,	r15	
    ad82:	1f 4f 76 1e 	mov	7798(r15),r15	;0x1e76(r15)
    ad86:	6d 4f       	mov.b	@r15,	r13	
    ad88:	0e 41       	mov	r1,	r14	
    ad8a:	1f 53       	inc	r15		
    ad8c:	b0 12 10 c6 	call	#0xc610	
    ad90:	5f 42 61 1f 	mov.b	&0x1f61,r15	
    ad94:	5f 53       	inc.b	r15		
    ad96:	c2 4f 61 1f 	mov.b	r15,	&0x1f61	
    ad9a:	7f 90 0c 00 	cmp.b	#12,	r15	;#0x000c
    ad9e:	02 28       	jnc	$+6      	;abs 0xada4
    ada0:	c2 43 61 1f 	mov.b	#0,	&0x1f61	;r3 As==00
    ada4:	d2 92 d5 22 61 1f 	cmp.b	&0x22d5,&0x1f61	
    adaa:	02 20       	jnz	$+6      	;abs 0xadb0
    adac:	d2 43 8e 1c 	mov.b	#1,	&0x1c8e	;r3 As==01
    adb0:	c2 93 6a 1f 	tst.b	&0x1f6a	
    adb4:	02 24       	jz	$+6      	;abs 0xadba
    adb6:	80 00 c2 af 	bra	#0x0afc2	
    adba:	7f 40 06 00 	mov.b	#6,	r15	;#0x0006
    adbe:	b0 12 f6 4e 	call	#0x4ef6	
    adc2:	d2 43 6a 1f 	mov.b	#1,	&0x1f6a	;r3 As==01
    adc6:	80 00 c2 af 	bra	#0x0afc2	
    adca:	5f 47 0e 00 	mov.b	14(r7),	r15	;0x000e(r7)
    adce:	8f 10       	swpb	r15		
    add0:	5e 47 0f 00 	mov.b	15(r7),	r14	;0x000f(r7)
    add4:	0f de       	bis	r14,	r15	
    add6:	1f 93       	cmp	#1,	r15	;r3 As==01
    add8:	02 24       	jz	$+6      	;abs 0xadde
    adda:	80 00 70 b0 	bra	#0x0b070	
    adde:	d2 b3 71 1f 	bit.b	#1,	&0x1f71	;r3 As==01
    ade2:	02 24       	jz	$+6      	;abs 0xade8
    ade4:	80 00 70 b0 	bra	#0x0b070	
    ade8:	0f 47       	mov	r7,	r15	
    adea:	b0 12 36 4d 	call	#0x4d36	
    adee:	4f 93       	tst.b	r15		
    adf0:	02 20       	jnz	$+6      	;abs 0xadf6
    adf2:	80 00 70 b0 	bra	#0x0b070	
    adf6:	16 42 d0 22 	mov	&0x22d0,r6	
    adfa:	82 47 d0 22 	mov	r7,	&0x22d0	
    adfe:	0f 47       	mov	r7,	r15	
    ae00:	b0 12 a4 63 	call	#0x63a4	
    ae04:	0d 4e       	mov	r14,	r13	
    ae06:	0e 4f       	mov	r15,	r14	
    ae08:	0f 47       	mov	r7,	r15	
    ae0a:	3f 50 15 00 	add	#21,	r15	;#0x0015
    ae0e:	b0 12 0e 4b 	call	#0x4b0e	
    ae12:	d2 d3 71 1f 	bis.b	#1,	&0x1f71	;r3 As==01
    ae16:	7f 40 23 00 	mov.b	#35,	r15	;#0x0023
    ae1a:	b0 12 f6 4e 	call	#0x4ef6	
    ae1e:	07 46       	mov	r6,	r7	
    ae20:	80 00 70 b0 	bra	#0x0b070	
    ae24:	0f 47       	mov	r7,	r15	
    ae26:	b0 12 b4 52 	call	#0x52b4	
    ae2a:	4f 93       	tst.b	r15		
    ae2c:	02 20       	jnz	$+6      	;abs 0xae32
    ae2e:	80 00 70 b0 	bra	#0x0b070	
    ae32:	76 92       	cmp.b	#8,	r6	;r2 As==11
    ae34:	02 24       	jz	$+6      	;abs 0xae3a
    ae36:	80 00 00 b0 	bra	#0x0b000	
    ae3a:	06 42       	mov	r2,	r6	
    ae3c:	36 f2       	and	#8,	r6	;r2 As==11
    ae3e:	32 c2       	dint			
    ae40:	03 43       	nop			
    ae42:	e2 c3 b4 21 	bic.b	#2,	&0x21b4	;r3 As==10
    ae46:	0f 47       	mov	r7,	r15	
    ae48:	3f 50 0c 00 	add	#12,	r15	;#0x000c
    ae4c:	b0 12 3a 4b 	call	#0x4b3a	
    ae50:	82 9f 76 20 	cmp	r15,	&0x2076	
    ae54:	06 28       	jnc	$+14     	;abs 0xae62
    ae56:	1f 92 76 20 	cmp	&0x2076,r15	
    ae5a:	35 28       	jnc	$+108    	;abs 0xaec6
    ae5c:	82 9e 74 20 	cmp	r14,	&0x2074	
    ae60:	32 2c       	jc	$+102    	;abs 0xaec6
    ae62:	82 4e 74 20 	mov	r14,	&0x2074	
    ae66:	82 4f 76 20 	mov	r15,	&0x2076	
    ae6a:	0f 47       	mov	r7,	r15	
    ae6c:	3f 50 10 00 	add	#16,	r15	;#0x0010
    ae70:	b0 12 3a 4b 	call	#0x4b3a	
    ae74:	82 4e 58 1f 	mov	r14,	&0x1f58	
    ae78:	82 4f 5a 1f 	mov	r15,	&0x1f5a	
    ae7c:	4d 4e       	mov.b	r14,	r13	
    ae7e:	5d 82 9e 23 	sub.b	&0x239e,r13	
    ae82:	1e 42 06 34 	mov	&0x3406,r14	
    ae86:	1f 42 08 34 	mov	&0x3408,r15	
    ae8a:	4a 4d       	mov.b	r13,	r10	
    ae8c:	0b 43       	clr	r11		
    ae8e:	0b 9f       	cmp	r15,	r11	
    ae90:	11 28       	jnc	$+36     	;abs 0xaeb4
    ae92:	0e 9a       	cmp	r10,	r14	
    ae94:	0f 2c       	jc	$+32     	;abs 0xaeb4
    ae96:	3d 40 32 00 	mov	#50,	r13	;#0x0032
    ae9a:	0d 8a       	sub	r10,	r13	
    ae9c:	08 4d       	mov	r13,	r8	
    ae9e:	8d 10       	swpb	r13		
    aea0:	8d 11       	sxt	r13		
    aea2:	8d 10       	swpb	r13		
    aea4:	8d 11       	sxt	r13		
    aea6:	09 4d       	mov	r13,	r9	
    aea8:	3c 40 32 00 	mov	#50,	r12	;#0x0032
    aeac:	0d 43       	clr	r13		
    aeae:	0e 58       	add	r8,	r14	
    aeb0:	0f 69       	addc	r9,	r15	
    aeb2:	05 3c       	jmp	$+12     	;abs 0xaebe
    aeb4:	3c 40 32 00 	mov	#50,	r12	;#0x0032
    aeb8:	0d 43       	clr	r13		
    aeba:	0e 8a       	sub	r10,	r14	
    aebc:	0f 7b       	subc	r11,	r15	
    aebe:	b0 12 36 bd 	call	#0xbd36	
    aec2:	c2 4e 96 1c 	mov.b	r14,	&0x1c96	
    aec6:	5f 42 96 1c 	mov.b	&0x1c96,r15	
    aeca:	0e 4f       	mov	r15,	r14	
    aecc:	5e 02       	rlam	#1,	r14	
    aece:	5f 0e       	rlam	#4,	r15	
    aed0:	0f 8e       	sub	r14,	r15	
    aed2:	ff 40 03 00 16 34 	mov.b	#3,	13334(r15);#0x0003, 0x3416(r15)
    aed8:	f2 90 03 00 1e 20 	cmp.b	#3,	&0x201e	;#0x0003
    aede:	01 20       	jnz	$+4      	;abs 0xaee2
    aee0:	70 3c       	jmp	$+226    	;abs 0xafc2
    aee2:	06 93       	tst	r6		
    aee4:	01 24       	jz	$+4      	;abs 0xaee8
    aee6:	32 d2       	eint			
    aee8:	1e 42 9e 23 	mov	&0x239e,r14	
    aeec:	1f 42 a0 23 	mov	&0x23a0,r15	
    aef0:	1c 42 58 1f 	mov	&0x1f58,r12	
    aef4:	1d 42 5a 1f 	mov	&0x1f5a,r13	
    aef8:	0f 9d       	cmp	r13,	r15	
    aefa:	04 28       	jnc	$+10     	;abs 0xaf04
    aefc:	0d 9f       	cmp	r15,	r13	
    aefe:	19 28       	jnc	$+52     	;abs 0xaf32
    af00:	0e 9c       	cmp	r12,	r14	
    af02:	17 2c       	jc	$+48     	;abs 0xaf32
    af04:	0c 8e       	sub	r14,	r12	
    af06:	0d 7f       	subc	r15,	r13	
    af08:	0d 93       	tst	r13		
    af0a:	02 20       	jnz	$+6      	;abs 0xaf10
    af0c:	2c 93       	cmp	#2,	r12	;r3 As==10
    af0e:	11 28       	jnc	$+36     	;abs 0xaf32
    af10:	5e 42 96 1c 	mov.b	&0x1c96,r14	
    af14:	1e 53       	inc	r14		
    af16:	0f 4e       	mov	r14,	r15	
    af18:	8f 10       	swpb	r15		
    af1a:	8f 11       	sxt	r15		
    af1c:	8f 10       	swpb	r15		
    af1e:	8f 11       	sxt	r15		
    af20:	3c 40 32 00 	mov	#50,	r12	;#0x0032
    af24:	0d 43       	clr	r13		
    af26:	b0 12 36 bd 	call	#0xbd36	
    af2a:	c2 4e 04 34 	mov.b	r14,	&0x3404	
    af2e:	b0 12 58 4f 	call	#0x4f58	
    af32:	1e 42 58 1f 	mov	&0x1f58,r14	
    af36:	1f 42 5a 1f 	mov	&0x1f5a,r15	
    af3a:	1f 93       	cmp	#1,	r15	;r3 As==01
    af3c:	06 2c       	jc	$+14     	;abs 0xaf4a
    af3e:	3e 90 33 00 	cmp	#51,	r14	;#0x0033
    af42:	03 2c       	jc	$+8      	;abs 0xaf4a
    af44:	b0 12 4e 4f 	call	#0x4f4e	
    af48:	93 3c       	jmp	$+296    	;abs 0xb070
    af4a:	3e 50 cf ff 	add	#-49,	r14	;#0xffcf
    af4e:	3f 63       	addc	#-1,	r15	;r3 As==11
    af50:	1f 92 a0 23 	cmp	&0x23a0,r15	
    af54:	f7 2b       	jnc	$-16     	;abs 0xaf44
    af56:	8c 20       	jnz	$+282    	;abs 0xb070
    af58:	1e 92 9e 23 	cmp	&0x239e,r14	
    af5c:	f3 2b       	jnc	$-24     	;abs 0xaf44
    af5e:	88 3c       	jmp	$+274    	;abs 0xb070
    af60:	0f 47       	mov	r7,	r15	
    af62:	b0 12 b4 52 	call	#0x52b4	
    af66:	4f 93       	tst.b	r15		
    af68:	83 24       	jz	$+264    	;abs 0xb070
    af6a:	76 90 0d 00 	cmp.b	#13,	r6	;#0x000d
    af6e:	01 24       	jz	$+4      	;abs 0xaf72
    af70:	47 3c       	jmp	$+144    	;abs 0xb000
    af72:	e2 c3 aa 21 	bic.b	#2,	&0x21aa	;r3 As==10
    af76:	06 42       	mov	r2,	r6	
    af78:	36 f2       	and	#8,	r6	;r2 As==11
    af7a:	32 c2       	dint			
    af7c:	03 43       	nop			
    af7e:	b0 12 b0 51 	call	#0x51b0	
    af82:	5f 47 10 00 	mov.b	16(r7),	r15	;0x0010(r7)
    af86:	8f 10       	swpb	r15		
    af88:	5e 47 11 00 	mov.b	17(r7),	r14	;0x0011(r7)
    af8c:	0f de       	bis	r14,	r15	
    af8e:	82 4f 74 1e 	mov	r15,	&0x1e74	
    af92:	d2 47 16 00 d4 22 	mov.b	22(r7),	&0x22d4	;0x0016(r7)
    af98:	5f 47 0e 00 	mov.b	14(r7),	r15	;0x000e(r7)
    af9c:	8f 10       	swpb	r15		
    af9e:	5e 47 0f 00 	mov.b	15(r7),	r14	;0x000f(r7)
    afa2:	0f de       	bis	r14,	r15	
    afa4:	82 4f cc 22 	mov	r15,	&0x22cc	
    afa8:	d7 93 17 00 	cmp.b	#1,	23(r7)	;r3 As==01, 0x0017(r7)
    afac:	1c 20       	jnz	$+58     	;abs 0xafe6
    afae:	5f 47 18 00 	mov.b	24(r7),	r15	;0x0018(r7)
    afb2:	5f 93       	cmp.b	#1,	r15	;r3 As==01
    afb4:	09 20       	jnz	$+20     	;abs 0xafc8
    afb6:	d2 43 d1 20 	mov.b	#1,	&0x20d1	;r3 As==01
    afba:	d2 43 1e 20 	mov.b	#1,	&0x201e	;r3 As==01
    afbe:	b0 12 62 4f 	call	#0x4f62	
    afc2:	06 93       	tst	r6		
    afc4:	55 24       	jz	$+172    	;abs 0xb070
    afc6:	53 3c       	jmp	$+168    	;abs 0xb06e
    afc8:	7f 90 03 00 	cmp.b	#3,	r15	;#0x0003
    afcc:	07 20       	jnz	$+16     	;abs 0xafdc
    afce:	c2 43 d1 20 	mov.b	#0,	&0x20d1	;r3 As==00
    afd2:	c2 43 1e 20 	mov.b	#0,	&0x201e	;r3 As==00
    afd6:	b0 12 58 4f 	call	#0x4f58	
    afda:	f3 3f       	jmp	$-24     	;abs 0xafc2
    afdc:	7f 40 0f 00 	mov.b	#15,	r15	;#0x000f
    afe0:	b0 12 f6 4e 	call	#0x4ef6	
    afe4:	ee 3f       	jmp	$-34     	;abs 0xafc2
    afe6:	d2 43 d1 20 	mov.b	#1,	&0x20d1	;r3 As==01
    afea:	e2 43 1e 20 	mov.b	#2,	&0x201e	;r3 As==10
    afee:	e7 3f       	jmp	$-48     	;abs 0xafbe
    aff0:	0f 47       	mov	r7,	r15	
    aff2:	b0 12 b4 52 	call	#0x52b4	
    aff6:	4f 93       	tst.b	r15		
    aff8:	3b 24       	jz	$+120    	;abs 0xb070
    affa:	76 90 05 00 	cmp.b	#5,	r6	;#0x0005
    affe:	03 24       	jz	$+8      	;abs 0xb006
    b000:	b0 12 60 53 	call	#0x5360	
    b004:	35 3c       	jmp	$+108    	;abs 0xb070
    b006:	b0 12 b0 51 	call	#0x51b0	
    b00a:	5f 47 0c 00 	mov.b	12(r7),	r15	;0x000c(r7)
    b00e:	8f 10       	swpb	r15		
    b010:	5e 47 0d 00 	mov.b	13(r7),	r14	;0x000d(r7)
    b014:	0f de       	bis	r14,	r15	
    b016:	82 4f 74 1e 	mov	r15,	&0x1e74	
    b01a:	5d 47 0e 00 	mov.b	14(r7),	r13	;0x000e(r7)
    b01e:	c2 4d d4 22 	mov.b	r13,	&0x22d4	
    b022:	5e 47 0f 00 	mov.b	15(r7),	r14	;0x000f(r7)
    b026:	8e 10       	swpb	r14		
    b028:	5c 47 10 00 	mov.b	16(r7),	r12	;0x0010(r7)
    b02c:	0e dc       	bis	r12,	r14	
    b02e:	82 4e cc 22 	mov	r14,	&0x22cc	
    b032:	0f 93       	tst	r15		
    b034:	03 24       	jz	$+8      	;abs 0xb03c
    b036:	3f 90 0b 00 	cmp	#11,	r15	;#0x000b
    b03a:	08 20       	jnz	$+18     	;abs 0xb04c
    b03c:	c2 9d f9 23 	cmp.b	r13,	&0x23f9	
    b040:	05 24       	jz	$+12     	;abs 0xb04c
    b042:	7f 40 0a 00 	mov.b	#10,	r15	;#0x000a
    b046:	b0 12 f6 4e 	call	#0x4ef6	
    b04a:	12 3c       	jmp	$+38     	;abs 0xb070
    b04c:	b0 12 a4 4f 	call	#0x4fa4	
    b050:	0f 3c       	jmp	$+32     	;abs 0xb070
    b052:	06 45       	mov	r5,	r6	
    b054:	86 10       	swpb	r6		
    b056:	06 df       	bis	r15,	r6	
    b058:	b0 12 a2 52 	call	#0x52a2	
    b05c:	06 9f       	cmp	r15,	r6	
    b05e:	02 24       	jz	$+6      	;abs 0xb064
    b060:	36 93       	cmp	#-1,	r6	;r3 As==11
    b062:	06 20       	jnz	$+14     	;abs 0xb070
    b064:	0f 42       	mov	r2,	r15	
    b066:	32 c2       	dint			
    b068:	03 43       	nop			
    b06a:	3f f2       	and	#8,	r15	;r2 As==11
    b06c:	01 24       	jz	$+4      	;abs 0xb070
    b06e:	32 d2       	eint			
    b070:	0f 42       	mov	r2,	r15	
    b072:	3f f2       	and	#8,	r15	;r2 As==11
    b074:	32 c2       	dint			
    b076:	03 43       	nop			
    b078:	5d 42 51 24 	mov.b	&0x2451,r13	
    b07c:	4e 4d       	mov.b	r13,	r14	
    b07e:	5e 02       	rlam	#1,	r14	
    b080:	8e 47 88 1c 	mov	r7,	7304(r14);0x1c88(r14)
    b084:	4e 4d       	mov.b	r13,	r14	
    b086:	5e 53       	inc.b	r14		
    b088:	7e 90 03 00 	cmp.b	#3,	r14	;#0x0003
    b08c:	03 2c       	jc	$+8      	;abs 0xb094
    b08e:	c2 4e 51 24 	mov.b	r14,	&0x2451	
    b092:	02 3c       	jmp	$+6      	;abs 0xb098
    b094:	c2 43 51 24 	mov.b	#0,	&0x2451	;r3 As==00
    b098:	f2 53 a2 23 	add.b	#-1,	&0x23a2	;r3 As==11
    b09c:	0f 93       	tst	r15		
    b09e:	02 20       	jnz	$+6      	;abs 0xb0a4
    b0a0:	80 00 04 ab 	bra	#0x0ab04	
    b0a4:	32 d2       	eint			
    b0a6:	80 00 04 ab 	bra	#0x0ab04	
    b0aa:	b0 12 d4 51 	call	#0x51d4	
    b0ae:	0f 42       	mov	r2,	r15	
    b0b0:	32 c2       	dint			
    b0b2:	03 43       	nop			
    b0b4:	82 4e d2 22 	mov	r14,	&0x22d2	
    b0b8:	80 00 32 9c 	bra	#0x09c32	
    b0bc:	b0 12 24 7a 	call	#0x7a24	
    b0c0:	80 00 0c bc 	bra	#0x0bc0c	
    b0c4:	b0 12 da 5c 	call	#0x5cda	
    b0c8:	80 00 0c bc 	bra	#0x0bc0c	
    b0cc:	4d 43       	clr.b	r13		
    b0ce:	0e 43       	clr	r14		
    b0d0:	0f 43       	clr	r15		
    b0d2:	b0 12 9e 81 	call	#0x819e	
    b0d6:	80 00 0c bc 	bra	#0x0bc0c	
    b0da:	4d 43       	clr.b	r13		
    b0dc:	0e 43       	clr	r14		
    b0de:	1f 43       	mov	#1,	r15	;r3 As==01
    b0e0:	b0 12 9e 81 	call	#0x819e	
    b0e4:	80 00 0c bc 	bra	#0x0bc0c	
    b0e8:	4f 43       	clr.b	r15		
    b0ea:	b0 12 18 4d 	call	#0x4d18	
    b0ee:	4f 93       	tst.b	r15		
    b0f0:	06 38       	jl	$+14     	;abs 0xb0fe
    b0f2:	7f 40 1b 00 	mov.b	#27,	r15	;#0x001b
    b0f6:	b0 12 f6 4e 	call	#0x4ef6	
    b0fa:	80 00 0c bc 	bra	#0x0bc0c	
    b0fe:	f2 90 06 00 61 1c 	cmp.b	#6,	&0x1c61	;#0x0006
    b104:	31 20       	jnz	$+100    	;abs 0xb168
    b106:	4f 43       	clr.b	r15		
    b108:	b0 12 18 4d 	call	#0x4d18	
    b10c:	4b 4f       	mov.b	r15,	r11	
    b10e:	b0 12 9e 51 	call	#0x519e	
    b112:	4f 43       	clr.b	r15		
    b114:	b0 12 52 7b 	call	#0x7b52	
    b118:	d2 c3 d2 1e 	bic.b	#1,	&0x1ed2	;r3 As==01
    b11c:	d2 c3 ce 1e 	bic.b	#1,	&0x1ece	;r3 As==01
    b120:	c2 43 84 1c 	mov.b	#0,	&0x1c84	;r3 As==00
    b124:	7b f0 40 00 	and.b	#64,	r11	;#0x0040
    b128:	5f 42 39 21 	mov.b	&0x2139,r15	
    b12c:	5f 06       	rlam	#2,	r15	
    b12e:	4b 93       	tst.b	r11		
    b130:	04 20       	jnz	$+10     	;abs 0xb13a
    b132:	ff f0 e7 ff ce 1e 	and.b	#-25,	7886(r15);#0xffe7, 0x1ece(r15)
    b138:	13 3c       	jmp	$+40     	;abs 0xb160
    b13a:	3f 50 ce 1e 	add	#7886,	r15	;#0x1ece
    b13e:	6e 4f       	mov.b	@r15,	r14	
    b140:	5e 0b       	rrum	#3,	r14	
    b142:	3e f0 03 00 	and	#3,	r14	;#0x0003
    b146:	2e 93       	cmp	#2,	r14	;r3 As==10
    b148:	03 34       	jge	$+8      	;abs 0xb150
    b14a:	ef c3 00 00 	bic.b	#2,	0(r15)	;r3 As==10, 0x0000(r15)
    b14e:	08 3c       	jmp	$+18     	;abs 0xb160
    b150:	7d 40 0a 00 	mov.b	#10,	r13	;#0x000a
    b154:	0e 43       	clr	r14		
    b156:	1f 43       	mov	#1,	r15	;r3 As==01
    b158:	b0 12 9e 81 	call	#0x819e	
    b15c:	80 00 0c bc 	bra	#0x0bc0c	
    b160:	b0 12 d4 86 	call	#0x86d4	
    b164:	80 00 0c bc 	bra	#0x0bc0c	
    b168:	b0 12 9e 51 	call	#0x519e	
    b16c:	4f 43       	clr.b	r15		
    b16e:	b0 12 52 7b 	call	#0x7b52	
    b172:	d2 c3 d2 1e 	bic.b	#1,	&0x1ed2	;r3 As==01
    b176:	d2 c3 ce 1e 	bic.b	#1,	&0x1ece	;r3 As==01
    b17a:	c2 43 84 1c 	mov.b	#0,	&0x1c84	;r3 As==00
    b17e:	b0 12 d4 86 	call	#0x86d4	
    b182:	80 00 0c bc 	bra	#0x0bc0c	
    b186:	0f 42       	mov	r2,	r15	
    b188:	32 c2       	dint			
    b18a:	03 43       	nop			
    b18c:	d2 42 0d 1c 0e 1c 	mov.b	&0x1c0d,&0x1c0e	
    b192:	f2 43 0d 1c 	mov.b	#-1,	&0x1c0d	;r3 As==11
    b196:	e2 42 97 1c 	mov.b	#4,	&0x1c97	;r2 As==10
    b19a:	3f f2       	and	#8,	r15	;r2 As==11
    b19c:	01 24       	jz	$+4      	;abs 0xb1a0
    b19e:	32 d2       	eint			
    b1a0:	5f 42 0e 1c 	mov.b	&0x1c0e,r15	
    b1a4:	4f 93       	tst.b	r15		
    b1a6:	05 24       	jz	$+12     	;abs 0xb1b2
    b1a8:	5f 93       	cmp.b	#1,	r15	;r3 As==01
    b1aa:	02 24       	jz	$+6      	;abs 0xb1b0
    b1ac:	80 00 0c bc 	bra	#0x0bc0c	
    b1b0:	0a 3c       	jmp	$+22     	;abs 0xb1c6
    b1b2:	c2 43 18 1c 	mov.b	#0,	&0x1c18	;r3 As==00
    b1b6:	82 43 34 21 	mov	#0,	&0x2134	;r3 As==00
    b1ba:	82 43 36 21 	mov	#0,	&0x2136	;r3 As==00
    b1be:	b0 12 a0 8f 	call	#0x8fa0	
    b1c2:	80 00 0c bc 	bra	#0x0bc0c	
    b1c6:	c2 43 0b 1c 	mov.b	#0,	&0x1c0b	;r3 As==00
    b1ca:	d2 93 c4 20 	cmp.b	#1,	&0x20c4	;r3 As==01
    b1ce:	1a 20       	jnz	$+54     	;abs 0xb204
    b1d0:	f2 b2 f4 23 	bit.b	#8,	&0x23f4	;r2 As==11
    b1d4:	0f 43       	clr	r15		
    b1d6:	0f 6f       	rlc	r15		
    b1d8:	4f 93       	tst.b	r15		
    b1da:	14 20       	jnz	$+42     	;abs 0xb204
    b1dc:	b0 12 9c 6c 	call	#0x6c9c	
    b1e0:	5f 42 f4 23 	mov.b	&0x23f4,r15	
    b1e4:	7f f0 07 00 	and.b	#7,	r15	;#0x0007
    b1e8:	7f 90 03 00 	cmp.b	#3,	r15	;#0x0003
    b1ec:	0b 20       	jnz	$+24     	;abs 0xb204
    b1ee:	c2 43 0c 1c 	mov.b	#0,	&0x1c0c	;r3 As==00
    b1f2:	a2 42 68 1f 	mov	#4,	&0x1f68	;r2 As==10
    b1f6:	0f 43       	clr	r15		
    b1f8:	b0 12 ee 91 	call	#0x91ee	
    b1fc:	f2 43 0b 1c 	mov.b	#-1,	&0x1c0b	;r3 As==11
    b200:	80 00 0c bc 	bra	#0x0bc0c	
    b204:	b0 12 9a 91 	call	#0x919a	
    b208:	80 00 0c bc 	bra	#0x0bc0c	
    b20c:	0d 42       	mov	r2,	r13	
    b20e:	3d f2       	and	#8,	r13	;r2 As==11
    b210:	32 c2       	dint			
    b212:	03 43       	nop			
    b214:	c2 43 13 34 	mov.b	#0,	&0x3413	;r3 As==00
    b218:	5f 42 ca 22 	mov.b	&0x22ca,r15	
    b21c:	5a 43       	mov.b	#1,	r10	;r3 As==01
    b21e:	7f 92       	cmp.b	#8,	r15	;r2 As==11
    b220:	01 24       	jz	$+4      	;abs 0xb224
    b222:	4a 43       	clr.b	r10		
    b224:	5e 43       	mov.b	#1,	r14	;r3 As==01
    b226:	7f 90 09 00 	cmp.b	#9,	r15	;#0x0009
    b22a:	01 24       	jz	$+4      	;abs 0xb22e
    b22c:	4e 43       	clr.b	r14		
    b22e:	4a 93       	tst.b	r10		
    b230:	02 20       	jnz	$+6      	;abs 0xb236
    b232:	4e 93       	tst.b	r14		
    b234:	07 24       	jz	$+16     	;abs 0xb244
    b236:	c2 43 ca 22 	mov.b	#0,	&0x22ca	;r3 As==00
    b23a:	5c 42 3a 21 	mov.b	&0x213a,r12	
    b23e:	5c 02       	rlam	#1,	r12	
    b240:	cc 43 6c 20 	mov.b	#0,	8300(r12);r3 As==00, 0x206c(r12)
    b244:	0d 93       	tst	r13		
    b246:	01 24       	jz	$+4      	;abs 0xb24a
    b248:	32 d2       	eint			
    b24a:	4a 93       	tst.b	r10		
    b24c:	02 20       	jnz	$+6      	;abs 0xb252
    b24e:	4e 93       	tst.b	r14		
    b250:	22 24       	jz	$+70     	;abs 0xb296
    b252:	0f 42       	mov	r2,	r15	
    b254:	3f f2       	and	#8,	r15	;r2 As==11
    b256:	32 c2       	dint			
    b258:	03 43       	nop			
    b25a:	d2 53 50 24 	inc.b	&0x2450	
    b25e:	f2 90 43 00 30 20 	cmp.b	#67,	&0x2030	;#0x0043
    b264:	11 20       	jnz	$+36     	;abs 0xb288
    b266:	5e 42 d3 20 	mov.b	&0x20d3,r14	
    b26a:	5e 92 d2 20 	cmp.b	&0x20d2,r14	
    b26e:	01 20       	jnz	$+4      	;abs 0xb272
    b270:	08 3c       	jmp	$+18     	;abs 0xb282
    b272:	5e 53       	inc.b	r14		
    b274:	c2 4e d3 20 	mov.b	r14,	&0x20d3	
    b278:	7e 90 06 00 	cmp.b	#6,	r14	;#0x0006
    b27c:	02 28       	jnc	$+6      	;abs 0xb282
    b27e:	c2 43 d3 20 	mov.b	#0,	&0x20d3	;r3 As==00
    b282:	49 43       	clr.b	r9		
    b284:	0a 43       	clr	r10		
    b286:	03 3c       	jmp	$+8      	;abs 0xb28e
    b288:	5a e3       	xor.b	#1,	r10	;r3 As==01
    b28a:	4a 4a       	mov.b	r10,	r10	
    b28c:	59 43       	mov.b	#1,	r9	;r3 As==01
    b28e:	0f 93       	tst	r15		
    b290:	06 24       	jz	$+14     	;abs 0xb29e
    b292:	32 d2       	eint			
    b294:	04 3c       	jmp	$+10     	;abs 0xb29e
    b296:	4f 93       	tst.b	r15		
    b298:	5f 20       	jnz	$+192    	;abs 0xb358
    b29a:	0a 43       	clr	r10		
    b29c:	49 43       	clr.b	r9		
    b29e:	0f 42       	mov	r2,	r15	
    b2a0:	32 c2       	dint			
    b2a2:	03 43       	nop			
    b2a4:	5e 42 60 1c 	mov.b	&0x1c60,r14	
    b2a8:	3f f2       	and	#8,	r15	;r2 As==11
    b2aa:	01 24       	jz	$+4      	;abs 0xb2ae
    b2ac:	32 d2       	eint			
    b2ae:	0f 42       	mov	r2,	r15	
    b2b0:	32 c2       	dint			
    b2b2:	03 43       	nop			
    b2b4:	4e 93       	tst.b	r14		
    b2b6:	09 24       	jz	$+20     	;abs 0xb2ca
    b2b8:	f2 40 0a 00 ca 22 	mov.b	#10,	&0x22ca	;#0x000a
    b2be:	3f f2       	and	#8,	r15	;r2 As==11
    b2c0:	01 20       	jnz	$+4      	;abs 0xb2c4
    b2c2:	01 3c       	jmp	$+4      	;abs 0xb2c6
    b2c4:	32 d2       	eint			
    b2c6:	4b 43       	clr.b	r11		
    b2c8:	38 3c       	jmp	$+114    	;abs 0xb33a
    b2ca:	58 42 6c 20 	mov.b	&0x206c,r8	
    b2ce:	5b 42 6e 20 	mov.b	&0x206e,r11	
    b2d2:	3f f2       	and	#8,	r15	;r2 As==11
    b2d4:	01 24       	jz	$+4      	;abs 0xb2d8
    b2d6:	32 d2       	eint			
    b2d8:	b0 12 d4 53 	call	#0x53d4	
    b2dc:	4f 93       	tst.b	r15		
    b2de:	1f 20       	jnz	$+64     	;abs 0xb31e
    b2e0:	48 93       	tst.b	r8		
    b2e2:	1d 20       	jnz	$+60     	;abs 0xb31e
    b2e4:	0b 42       	mov	r2,	r11	
    b2e6:	3b f2       	and	#8,	r11	;r2 As==11
    b2e8:	32 c2       	dint			
    b2ea:	03 43       	nop			
    b2ec:	e2 43 6c 20 	mov.b	#2,	&0x206c	;r3 As==10
    b2f0:	b0 12 d4 53 	call	#0x53d4	
    b2f4:	4f 93       	tst.b	r15		
    b2f6:	05 20       	jnz	$+12     	;abs 0xb302
    b2f8:	5f 42 d3 20 	mov.b	&0x20d3,r15	
    b2fc:	5f 4f d4 20 	mov.b	8404(r15),r15	;0x20d4(r15)
    b300:	01 3c       	jmp	$+4      	;abs 0xb304
    b302:	4f 43       	clr.b	r15		
    b304:	c2 4f 6d 20 	mov.b	r15,	&0x206d	
    b308:	f2 40 43 00 30 20 	mov.b	#67,	&0x2030	;#0x0043
    b30e:	c2 43 3a 21 	mov.b	#0,	&0x213a	;r3 As==00
    b312:	0b 93       	tst	r11		
    b314:	01 20       	jnz	$+4      	;abs 0xb318
    b316:	01 3c       	jmp	$+4      	;abs 0xb31a
    b318:	32 d2       	eint			
    b31a:	5b 43       	mov.b	#1,	r11	;r3 As==01
    b31c:	0e 3c       	jmp	$+30     	;abs 0xb33a
    b31e:	7b 53       	add.b	#-1,	r11	;r3 As==11
    b320:	6b 93       	cmp.b	#2,	r11	;r3 As==10
    b322:	d1 2f       	jc	$-92     	;abs 0xb2c6
    b324:	0f 42       	mov	r2,	r15	
    b326:	32 c2       	dint			
    b328:	03 43       	nop			
    b32a:	f2 40 45 00 30 20 	mov.b	#69,	&0x2030	;#0x0045
    b330:	d2 43 3a 21 	mov.b	#1,	&0x213a	;r3 As==01
    b334:	3f f2       	and	#8,	r15	;r2 As==11
    b336:	f1 27       	jz	$-28     	;abs 0xb31a
    b338:	ef 3f       	jmp	$-32     	;abs 0xb318
    b33a:	49 93       	tst.b	r9		
    b33c:	0e 24       	jz	$+30     	;abs 0xb35a
    b33e:	0f 42       	mov	r2,	r15	
    b340:	32 c2       	dint			
    b342:	03 43       	nop			
    b344:	82 4a 54 1c 	mov	r10,	&0x1c54	
    b348:	3f f2       	and	#8,	r15	;r2 As==11
    b34a:	01 24       	jz	$+4      	;abs 0xb34e
    b34c:	32 d2       	eint			
    b34e:	7f 40 21 00 	mov.b	#33,	r15	;#0x0021
    b352:	b0 12 f6 4e 	call	#0x4ef6	
    b356:	01 3c       	jmp	$+4      	;abs 0xb35a
    b358:	4b 43       	clr.b	r11		
    b35a:	0a 42       	mov	r2,	r10	
    b35c:	3a f2       	and	#8,	r10	;r2 As==11
    b35e:	32 c2       	dint			
    b360:	03 43       	nop			
    b362:	f2 90 0a 00 ca 22 	cmp.b	#10,	&0x22ca	;#0x000a
    b368:	08 20       	jnz	$+18     	;abs 0xb37a
    b36a:	b0 12 b8 56 	call	#0x56b8	
    b36e:	0a 93       	tst	r10		
    b370:	02 20       	jnz	$+6      	;abs 0xb376
    b372:	80 00 0c bc 	bra	#0x0bc0c	
    b376:	80 00 3c 9c 	bra	#0x09c3c	
    b37a:	0a 93       	tst	r10		
    b37c:	01 24       	jz	$+4      	;abs 0xb380
    b37e:	32 d2       	eint			
    b380:	4b 93       	tst.b	r11		
    b382:	02 20       	jnz	$+6      	;abs 0xb388
    b384:	80 00 0c bc 	bra	#0x0bc0c	
    b388:	0f 42       	mov	r2,	r15	
    b38a:	32 c2       	dint			
    b38c:	03 43       	nop			
    b38e:	82 43 f0 36 	mov	#0,	&0x36f0	;r3 As==00
    b392:	c2 43 1d 20 	mov.b	#0,	&0x201d	;r3 As==00
    b396:	d2 43 ca 22 	mov.b	#1,	&0x22ca	;r3 As==01
    b39a:	3f f2       	and	#8,	r15	;r2 As==11
    b39c:	01 24       	jz	$+4      	;abs 0xb3a0
    b39e:	32 d2       	eint			
    b3a0:	b0 12 a2 5e 	call	#0x5ea2	
    b3a4:	0f 93       	tst	r15		
    b3a6:	02 20       	jnz	$+6      	;abs 0xb3ac
    b3a8:	80 00 0c bc 	bra	#0x0bc0c	
    b3ac:	0f 42       	mov	r2,	r15	
    b3ae:	32 c2       	dint			
    b3b0:	03 43       	nop			
    b3b2:	f2 40 09 00 ca 22 	mov.b	#9,	&0x22ca	;#0x0009
    b3b8:	3f f2       	and	#8,	r15	;r2 As==11
    b3ba:	01 24       	jz	$+4      	;abs 0xb3be
    b3bc:	32 d2       	eint			
    b3be:	b0 12 98 53 	call	#0x5398	
    b3c2:	80 00 0c bc 	bra	#0x0bc0c	
    b3c6:	0f 42       	mov	r2,	r15	
    b3c8:	3f f2       	and	#8,	r15	;r2 As==11
    b3ca:	32 c2       	dint			
    b3cc:	03 43       	nop			
    b3ce:	c2 93 4c 1f 	tst.b	&0x1f4c	
    b3d2:	04 24       	jz	$+10     	;abs 0xb3dc
    b3d4:	0f 93       	tst	r15		
    b3d6:	39 24       	jz	$+116    	;abs 0xb44a
    b3d8:	32 d2       	eint			
    b3da:	37 3c       	jmp	$+112    	;abs 0xb44a
    b3dc:	f2 40 03 00 4c 1f 	mov.b	#3,	&0x1f4c	;#0x0003
    b3e2:	c2 43 2a 1c 	mov.b	#0,	&0x1c2a	;r3 As==00
    b3e6:	0f 93       	tst	r15		
    b3e8:	01 24       	jz	$+4      	;abs 0xb3ec
    b3ea:	32 d2       	eint			
    b3ec:	0b 42       	mov	r2,	r11	
    b3ee:	3b f2       	and	#8,	r11	;r2 As==11
    b3f0:	32 c2       	dint			
    b3f2:	03 43       	nop			
    b3f4:	d2 93 2b 1c 	cmp.b	#1,	&0x1c2b	;r3 As==01
    b3f8:	0c 20       	jnz	$+26     	;abs 0xb412
    b3fa:	5f 42 4c 1f 	mov.b	&0x1f4c,r15	
    b3fe:	4e 4f       	mov.b	r15,	r14	
    b400:	7e 53       	add.b	#-1,	r14	;r3 As==11
    b402:	6e 93       	cmp.b	#2,	r14	;r3 As==10
    b404:	0a 2c       	jc	$+22     	;abs 0xb41a
    b406:	e2 43 4c 1f 	mov.b	#2,	&0x1f4c	;r3 As==10
    b40a:	7f 40 03 00 	mov.b	#3,	r15	;#0x0003
    b40e:	b0 12 f6 4e 	call	#0x4ef6	
    b412:	0b 93       	tst	r11		
    b414:	0d 24       	jz	$+28     	;abs 0xb430
    b416:	32 d2       	eint			
    b418:	0b 3c       	jmp	$+24     	;abs 0xb430
    b41a:	7f 90 03 00 	cmp.b	#3,	r15	;#0x0003
    b41e:	f9 23       	jnz	$-12     	;abs 0xb412
    b420:	d2 42 2a 1c 2b 1c 	mov.b	&0x1c2a,&0x1c2b	
    b426:	f2 43 2a 1c 	mov.b	#-1,	&0x1c2a	;r3 As==11
    b42a:	e2 42 4c 1f 	mov.b	#4,	&0x1f4c	;r2 As==10
    b42e:	f1 3f       	jmp	$-28     	;abs 0xb412
    b430:	c2 93 2b 1c 	tst.b	&0x1c2b	
    b434:	03 20       	jnz	$+8      	;abs 0xb43c
    b436:	b0 12 56 5a 	call	#0x5a56	
    b43a:	07 3c       	jmp	$+16     	;abs 0xb44a
    b43c:	0f 42       	mov	r2,	r15	
    b43e:	32 c2       	dint			
    b440:	03 43       	nop			
    b442:	c2 43 4c 1f 	mov.b	#0,	&0x1f4c	;r3 As==00
    b446:	3f f2       	and	#8,	r15	;r2 As==11
    b448:	c5 3f       	jmp	$-116    	;abs 0xb3d4
    b44a:	0f 42       	mov	r2,	r15	
    b44c:	32 c2       	dint			
    b44e:	03 43       	nop			
    b450:	c2 43 ca 22 	mov.b	#0,	&0x22ca	;r3 As==00
    b454:	c2 43 60 1f 	mov.b	#0,	&0x1f60	;r3 As==00
    b458:	3f f2       	and	#8,	r15	;r2 As==11
    b45a:	01 24       	jz	$+4      	;abs 0xb45e
    b45c:	32 d2       	eint			
    b45e:	4f 43       	clr.b	r15		
    b460:	b0 12 6c 67 	call	#0x676c	
    b464:	80 00 0c bc 	bra	#0x0bc0c	
    b468:	7f 40 20 00 	mov.b	#32,	r15	;#0x0020
    b46c:	b0 12 f6 4e 	call	#0x4ef6	
    b470:	80 00 0c bc 	bra	#0x0bc0c	
    b474:	0b 42       	mov	r2,	r11	
    b476:	3b f2       	and	#8,	r11	;r2 As==11
    b478:	32 c2       	dint			
    b47a:	03 43       	nop			
    b47c:	e2 92 4c 1f 	cmp.b	#4,	&0x1f4c	;r2 As==10
    b480:	23 20       	jnz	$+72     	;abs 0xb4c8
    b482:	c2 93 2b 1c 	tst.b	&0x1c2b	
    b486:	20 20       	jnz	$+66     	;abs 0xb4c8
    b488:	5f 42 2d 1c 	mov.b	&0x1c2d,r15	
    b48c:	7f 93       	cmp.b	#-1,	r15	;r3 As==11
    b48e:	05 20       	jnz	$+12     	;abs 0xb49a
    b490:	d2 43 2b 1c 	mov.b	#1,	&0x1c2b	;r3 As==01
    b494:	c2 43 4c 1f 	mov.b	#0,	&0x1f4c	;r3 As==00
    b498:	15 3c       	jmp	$+44     	;abs 0xb4c4
    b49a:	4e 4f       	mov.b	r15,	r14	
    b49c:	5d 4e 56 1f 	mov.b	8022(r14),r13	;0x1f56(r14)
    b4a0:	c2 4d 2d 1c 	mov.b	r13,	&0x1c2d	
    b4a4:	7d 93       	cmp.b	#-1,	r13	;r3 As==11
    b4a6:	02 20       	jnz	$+6      	;abs 0xb4ac
    b4a8:	f2 43 2c 1c 	mov.b	#-1,	&0x1c2c	;r3 As==11
    b4ac:	fe 43 56 1f 	mov.b	#-1,	8022(r14);r3 As==11, 0x1f56(r14)
    b4b0:	c2 4f 2a 1c 	mov.b	r15,	&0x1c2a	
    b4b4:	f2 43 2b 1c 	mov.b	#-1,	&0x1c2b	;r3 As==11
    b4b8:	e2 43 4c 1f 	mov.b	#2,	&0x1f4c	;r3 As==10
    b4bc:	7f 40 03 00 	mov.b	#3,	r15	;#0x0003
    b4c0:	b0 12 f6 4e 	call	#0x4ef6	
    b4c4:	b0 12 38 53 	call	#0x5338	
    b4c8:	0b 93       	tst	r11		
    b4ca:	02 20       	jnz	$+6      	;abs 0xb4d0
    b4cc:	80 00 0c bc 	bra	#0x0bc0c	
    b4d0:	80 00 3c 9c 	bra	#0x09c3c	
    b4d4:	82 43 58 1c 	mov	#0,	&0x1c58	;r3 As==00
    b4d8:	0f 42       	mov	r2,	r15	
    b4da:	32 c2       	dint			
    b4dc:	03 43       	nop			
    b4de:	1a 42 54 1c 	mov	&0x1c54,r10	
    b4e2:	3f f2       	and	#8,	r15	;r2 As==11
    b4e4:	01 24       	jz	$+4      	;abs 0xb4e8
    b4e6:	32 d2       	eint			
    b4e8:	c2 93 53 1c 	tst.b	&0x1c53	
    b4ec:	02 24       	jz	$+6      	;abs 0xb4f2
    b4ee:	3a 40 03 00 	mov	#3,	r10	;#0x0003
    b4f2:	1b 42 5a 1c 	mov	&0x1c5a,r11	
    b4f6:	c2 93 52 1c 	tst.b	&0x1c52	
    b4fa:	02 24       	jz	$+6      	;abs 0xb500
    b4fc:	80 00 0c bc 	bra	#0x0bc0c	
    b500:	5f 4b 0b 00 	mov.b	11(r11),r15	;0x000b(r11)
    b504:	7f 90 07 00 	cmp.b	#7,	r15	;#0x0007
    b508:	06 24       	jz	$+14     	;abs 0xb516
    b50a:	7f 90 90 ff 	cmp.b	#-112,	r15	;#0xff90
    b50e:	02 24       	jz	$+6      	;abs 0xb514
    b510:	80 00 0c bc 	bra	#0x0bc0c	
    b514:	04 3c       	jmp	$+10     	;abs 0xb51e
    b516:	c2 43 74 1c 	mov.b	#0,	&0x1c74	;r3 As==00
    b51a:	80 00 0c bc 	bra	#0x0bc0c	
    b51e:	b0 12 7a 50 	call	#0x507a	
    b522:	0a 93       	tst	r10		
    b524:	16 20       	jnz	$+46     	;abs 0xb552
    b526:	3b 90 e8 20 	cmp	#8424,	r11	;#0x20e8
    b52a:	13 20       	jnz	$+40     	;abs 0xb552
    b52c:	0f 4b       	mov	r11,	r15	
    b52e:	b0 12 b4 4c 	call	#0x4cb4	
    b532:	c2 43 26 21 	mov.b	#0,	&0x2126	;r3 As==00
    b536:	c2 43 27 21 	mov.b	#0,	&0x2127	;r3 As==00
    b53a:	c2 43 2c 21 	mov.b	#0,	&0x212c	;r3 As==00
    b53e:	3c 40 20 00 	mov	#32,	r12	;#0x0020
    b542:	0d 43       	clr	r13		
    b544:	3e 40 00 24 	mov	#9216,	r14	;#0x2400
    b548:	6f 42       	mov.b	#4,	r15	;r2 As==10
    b54a:	b0 12 c8 5a 	call	#0x5ac8	
    b54e:	80 00 0c bc 	bra	#0x0bc0c	
    b552:	3d 40 19 00 	mov	#25,	r13	;#0x0019
    b556:	0e 43       	clr	r14		
    b558:	5f 43       	mov.b	#1,	r15	;r3 As==01
    b55a:	b0 12 66 5e 	call	#0x5e66	
    b55e:	80 00 0c bc 	bra	#0x0bc0c	
    b562:	0f 42       	mov	r2,	r15	
    b564:	32 c2       	dint			
    b566:	03 43       	nop			
    b568:	5d 42 50 1c 	mov.b	&0x1c50,r13	
    b56c:	1b 42 4e 1c 	mov	&0x1c4e,r11	
    b570:	5e 42 4c 1c 	mov.b	&0x1c4c,r14	
    b574:	5a 42 70 1e 	mov.b	&0x1e70,r10	
    b578:	3f f2       	and	#8,	r15	;r2 As==11
    b57a:	01 24       	jz	$+4      	;abs 0xb57e
    b57c:	32 d2       	eint			
    b57e:	4d 93       	tst.b	r13		
    b580:	28 20       	jnz	$+82     	;abs 0xb5d2
    b582:	4f 4e       	mov.b	r14,	r15	
    b584:	7f 50 f4 ff 	add.b	#-12,	r15	;#0xfff4
    b588:	fb 90 89 ff 0b 00 	cmp.b	#-119,	11(r11)	;#0xff89, 0x000b(r11)
    b58e:	21 20       	jnz	$+68     	;abs 0xb5d2
    b590:	7f 90 05 00 	cmp.b	#5,	r15	;#0x0005
    b594:	1e 20       	jnz	$+62     	;abs 0xb5d2
    b596:	b0 12 84 53 	call	#0x5384	
    b59a:	5f 4b 0c 00 	mov.b	12(r11),r15	;0x000c(r11)
    b59e:	8f 10       	swpb	r15		
    b5a0:	5e 4b 0d 00 	mov.b	13(r11),r14	;0x000d(r11)
    b5a4:	0f de       	bis	r14,	r15	
    b5a6:	82 4f 74 1e 	mov	r15,	&0x1e74	
    b5aa:	d2 4b 0e 00 d4 22 	mov.b	14(r11),&0x22d4	;0x000e(r11)
    b5b0:	5e 4b 0f 00 	mov.b	15(r11),r14	;0x000f(r11)
    b5b4:	8e 10       	swpb	r14		
    b5b6:	5d 4b 10 00 	mov.b	16(r11),r13	;0x0010(r11)
    b5ba:	0e dd       	bis	r13,	r14	
    b5bc:	82 4e cc 22 	mov	r14,	&0x22cc	
    b5c0:	0f 93       	tst	r15		
    b5c2:	05 20       	jnz	$+12     	;abs 0xb5ce
    b5c4:	7f 40 0a 00 	mov.b	#10,	r15	;#0x000a
    b5c8:	b0 12 f6 4e 	call	#0x4ef6	
    b5cc:	02 3c       	jmp	$+6      	;abs 0xb5d2
    b5ce:	b0 12 a4 4f 	call	#0x4fa4	
    b5d2:	0f 42       	mov	r2,	r15	
    b5d4:	3f f2       	and	#8,	r15	;r2 As==11
    b5d6:	32 c2       	dint			
    b5d8:	03 43       	nop			
    b5da:	4e 4a       	mov.b	r10,	r14	
    b5dc:	5e 02       	rlam	#1,	r14	
    b5de:	8e 4b 06 1c 	mov	r11,	7174(r14);0x1c06(r14)
    b5e2:	5e 42 5e 1c 	mov.b	&0x1c5e,r14	
    b5e6:	4a 93       	tst.b	r10		
    b5e8:	02 24       	jz	$+6      	;abs 0xb5ee
    b5ea:	6e c2       	bic.b	#4,	r14	;r2 As==10
    b5ec:	01 3c       	jmp	$+4      	;abs 0xb5f0
    b5ee:	6e c3       	bic.b	#2,	r14	;r3 As==10
    b5f0:	c2 4e 5e 1c 	mov.b	r14,	&0x1c5e	
    b5f4:	c2 43 51 1c 	mov.b	#0,	&0x1c51	;r3 As==00
    b5f8:	80 00 34 9c 	bra	#0x09c34	
    b5fc:	1b 42 d0 22 	mov	&0x22d0,r11	
    b600:	5e 4b 0c 00 	mov.b	12(r11),r14	;0x000c(r11)
    b604:	8e 10       	swpb	r14		
    b606:	5f 4b 0d 00 	mov.b	13(r11),r15	;0x000d(r11)
    b60a:	0e df       	bis	r15,	r14	
    b60c:	1f 42 e8 1c 	mov	&0x1ce8,r15	
    b610:	6d 4f       	mov.b	@r15,	r13	
    b612:	8d 10       	swpb	r13		
    b614:	5c 4f 01 00 	mov.b	1(r15),	r12	;0x0001(r15)
    b618:	0d dc       	bis	r12,	r13	
    b61a:	0e 9d       	cmp	r13,	r14	
    b61c:	0e 2c       	jc	$+30     	;abs 0xb63a
    b61e:	c2 93 72 20 	tst.b	&0x2072	
    b622:	03 20       	jnz	$+8      	;abs 0xb62a
    b624:	1d 92 44 1c 	cmp	&0x1c44,r13	
    b628:	08 24       	jz	$+18     	;abs 0xb63a
    b62a:	cf 4e 01 00 	mov.b	r14,	1(r15)	;0x0001(r15)
    b62e:	8e 10       	swpb	r14		
    b630:	cf 4e 00 00 	mov.b	r14,	0(r15)	;0x0000(r15)
    b634:	1f 42 e8 1c 	mov	&0x1ce8,r15	
    b638:	04 3c       	jmp	$+10     	;abs 0xb642
    b63a:	0d 9e       	cmp	r14,	r13	
    b63c:	02 24       	jz	$+6      	;abs 0xb642
    b63e:	80 00 6a b9 	bra	#0x0b96a	
    b642:	df 4b 10 00 04 00 	mov.b	16(r11),4(r15)	;0x0010(r11), 0x0004(r15)
    b648:	1e 42 e8 1c 	mov	&0x1ce8,r14	
    b64c:	6f 4e       	mov.b	@r14,	r15	
    b64e:	8f 10       	swpb	r15		
    b650:	5e 4e 01 00 	mov.b	1(r14),	r14	;0x0001(r14)
    b654:	0f de       	bis	r14,	r15	
    b656:	1f 92 44 1c 	cmp	&0x1c44,r15	
    b65a:	02 2c       	jc	$+6      	;abs 0xb660
    b65c:	c2 43 72 20 	mov.b	#0,	&0x2072	;r3 As==00
    b660:	07 4b       	mov	r11,	r7	
    b662:	37 50 15 00 	add	#21,	r7	;#0x0015
    b666:	0f 47       	mov	r7,	r15	
    b668:	b0 12 3a 4b 	call	#0x4b3a	
    b66c:	81 4e 20 00 	mov	r14,	32(r1)	;0x0020(r1)
    b670:	81 4f 22 00 	mov	r15,	34(r1)	;0x0022(r1)
    b674:	0f 41       	mov	r1,	r15	
    b676:	3f 50 20 00 	add	#32,	r15	;#0x0020
    b67a:	b0 12 2e 61 	call	#0x612e	
    b67e:	04 4b       	mov	r11,	r4	
    b680:	34 50 11 00 	add	#17,	r4	;#0x0011
    b684:	0f 44       	mov	r4,	r15	
    b686:	b0 12 3a 4b 	call	#0x4b3a	
    b68a:	1a 41 20 00 	mov	32(r1),	r10	;0x0020(r1)
    b68e:	1b 41 22 00 	mov	34(r1),	r11	;0x0022(r1)
    b692:	0a 8e       	sub	r14,	r10	
    b694:	0b 7f       	subc	r15,	r11	
    b696:	81 4a 20 00 	mov	r10,	32(r1)	;0x0020(r1)
    b69a:	81 4b 22 00 	mov	r11,	34(r1)	;0x0022(r1)
    b69e:	e2 93 24 20 	cmp.b	#2,	&0x2024	;r3 As==10
    b6a2:	04 2c       	jc	$+10     	;abs 0xb6ac
    b6a4:	b0 12 24 54 	call	#0x5424	
    b6a8:	0f 93       	tst	r15		
    b6aa:	13 20       	jnz	$+40     	;abs 0xb6d2
    b6ac:	3a 50 f4 01 	add	#500,	r10	;#0x01f4
    b6b0:	0b 63       	adc	r11		
    b6b2:	0b 93       	tst	r11		
    b6b4:	03 20       	jnz	$+8      	;abs 0xb6bc
    b6b6:	3a 90 e9 03 	cmp	#1001,	r10	;#0x03e9
    b6ba:	0b 28       	jnc	$+24     	;abs 0xb6d2
    b6bc:	5f 42 48 1c 	mov.b	&0x1c48,r15	
    b6c0:	5f 53       	inc.b	r15		
    b6c2:	c2 4f 48 1c 	mov.b	r15,	&0x1c48	
    b6c6:	7f 90 03 00 	cmp.b	#3,	r15	;#0x0003
    b6ca:	58 28       	jnc	$+178    	;abs 0xb77c
    b6cc:	b0 12 0a 51 	call	#0x510a	
    b6d0:	55 3c       	jmp	$+172    	;abs 0xb77c
    b6d2:	c2 43 a3 23 	mov.b	#0,	&0x23a3	;r3 As==00
    b6d6:	c2 43 48 1c 	mov.b	#0,	&0x1c48	;r3 As==00
    b6da:	38 40 38 20 	mov	#8248,	r8	;#0x2038
    b6de:	46 43       	clr.b	r6		
    b6e0:	75 43       	mov.b	#-1,	r5	;r3 As==11
    b6e2:	0a 43       	clr	r10		
    b6e4:	0b 43       	clr	r11		
    b6e6:	49 43       	clr.b	r9		
    b6e8:	0f 47       	mov	r7,	r15	
    b6ea:	b0 12 3a 4b 	call	#0x4b3a	
    b6ee:	1e 88 02 00 	sub	2(r8),	r14	;0x0002(r8)
    b6f2:	1f 78 04 00 	subc	4(r8),	r15	;0x0004(r8)
    b6f6:	3f 90 ff 7f 	cmp	#32767,	r15	;#0x7fff
    b6fa:	05 28       	jnc	$+12     	;abs 0xb706
    b6fc:	02 20       	jnz	$+6      	;abs 0xb702
    b6fe:	3e 93       	cmp	#-1,	r14	;r3 As==11
    b700:	02 28       	jnc	$+6      	;abs 0xb706
    b702:	c8 43 00 00 	mov.b	#0,	0(r8)	;r3 As==00, 0x0000(r8)
    b706:	c8 93 00 00 	tst.b	0(r8)		;0x0000(r8)
    b70a:	03 24       	jz	$+8      	;abs 0xb712
    b70c:	d2 53 a3 23 	inc.b	&0x23a3	
    b710:	01 3c       	jmp	$+4      	;abs 0xb714
    b712:	45 49       	mov.b	r9,	r5	
    b714:	0f 9b       	cmp	r11,	r15	
    b716:	07 28       	jnc	$+16     	;abs 0xb726
    b718:	0b 9f       	cmp	r15,	r11	
    b71a:	02 28       	jnc	$+6      	;abs 0xb720
    b71c:	0e 9a       	cmp	r10,	r14	
    b71e:	03 28       	jnc	$+8      	;abs 0xb726
    b720:	0a 4e       	mov	r14,	r10	
    b722:	0b 4f       	mov	r15,	r11	
    b724:	46 49       	mov.b	r9,	r6	
    b726:	59 53       	inc.b	r9		
    b728:	38 50 0a 00 	add	#10,	r8	;#0x000a
    b72c:	79 90 05 00 	cmp.b	#5,	r9	;#0x0005
    b730:	db 23       	jnz	$-72     	;abs 0xb6e8
    b732:	75 93       	cmp.b	#-1,	r5	;r3 As==11
    b734:	03 24       	jz	$+8      	;abs 0xb73c
    b736:	d2 53 a3 23 	inc.b	&0x23a3	
    b73a:	46 45       	mov.b	r5,	r6	
    b73c:	86 11       	sxt	r6		
    b73e:	09 46       	mov	r6,	r9	
    b740:	59 02       	rlam	#1,	r9	
    b742:	56 0a       	rlam	#3,	r6	
    b744:	09 56       	add	r6,	r9	
    b746:	39 50 38 20 	add	#8248,	r9	;#0x2038
    b74a:	d9 43 00 00 	mov.b	#1,	0(r9)	;r3 As==01, 0x0000(r9)
    b74e:	0f 47       	mov	r7,	r15	
    b750:	b0 12 3a 4b 	call	#0x4b3a	
    b754:	89 4e 02 00 	mov	r14,	2(r9)	;0x0002(r9)
    b758:	89 4f 04 00 	mov	r15,	4(r9)	;0x0004(r9)
    b75c:	0f 44       	mov	r4,	r15	
    b75e:	b0 12 3a 4b 	call	#0x4b3a	
    b762:	0a 4e       	mov	r14,	r10	
    b764:	0b 4f       	mov	r15,	r11	
    b766:	0f 47       	mov	r7,	r15	
    b768:	b0 12 3a 4b 	call	#0x4b3a	
    b76c:	05 4a       	mov	r10,	r5	
    b76e:	06 4b       	mov	r11,	r6	
    b770:	05 8e       	sub	r14,	r5	
    b772:	06 7f       	subc	r15,	r6	
    b774:	89 45 06 00 	mov	r5,	6(r9)	;0x0006(r9)
    b778:	89 46 08 00 	mov	r6,	8(r9)	;0x0008(r9)
    b77c:	3e 40 38 20 	mov	#8248,	r14	;#0x2038
    b780:	0f 43       	clr	r15		
    b782:	08 3c       	jmp	$+18     	;abs 0xb794
    b784:	1f 53       	inc	r15		
    b786:	3e 50 0a 00 	add	#10,	r14	;#0x000a
    b78a:	3f 90 05 00 	cmp	#5,	r15	;#0x0005
    b78e:	02 20       	jnz	$+6      	;abs 0xb794
    b790:	80 00 6a b9 	bra	#0x0b96a	
    b794:	c1 4f 3c 00 	mov.b	r15,	60(r1)	;0x003c(r1)
    b798:	de 93 00 00 	cmp.b	#1,	0(r14)	;r3 As==01, 0x0000(r14)
    b79c:	f3 23       	jnz	$-24     	;abs 0xb784
    b79e:	0e 4f       	mov	r15,	r14	
    b7a0:	5e 02       	rlam	#1,	r14	
    b7a2:	0d 4f       	mov	r15,	r13	
    b7a4:	5d 0a       	rlam	#3,	r13	
    b7a6:	0e 5d       	add	r13,	r14	
    b7a8:	3e 50 38 20 	add	#8248,	r14	;#0x2038
    b7ac:	91 4e 02 00 46 00 	mov	2(r14),	70(r1)	;0x0002(r14), 0x0046(r1)
    b7b2:	91 4e 04 00 48 00 	mov	4(r14),	72(r1)	;0x0004(r14), 0x0048(r1)
    b7b8:	91 4e 06 00 4a 00 	mov	6(r14),	74(r1)	;0x0006(r14), 0x004a(r1)
    b7be:	91 4e 08 00 4c 00 	mov	8(r14),	76(r1)	;0x0008(r14), 0x004c(r1)
    b7c4:	56 42 a3 23 	mov.b	&0x23a3,r6	
    b7c8:	81 46 26 00 	mov	r6,	38(r1)	;0x0026(r1)
    b7cc:	4f 4f       	mov.b	r15,	r15	
    b7ce:	8f 11       	sxt	r15		
    b7d0:	1f 53       	inc	r15		
    b7d2:	07 4f       	mov	r15,	r7	
    b7d4:	57 02       	rlam	#1,	r7	
    b7d6:	5f 0a       	rlam	#3,	r15	
    b7d8:	07 5f       	add	r15,	r7	
    b7da:	37 50 38 20 	add	#8248,	r7	;#0x2038
    b7de:	81 47 24 00 	mov	r7,	36(r1)	;0x0024(r1)
    b7e2:	08 43       	clr	r8		
    b7e4:	09 43       	clr	r9		
    b7e6:	0a 43       	clr	r10		
    b7e8:	0b 43       	clr	r11		
    b7ea:	04 43       	clr	r4		
    b7ec:	05 43       	clr	r5		
    b7ee:	06 43       	clr	r6		
    b7f0:	07 43       	clr	r7		
    b7f2:	81 43 42 00 	mov	#0,	66(r1)	;r3 As==00, 0x0042(r1)
    b7f6:	81 43 44 00 	mov	#0,	68(r1)	;r3 As==00, 0x0044(r1)
    b7fa:	81 43 3e 00 	mov	#0,	62(r1)	;r3 As==00, 0x003e(r1)
    b7fe:	81 43 40 00 	mov	#0,	64(r1)	;r3 As==00, 0x0040(r1)
    b802:	7a 3c       	jmp	$+246    	;abs 0xb8f8
    b804:	1c 41 24 00 	mov	36(r1),	r12	;0x0024(r1)
    b808:	dc 93 00 00 	cmp.b	#1,	0(r12)	;r3 As==01, 0x0000(r12)
    b80c:	72 20       	jnz	$+230    	;abs 0xb8f2
    b80e:	1d 4c 02 00 	mov	2(r12),	r13	;0x0002(r12)
    b812:	1e 4c 04 00 	mov	4(r12),	r14	;0x0004(r12)
    b816:	1d 81 46 00 	sub	70(r1),	r13	;0x0046(r1)
    b81a:	1e 71 48 00 	subc	72(r1),	r14	;0x0048(r1)
    b81e:	81 4d 28 00 	mov	r13,	40(r1)	;0x0028(r1)
    b822:	81 4e 2a 00 	mov	r14,	42(r1)	;0x002a(r1)
    b826:	1c 41 26 00 	mov	38(r1),	r12	;0x0026(r1)
    b82a:	0d 43       	clr	r13		
    b82c:	1e 41 28 00 	mov	40(r1),	r14	;0x0028(r1)
    b830:	1f 41 2a 00 	mov	42(r1),	r15	;0x002a(r1)
    b834:	b0 12 40 bd 	call	#0xbd40	
    b838:	81 4e 2c 00 	mov	r14,	44(r1)	;0x002c(r1)
    b83c:	81 4f 2e 00 	mov	r15,	46(r1)	;0x002e(r1)
    b840:	1f 41 2e 00 	mov	46(r1),	r15	;0x002e(r1)
    b844:	8f 10       	swpb	r15		
    b846:	8f 11       	sxt	r15		
    b848:	8f 10       	swpb	r15		
    b84a:	8f 11       	sxt	r15		
    b84c:	81 4f 30 00 	mov	r15,	48(r1)	;0x0030(r1)
    b850:	81 4f 32 00 	mov	r15,	50(r1)	;0x0032(r1)
    b854:	14 51 2c 00 	add	44(r1),	r4	;0x002c(r1)
    b858:	15 61 2e 00 	addc	46(r1),	r5	;0x002e(r1)
    b85c:	16 61 30 00 	addc	48(r1),	r6	;0x0030(r1)
    b860:	17 61 32 00 	addc	50(r1),	r7	;0x0032(r1)
    b864:	1c 41 26 00 	mov	38(r1),	r12	;0x0026(r1)
    b868:	0d 43       	clr	r13		
    b86a:	1e 41 28 00 	mov	40(r1),	r14	;0x0028(r1)
    b86e:	1f 41 2a 00 	mov	42(r1),	r15	;0x002a(r1)
    b872:	b0 12 36 bd 	call	#0xbd36	
    b876:	81 5e 3e 00 	add	r14,	62(r1)	;0x003e(r1)
    b87a:	81 6f 40 00 	addc	r15,	64(r1)	;0x0040(r1)
    b87e:	1e 41 24 00 	mov	36(r1),	r14	;0x0024(r1)
    b882:	1c 4e 06 00 	mov	6(r14),	r12	;0x0006(r14)
    b886:	1d 4e 08 00 	mov	8(r14),	r13	;0x0008(r14)
    b88a:	1c 81 4a 00 	sub	74(r1),	r12	;0x004a(r1)
    b88e:	1d 71 4c 00 	subc	76(r1),	r13	;0x004c(r1)
    b892:	81 4c 28 00 	mov	r12,	40(r1)	;0x0028(r1)
    b896:	81 4d 2a 00 	mov	r13,	42(r1)	;0x002a(r1)
    b89a:	1c 41 26 00 	mov	38(r1),	r12	;0x0026(r1)
    b89e:	0d 43       	clr	r13		
    b8a0:	1e 41 28 00 	mov	40(r1),	r14	;0x0028(r1)
    b8a4:	1f 41 2a 00 	mov	42(r1),	r15	;0x002a(r1)
    b8a8:	b0 12 40 bd 	call	#0xbd40	
    b8ac:	81 4e 34 00 	mov	r14,	52(r1)	;0x0034(r1)
    b8b0:	81 4f 36 00 	mov	r15,	54(r1)	;0x0036(r1)
    b8b4:	1f 41 36 00 	mov	54(r1),	r15	;0x0036(r1)
    b8b8:	8f 10       	swpb	r15		
    b8ba:	8f 11       	sxt	r15		
    b8bc:	8f 10       	swpb	r15		
    b8be:	8f 11       	sxt	r15		
    b8c0:	81 4f 38 00 	mov	r15,	56(r1)	;0x0038(r1)
    b8c4:	81 4f 3a 00 	mov	r15,	58(r1)	;0x003a(r1)
    b8c8:	18 51 34 00 	add	52(r1),	r8	;0x0034(r1)
    b8cc:	19 61 36 00 	addc	54(r1),	r9	;0x0036(r1)
    b8d0:	1a 61 38 00 	addc	56(r1),	r10	;0x0038(r1)
    b8d4:	1b 61 3a 00 	addc	58(r1),	r11	;0x003a(r1)
    b8d8:	1c 41 26 00 	mov	38(r1),	r12	;0x0026(r1)
    b8dc:	0d 43       	clr	r13		
    b8de:	1e 41 28 00 	mov	40(r1),	r14	;0x0028(r1)
    b8e2:	1f 41 2a 00 	mov	42(r1),	r15	;0x002a(r1)
    b8e6:	b0 12 82 bd 	call	#0xbd82	
    b8ea:	81 5e 42 00 	add	r14,	66(r1)	;0x0042(r1)
    b8ee:	81 6f 44 00 	addc	r15,	68(r1)	;0x0044(r1)
    b8f2:	b1 50 0a 00 24 00 	add	#10,	36(r1)	;#0x000a, 0x0024(r1)
    b8f8:	d1 53 3c 00 	inc.b	60(r1)		;0x003c(r1)
    b8fc:	f1 90 05 00 3c 00 	cmp.b	#5,	60(r1)	;#0x0005, 0x003c(r1)
    b902:	80 23       	jnz	$-254    	;abs 0xb804
    b904:	14 51 46 00 	add	70(r1),	r4	;0x0046(r1)
    b908:	15 61 48 00 	addc	72(r1),	r5	;0x0048(r1)
    b90c:	18 51 4a 00 	add	74(r1),	r8	;0x004a(r1)
    b910:	19 61 4c 00 	addc	76(r1),	r9	;0x004c(r1)
    b914:	1c 41 26 00 	mov	38(r1),	r12	;0x0026(r1)
    b918:	0d 43       	clr	r13		
    b91a:	1e 41 42 00 	mov	66(r1),	r14	;0x0042(r1)
    b91e:	1f 41 44 00 	mov	68(r1),	r15	;0x0044(r1)
    b922:	b0 12 40 bd 	call	#0xbd40	
    b926:	0e 58       	add	r8,	r14	
    b928:	0f 69       	addc	r9,	r15	
    b92a:	0b 42       	mov	r2,	r11	
    b92c:	32 c2       	dint			
    b92e:	03 43       	nop			
    b930:	82 43 92 1e 	mov	#0,	&0x1e92	;r3 As==00
    b934:	82 43 94 1e 	mov	#0,	&0x1e94	;r3 As==00
    b938:	82 4e d4 1e 	mov	r14,	&0x1ed4	
    b93c:	82 4f d6 1e 	mov	r15,	&0x1ed6	
    b940:	1c 41 26 00 	mov	38(r1),	r12	;0x0026(r1)
    b944:	0d 43       	clr	r13		
    b946:	1e 41 3e 00 	mov	62(r1),	r14	;0x003e(r1)
    b94a:	1f 41 40 00 	mov	64(r1),	r15	;0x0040(r1)
    b94e:	b0 12 40 bd 	call	#0xbd40	
    b952:	0e 54       	add	r4,	r14	
    b954:	0f 65       	addc	r5,	r15	
    b956:	82 4e 98 1c 	mov	r14,	&0x1c98	
    b95a:	82 4f 9a 1c 	mov	r15,	&0x1c9a	
    b95e:	d2 42 a3 23 24 20 	mov.b	&0x23a3,&0x2024	
    b964:	3b f2       	and	#8,	r11	;r2 As==11
    b966:	01 24       	jz	$+4      	;abs 0xb96a
    b968:	32 d2       	eint			
    b96a:	d2 c3 71 1f 	bic.b	#1,	&0x1f71	;r3 As==01
    b96e:	80 00 0c bc 	bra	#0x0bc0c	
    b972:	b0 12 a0 4e 	call	#0x4ea0	
    b976:	0a 4e       	mov	r14,	r10	
    b978:	0b 4f       	mov	r15,	r11	
    b97a:	81 4e 20 00 	mov	r14,	32(r1)	;0x0020(r1)
    b97e:	81 4f 22 00 	mov	r15,	34(r1)	;0x0022(r1)
    b982:	0f 41       	mov	r1,	r15	
    b984:	3f 50 20 00 	add	#32,	r15	;#0x0020
    b988:	b0 12 2e 61 	call	#0x612e	
    b98c:	1e 42 e8 1c 	mov	&0x1ce8,r14	
    b990:	1d 42 44 1c 	mov	&0x1c44,r13	
    b994:	6f 4e       	mov.b	@r14,	r15	
    b996:	8f 10       	swpb	r15		
    b998:	5c 4e 01 00 	mov.b	1(r14),	r12	;0x0001(r14)
    b99c:	0f dc       	bis	r12,	r15	
    b99e:	0f 9d       	cmp	r13,	r15	
    b9a0:	1e 20       	jnz	$+62     	;abs 0xb9de
    b9a2:	0e 4a       	mov	r10,	r14	
    b9a4:	0f 4b       	mov	r11,	r15	
    b9a6:	1e 82 98 1c 	sub	&0x1c98,r14	
    b9aa:	1f 72 9a 1c 	subc	&0x1c9a,r15	
    b9ae:	3f 90 00 20 	cmp	#8192,	r15	;#0x2000
    b9b2:	24 38       	jl	$+74     	;abs 0xb9fc
    b9b4:	0f 42       	mov	r2,	r15	
    b9b6:	32 c2       	dint			
    b9b8:	03 43       	nop			
    b9ba:	82 4a 98 1c 	mov	r10,	&0x1c98	
    b9be:	82 4b 9a 1c 	mov	r11,	&0x1c9a	
    b9c2:	15 41 20 00 	mov	32(r1),	r5	;0x0020(r1)
    b9c6:	16 41 22 00 	mov	34(r1),	r6	;0x0022(r1)
    b9ca:	05 8a       	sub	r10,	r5	
    b9cc:	06 7b       	subc	r11,	r6	
    b9ce:	82 45 d4 1e 	mov	r5,	&0x1ed4	
    b9d2:	82 46 d6 1e 	mov	r6,	&0x1ed6	
    b9d6:	3f f2       	and	#8,	r15	;r2 As==11
    b9d8:	11 24       	jz	$+36     	;abs 0xb9fc
    b9da:	32 d2       	eint			
    b9dc:	0f 3c       	jmp	$+32     	;abs 0xb9fc
    b9de:	f2 90 05 00 72 20 	cmp.b	#5,	&0x2072	;#0x0005
    b9e4:	0b 28       	jnc	$+24     	;abs 0xb9fc
    b9e6:	c2 43 72 20 	mov.b	#0,	&0x2072	;r3 As==00
    b9ea:	ce 4d 01 00 	mov.b	r13,	1(r14)	;0x0001(r14)
    b9ee:	8d 10       	swpb	r13		
    b9f0:	ce 4d 00 00 	mov.b	r13,	0(r14)	;0x0000(r14)
    b9f4:	1f 42 e8 1c 	mov	&0x1ce8,r15	
    b9f8:	df 53 04 00 	inc.b	4(r15)		;0x0004(r15)
    b9fc:	1d 41 20 00 	mov	32(r1),	r13	;0x0020(r1)
    ba00:	1e 41 22 00 	mov	34(r1),	r14	;0x0022(r1)
    ba04:	1f 42 e8 1c 	mov	&0x1ce8,r15	
    ba08:	3f 50 05 00 	add	#5,	r15	;#0x0005
    ba0c:	b0 12 0e 4b 	call	#0x4b0e	
    ba10:	c2 43 da 1c 	mov.b	#0,	&0x1cda	;r3 As==00
    ba14:	e2 43 db 1c 	mov.b	#2,	&0x1cdb	;r3 As==10
    ba18:	f2 90 03 00 24 20 	cmp.b	#3,	&0x2024	;#0x0003
    ba1e:	10 2c       	jc	$+34     	;abs 0xba40
    ba20:	1e 42 e8 1c 	mov	&0x1ce8,r14	
    ba24:	6f 4e       	mov.b	@r14,	r15	
    ba26:	8f 10       	swpb	r15		
    ba28:	5e 4e 01 00 	mov.b	1(r14),	r14	;0x0001(r14)
    ba2c:	0f de       	bis	r14,	r15	
    ba2e:	1f 92 44 1c 	cmp	&0x1c44,r15	
    ba32:	06 24       	jz	$+14     	;abs 0xba40
    ba34:	d2 53 72 20 	inc.b	&0x2072	
    ba38:	e2 c3 71 1f 	bic.b	#2,	&0x1f71	;r3 As==10
    ba3c:	80 00 0c bc 	bra	#0x0bc0c	
    ba40:	1b 15       	pushm	#2,	r11	
    ba42:	7c 40 09 00 	mov.b	#9,	r12	;#0x0009
    ba46:	3d 40 9c 1c 	mov	#7324,	r13	;#0x1c9c
    ba4a:	3e 43       	mov	#-1,	r14	;r3 As==11
    ba4c:	7f 40 3e 00 	mov.b	#62,	r15	;#0x003e
    ba50:	b0 12 f2 6a 	call	#0x6af2	
    ba54:	21 52       	add	#4,	r1	;r2 As==10
    ba56:	0f 93       	tst	r15		
    ba58:	02 20       	jnz	$+6      	;abs 0xba5e
    ba5a:	80 00 0c bc 	bra	#0x0bc0c	
    ba5e:	e2 c3 71 1f 	bic.b	#2,	&0x1f71	;r3 As==10
    ba62:	d4 3c       	jmp	$+426    	;abs 0xbc0c
    ba64:	c2 93 1c 33 	tst.b	&0x331c	
    ba68:	d1 24       	jz	$+420    	;abs 0xbc0c
    ba6a:	3a 40 de 20 	mov	#8414,	r10	;#0x20de
    ba6e:	4b 43       	clr.b	r11		
    ba70:	59 43       	mov.b	#1,	r9	;r3 As==01
    ba72:	5e 42 1c 33 	mov.b	&0x331c,r14	
    ba76:	49 be       	bit.b	r14,	r9	
    ba78:	0c 24       	jz	$+26     	;abs 0xba92
    ba7a:	2f 4a       	mov	@r10,	r15	
    ba7c:	8a 43 00 00 	mov	#0,	0(r10)	;r3 As==00, 0x0000(r10)
    ba80:	4e c9       	bic.b	r9,	r14	
    ba82:	c2 4e 1c 33 	mov.b	r14,	&0x331c	
    ba86:	4b 93       	tst.b	r11		
    ba88:	04 20       	jnz	$+10     	;abs 0xba92
    ba8a:	3e 40 03 00 	mov	#3,	r14	;#0x0003
    ba8e:	b0 12 50 68 	call	#0x6850	
    ba92:	49 59       	rla.b	r9		
    ba94:	5b 53       	inc.b	r11		
    ba96:	2a 53       	incd	r10		
    ba98:	7b 92       	cmp.b	#8,	r11	;r2 As==11
    ba9a:	eb 23       	jnz	$-40     	;abs 0xba72
    ba9c:	b7 3c       	jmp	$+368    	;abs 0xbc0c
    ba9e:	5b 42 03 1c 	mov.b	&0x1c03,r11	
    baa2:	4e 4b       	mov.b	r11,	r14	
    baa4:	5e 02       	rlam	#1,	r14	
    baa6:	3e 50 de 20 	add	#8414,	r14	;#0x20de
    baaa:	2a 4e       	mov	@r14,	r10	
    baac:	8e 43 00 00 	mov	#0,	0(r14)	;r3 As==00, 0x0000(r14)
    bab0:	b0 12 7e 6a 	call	#0x6a7e	
    bab4:	4b 93       	tst.b	r11		
    bab6:	aa 20       	jnz	$+342    	;abs 0xbc0c
    bab8:	1e 43       	mov	#1,	r14	;r3 As==01
    baba:	0f 4a       	mov	r10,	r15	
    babc:	b0 12 50 68 	call	#0x6850	
    bac0:	a5 3c       	jmp	$+332    	;abs 0xbc0c
    bac2:	3d 40 00 02 	mov	#512,	r13	;#0x0200
    bac6:	0e 43       	clr	r14		
    bac8:	7f 40 0f 00 	mov.b	#15,	r15	;#0x000f
    bacc:	b0 12 be 60 	call	#0x60be	
    bad0:	9d 3c       	jmp	$+316    	;abs 0xbc0c
    bad2:	c2 93 76 23 	tst.b	&0x2376	
    bad6:	03 20       	jnz	$+8      	;abs 0xbade
    bad8:	4f 43       	clr.b	r15		
    bada:	b0 12 ee 5d 	call	#0x5dee	
    bade:	1e 42 1e 33 	mov	&0x331e,r14	
    bae2:	c2 93 76 23 	tst.b	&0x2376	
    bae6:	92 20       	jnz	$+294    	;abs 0xbc0c
    bae8:	0f 43       	clr	r15		
    baea:	b0 12 36 69 	call	#0x6936	
    baee:	8e 3c       	jmp	$+286    	;abs 0xbc0c
    baf0:	0f 42       	mov	r2,	r15	
    baf2:	32 c2       	dint			
    baf4:	03 43       	nop			
    baf6:	d2 42 36 20 02 1c 	mov.b	&0x2036,&0x1c02	
    bafc:	e2 43 46 1c 	mov.b	#2,	&0x1c46	;r3 As==10
    bb00:	3f f2       	and	#8,	r15	;r2 As==11
    bb02:	01 24       	jz	$+4      	;abs 0xbb06
    bb04:	32 d2       	eint			
    bb06:	5f 42 02 1c 	mov.b	&0x1c02,r15	
    bb0a:	5f 93       	cmp.b	#1,	r15	;r3 As==01
    bb0c:	08 24       	jz	$+18     	;abs 0xbb1e
    bb0e:	03 28       	jnc	$+8      	;abs 0xbb16
    bb10:	6f 93       	cmp.b	#2,	r15	;r3 As==10
    bb12:	7c 20       	jnz	$+250    	;abs 0xbc0c
    bb14:	08 3c       	jmp	$+18     	;abs 0xbb26
    bb16:	4f 43       	clr.b	r15		
    bb18:	b0 12 9c 9b 	call	#0x9b9c	
    bb1c:	77 3c       	jmp	$+240    	;abs 0xbc0c
    bb1e:	5f 43       	mov.b	#1,	r15	;r3 As==01
    bb20:	b0 12 9c 9b 	call	#0x9b9c	
    bb24:	73 3c       	jmp	$+232    	;abs 0xbc0c
    bb26:	6f 43       	mov.b	#2,	r15	;r3 As==10
    bb28:	b0 12 9c 9b 	call	#0x9b9c	
    bb2c:	6f 3c       	jmp	$+224    	;abs 0xbc0c
    bb2e:	f2 93 01 1c 	cmp.b	#-1,	&0x1c01	;r3 As==11
    bb32:	6c 24       	jz	$+218    	;abs 0xbc0c
    bb34:	c2 93 f8 23 	tst.b	&0x23f8	
    bb38:	03 24       	jz	$+8      	;abs 0xbb40
    bb3a:	3f 40 06 00 	mov	#6,	r15	;#0x0006
    bb3e:	02 3c       	jmp	$+6      	;abs 0xbb44
    bb40:	3f 40 05 00 	mov	#5,	r15	;#0x0005
    bb44:	b0 12 5a 9a 	call	#0x9a5a	
    bb48:	0f 93       	tst	r15		
    bb4a:	03 20       	jnz	$+8      	;abs 0xbb52
    bb4c:	f2 43 01 1c 	mov.b	#-1,	&0x1c01	;r3 As==11
    bb50:	5d 3c       	jmp	$+188    	;abs 0xbc0c
    bb52:	7f 40 2a 00 	mov.b	#42,	r15	;#0x002a
    bb56:	b0 12 f6 4e 	call	#0x4ef6	
    bb5a:	58 3c       	jmp	$+178    	;abs 0xbc0c
    bb5c:	5d 42 00 1c 	mov.b	&0x1c00,r13	
    bb60:	0e 42       	mov	r2,	r14	
    bb62:	32 c2       	dint			
    bb64:	03 43       	nop			
    bb66:	4f 4d       	mov.b	r13,	r15	
    bb68:	5f 02       	rlam	#1,	r15	
    bb6a:	0c 4f       	mov	r15,	r12	
    bb6c:	3c 50 6e 1e 	add	#7790,	r12	;#0x1e6e
    bb70:	8c 43 00 00 	mov	#0,	0(r12)	;r3 As==00, 0x0000(r12)
    bb74:	8f 4c 4e 24 	mov	r12,	9294(r15);0x244e(r15)
    bb78:	3e f2       	and	#8,	r14	;r2 As==11
    bb7a:	01 24       	jz	$+4      	;abs 0xbb7e
    bb7c:	32 d2       	eint			
    bb7e:	d2 43 00 1c 	mov.b	#1,	&0x1c00	;r3 As==01
    bb82:	4d 93       	tst.b	r13		
    bb84:	43 20       	jnz	$+136    	;abs 0xbc0c
    bb86:	5f 43       	mov.b	#1,	r15	;r3 As==01
    bb88:	b0 12 ee 5d 	call	#0x5dee	
    bb8c:	3f 3c       	jmp	$+128    	;abs 0xbc0c
    bb8e:	5d 42 00 1c 	mov.b	&0x1c00,r13	
    bb92:	0e 42       	mov	r2,	r14	
    bb94:	32 c2       	dint			
    bb96:	03 43       	nop			
    bb98:	4c 4d       	mov.b	r13,	r12	
    bb9a:	0f 4c       	mov	r12,	r15	
    bb9c:	5f 02       	rlam	#1,	r15	
    bb9e:	1f 4f 6e 1e 	mov	7790(r15),r15	;0x1e6e(r15)
    bba2:	3e f2       	and	#8,	r14	;r2 As==11
    bba4:	04 24       	jz	$+10     	;abs 0xbbae
    bba6:	32 d2       	eint			
    bba8:	02 3c       	jmp	$+6      	;abs 0xbbae
    bbaa:	1f 4f 02 00 	mov	2(r15),	r15	;0x0002(r15)
    bbae:	0f 93       	tst	r15		
    bbb0:	fc 23       	jnz	$-6      	;abs 0xbbaa
    bbb2:	0f 42       	mov	r2,	r15	
    bbb4:	32 c2       	dint			
    bbb6:	03 43       	nop			
    bbb8:	0e 4c       	mov	r12,	r14	
    bbba:	5e 02       	rlam	#1,	r14	
    bbbc:	0c 4e       	mov	r14,	r12	
    bbbe:	3c 50 6e 1e 	add	#7790,	r12	;#0x1e6e
    bbc2:	8c 43 00 00 	mov	#0,	0(r12)	;r3 As==00, 0x0000(r12)
    bbc6:	8e 4c 4e 24 	mov	r12,	9294(r14);0x244e(r14)
    bbca:	3f f2       	and	#8,	r15	;r2 As==11
    bbcc:	01 24       	jz	$+4      	;abs 0xbbd0
    bbce:	32 d2       	eint			
    bbd0:	d2 43 00 1c 	mov.b	#1,	&0x1c00	;r3 As==01
    bbd4:	4d 93       	tst.b	r13		
    bbd6:	1a 20       	jnz	$+54     	;abs 0xbc0c
    bbd8:	5f 43       	mov.b	#1,	r15	;r3 As==01
    bbda:	b0 12 ee 5d 	call	#0x5dee	
    bbde:	16 3c       	jmp	$+46     	;abs 0xbc0c
    bbe0:	0f 42       	mov	r2,	r15	
    bbe2:	32 c2       	dint			
    bbe4:	03 43       	nop			
    bbe6:	82 43 c0 1f 	mov	#0,	&0x1fc0	;r3 As==00
    bbea:	80 00 32 9c 	bra	#0x09c32	
    bbee:	82 43 58 1c 	mov	#0,	&0x1c58	;r3 As==00
    bbf2:	0c 3c       	jmp	$+26     	;abs 0xbc0c
    bbf4:	3b 40 09 00 	mov	#9,	r11	;#0x0009
    bbf8:	80 00 24 a3 	bra	#0x0a324	
    bbfc:	3b 40 09 00 	mov	#9,	r11	;#0x0009
    bc00:	80 00 44 a8 	bra	#0x0a844	
    bc04:	3b 40 09 00 	mov	#9,	r11	;#0x0009
    bc08:	80 00 96 a8 	bra	#0x0a896	
    bc0c:	31 50 4e 00 	add	#78,	r1	;#0x004e
    bc10:	74 17       	popm	#8,	r11	
    bc12:	30 41       	ret			

0000bc14 <Msp430Adc12ImplP__SingleChannel__singleDataReady>:
    bc14:	0b 12       	push	r11		
    bc16:	5f 93       	cmp.b	#1,	r15	;r3 As==01
    bc18:	0a 24       	jz	$+22     	;abs 0xbc2e
    bc1a:	03 28       	jnc	$+8      	;abs 0xbc22
    bc1c:	6f 93       	cmp.b	#2,	r15	;r3 As==10
    bc1e:	55 20       	jnz	$+172    	;abs 0xbcca
    bc20:	3f 3c       	jmp	$+128    	;abs 0xbca0
    bc22:	c2 93 73 20 	tst.b	&0x2073	
    bc26:	53 20       	jnz	$+168    	;abs 0xbcce
    bc28:	c2 43 76 23 	mov.b	#0,	&0x2376	;r3 As==00
    bc2c:	42 3c       	jmp	$+134    	;abs 0xbcb2
    bc2e:	5f 42 00 1c 	mov.b	&0x1c00,r15	
    bc32:	5f 93       	cmp.b	#1,	r15	;r3 As==01
    bc34:	4a 24       	jz	$+150    	;abs 0xbcca
    bc36:	82 93 22 23 	tst	&0x2322	
    bc3a:	07 20       	jnz	$+16     	;abs 0xbc4a
    bc3c:	b0 12 a0 4e 	call	#0x4ea0	
    bc40:	82 4e 0a 34 	mov	r14,	&0x340a	
    bc44:	82 4f 0c 34 	mov	r15,	&0x340c	
    bc48:	24 3c       	jmp	$+74     	;abs 0xbc92
    bc4a:	1b 42 e6 1c 	mov	&0x1ce6,r11	
    bc4e:	8b 4e 00 00 	mov	r14,	0(r11)	;0x0000(r11)
    bc52:	2b 53       	incd	r11		
    bc54:	82 4b e6 1c 	mov	r11,	&0x1ce6	
    bc58:	1d 42 3e 24 	mov	&0x243e,r13	
    bc5c:	1c 42 22 23 	mov	&0x2322,r12	
    bc60:	0e 4c       	mov	r12,	r14	
    bc62:	5e 02       	rlam	#1,	r14	
    bc64:	0e 5d       	add	r13,	r14	
    bc66:	0b 9e       	cmp	r14,	r11	
    bc68:	18 20       	jnz	$+50     	;abs 0xbc9a
    bc6a:	82 93 c0 1f 	tst	&0x1fc0	
    bc6e:	09 24       	jz	$+20     	;abs 0xbc82
    bc70:	4f 4f       	mov.b	r15,	r15	
    bc72:	5f 02       	rlam	#1,	r15	
    bc74:	8f 43 4e 24 	mov	#0,	9294(r15);r3 As==00, 0x244e(r15)
    bc78:	7f 40 2c 00 	mov.b	#44,	r15	;#0x002c
    bc7c:	b0 12 f6 4e 	call	#0x4ef6	
    bc80:	24 3c       	jmp	$+74     	;abs 0xbcca
    bc82:	82 4c 1a 33 	mov	r12,	&0x331a	
    bc86:	82 4d c0 1f 	mov	r13,	&0x1fc0	
    bc8a:	7f 40 2d 00 	mov.b	#45,	r15	;#0x002d
    bc8e:	b0 12 f6 4e 	call	#0x4ef6	
    bc92:	5f 43       	mov.b	#1,	r15	;r3 As==01
    bc94:	b0 12 6e 65 	call	#0x656e	
    bc98:	18 3c       	jmp	$+50     	;abs 0xbcca
    bc9a:	b0 12 44 65 	call	#0x6544	
    bc9e:	15 3c       	jmp	$+44     	;abs 0xbcca
    bca0:	5f 42 73 20 	mov.b	&0x2073,r15	
    bca4:	4f 93       	tst.b	r15		
    bca6:	03 24       	jz	$+8      	;abs 0xbcae
    bca8:	5f 93       	cmp.b	#1,	r15	;r3 As==01
    bcaa:	11 20       	jnz	$+36     	;abs 0xbcce
    bcac:	07 3c       	jmp	$+16     	;abs 0xbcbc
    bcae:	d2 43 76 23 	mov.b	#1,	&0x2376	;r3 As==01
    bcb2:	82 4e 1e 33 	mov	r14,	&0x331e	
    bcb6:	7f 40 28 00 	mov.b	#40,	r15	;#0x0028
    bcba:	04 3c       	jmp	$+10     	;abs 0xbcc4
    bcbc:	82 4e 26 1c 	mov	r14,	&0x1c26	
    bcc0:	7f 40 10 00 	mov.b	#16,	r15	;#0x0010
    bcc4:	b0 12 f6 4e 	call	#0x4ef6	
    bcc8:	02 3c       	jmp	$+6      	;abs 0xbcce
    bcca:	1f 43       	mov	#1,	r15	;r3 As==01
    bccc:	01 3c       	jmp	$+4      	;abs 0xbcd0
    bcce:	0f 43       	clr	r15		
    bcd0:	3b 41       	pop	r11		
    bcd2:	30 41       	ret			

0000bcd4 <__nesc_atomic_start>:
    bcd4:	0f 42       	mov	r2,	r15	
    bcd6:	32 c2       	dint			
    bcd8:	03 43       	nop			
    bcda:	3f f2       	and	#8,	r15	;r2 As==11
    bcdc:	30 41       	ret			

0000bcde <__nesc_atomic_end>:
    bcde:	0f 93       	tst	r15		
    bce0:	01 24       	jz	$+4      	;abs 0xbce4
    bce2:	32 d2       	eint			
    bce4:	30 41       	ret			

0000bce6 <__udivhi3>:
    bce6:	7c 40 10 00 	mov.b	#16,	r12	;#0x0010
    bcea:	0d 4e       	mov	r14,	r13	
    bcec:	0e 43       	clr	r14		
    bcee:	0f 5f       	rla	r15		
    bcf0:	0e 6e       	rlc	r14		
    bcf2:	0e 9d       	cmp	r13,	r14	
    bcf4:	02 28       	jnc	$+6      	;abs 0xbcfa
    bcf6:	0e 8d       	sub	r13,	r14	
    bcf8:	1f d3       	bis	#1,	r15	;r3 As==01
    bcfa:	1c 83       	dec	r12		
    bcfc:	f8 23       	jnz	$-14     	;abs 0xbcee
    bcfe:	30 41       	ret			

0000bd00 <__umodhi3>:
    bd00:	b0 12 e6 bc 	call	#0xbce6	
    bd04:	0f 4e       	mov	r14,	r15	
    bd06:	30 41       	ret			

0000bd08 <__udivsi3>:
    bd08:	2b 15       	pushm	#3,	r11	
    bd0a:	79 40 20 00 	mov.b	#32,	r9	;#0x0020
    bd0e:	0a 4c       	mov	r12,	r10	
    bd10:	0b 4d       	mov	r13,	r11	
    bd12:	0c 43       	clr	r12		
    bd14:	0d 43       	clr	r13		
    bd16:	0e 5e       	rla	r14		
    bd18:	0f 6f       	rlc	r15		
    bd1a:	0c 6c       	rlc	r12		
    bd1c:	0d 6d       	rlc	r13		
    bd1e:	0d 9b       	cmp	r11,	r13	
    bd20:	06 28       	jnc	$+14     	;abs 0xbd2e
    bd22:	02 20       	jnz	$+6      	;abs 0xbd28
    bd24:	0c 9a       	cmp	r10,	r12	
    bd26:	03 28       	jnc	$+8      	;abs 0xbd2e
    bd28:	0c 8a       	sub	r10,	r12	
    bd2a:	0d 7b       	subc	r11,	r13	
    bd2c:	1e d3       	bis	#1,	r14	;r3 As==01
    bd2e:	19 83       	dec	r9		
    bd30:	f2 23       	jnz	$-26     	;abs 0xbd16
    bd32:	29 17       	popm	#3,	r11	
    bd34:	30 41       	ret			

0000bd36 <__umodsi3>:
    bd36:	b0 12 08 bd 	call	#0xbd08	
    bd3a:	0e 4c       	mov	r12,	r14	
    bd3c:	0f 4d       	mov	r13,	r15	
    bd3e:	30 41       	ret			

0000bd40 <__divsi3>:
    bd40:	0b 12       	push	r11		
    bd42:	0b 43       	clr	r11		
    bd44:	0f 93       	tst	r15		
    bd46:	06 34       	jge	$+14     	;abs 0xbd54
    bd48:	3b 40 03 00 	mov	#3,	r11	;#0x0003
    bd4c:	3e e3       	inv	r14		
    bd4e:	3f e3       	inv	r15		
    bd50:	1e 53       	inc	r14		
    bd52:	0f 63       	adc	r15		
    bd54:	0d 93       	tst	r13		
    bd56:	05 34       	jge	$+12     	;abs 0xbd62
    bd58:	5b e3       	xor.b	#1,	r11	;r3 As==01
    bd5a:	3c e3       	inv	r12		
    bd5c:	3d e3       	inv	r13		
    bd5e:	1c 53       	inc	r12		
    bd60:	0d 63       	adc	r13		
    bd62:	b0 12 08 bd 	call	#0xbd08	
    bd66:	6b b3       	bit.b	#2,	r11	;r3 As==10
    bd68:	04 24       	jz	$+10     	;abs 0xbd72
    bd6a:	3c e3       	inv	r12		
    bd6c:	3d e3       	inv	r13		
    bd6e:	1c 53       	inc	r12		
    bd70:	0d 63       	adc	r13		
    bd72:	5b b3       	bit.b	#1,	r11	;r3 As==01
    bd74:	04 24       	jz	$+10     	;abs 0xbd7e
    bd76:	3e e3       	inv	r14		
    bd78:	3f e3       	inv	r15		
    bd7a:	1e 53       	inc	r14		
    bd7c:	0f 63       	adc	r15		
    bd7e:	3b 41       	pop	r11		
    bd80:	30 41       	ret			

0000bd82 <__modsi3>:
    bd82:	b0 12 40 bd 	call	#0xbd40	
    bd86:	0e 4c       	mov	r12,	r14	
    bd88:	0f 4d       	mov	r13,	r15	
    bd8a:	30 41       	ret			

0000bd8c <__mulsf3>:
    bd8c:	7b 15       	pushm	#8,	r11	
    bd8e:	31 50 de ff 	add	#-34,	r1	;#0xffde
    bd92:	81 4e 1c 00 	mov	r14,	28(r1)	;0x001c(r1)
    bd96:	81 4f 1e 00 	mov	r15,	30(r1)	;0x001e(r1)
    bd9a:	81 4c 18 00 	mov	r12,	24(r1)	;0x0018(r1)
    bd9e:	81 4d 1a 00 	mov	r13,	26(r1)	;0x001a(r1)
    bda2:	0e 41       	mov	r1,	r14	
    bda4:	3e 50 10 00 	add	#16,	r14	;#0x0010
    bda8:	0f 41       	mov	r1,	r15	
    bdaa:	3f 50 1c 00 	add	#28,	r15	;#0x001c
    bdae:	b0 12 60 c4 	call	#0xc460	
    bdb2:	0e 41       	mov	r1,	r14	
    bdb4:	3e 52       	add	#8,	r14	;r2 As==11
    bdb6:	0f 41       	mov	r1,	r15	
    bdb8:	3f 50 18 00 	add	#24,	r15	;#0x0018
    bdbc:	b0 12 60 c4 	call	#0xc460	
    bdc0:	5f 41 10 00 	mov.b	16(r1),	r15	;0x0010(r1)
    bdc4:	6f 93       	cmp.b	#2,	r15	;r3 As==10
    bdc6:	10 2c       	jc	$+34     	;abs 0xbde8
    bdc8:	5f 43       	mov.b	#1,	r15	;r3 As==01
    bdca:	d1 91 09 00 11 00 	cmp.b	9(r1),	17(r1)	;0x0009(r1), 0x0011(r1)
    bdd0:	1e 24       	jz	$+62     	;abs 0xbe0e
    bdd2:	c1 4f 11 00 	mov.b	r15,	17(r1)	;0x0011(r1)
    bdd6:	0f 41       	mov	r1,	r15	
    bdd8:	3f 50 10 00 	add	#16,	r15	;#0x0010
    bddc:	b0 12 98 c2 	call	#0xc298	
    bde0:	31 50 22 00 	add	#34,	r1	;#0x0022
    bde4:	74 17       	popm	#8,	r11	
    bde6:	30 41       	ret			
    bde8:	5e 41 08 00 	mov.b	8(r1),	r14	;0x0008(r1)
    bdec:	6e 93       	cmp.b	#2,	r14	;r3 As==10
    bdee:	13 2c       	jc	$+40     	;abs 0xbe16
    bdf0:	5f 43       	mov.b	#1,	r15	;r3 As==01
    bdf2:	d1 91 09 00 11 00 	cmp.b	9(r1),	17(r1)	;0x0009(r1), 0x0011(r1)
    bdf8:	0c 24       	jz	$+26     	;abs 0xbe12
    bdfa:	c1 4f 09 00 	mov.b	r15,	9(r1)	;0x0009(r1)
    bdfe:	0f 41       	mov	r1,	r15	
    be00:	3f 52       	add	#8,	r15	;r2 As==11
    be02:	b0 12 98 c2 	call	#0xc298	
    be06:	31 50 22 00 	add	#34,	r1	;#0x0022
    be0a:	74 17       	popm	#8,	r11	
    be0c:	30 41       	ret			
    be0e:	4f 43       	clr.b	r15		
    be10:	e0 3f       	jmp	$-62     	;abs 0xbdd2
    be12:	4f 43       	clr.b	r15		
    be14:	f2 3f       	jmp	$-26     	;abs 0xbdfa
    be16:	6f 92       	cmp.b	#4,	r15	;r2 As==10
    be18:	05 20       	jnz	$+12     	;abs 0xbe24
    be1a:	6e 93       	cmp.b	#2,	r14	;r3 As==10
    be1c:	d5 23       	jnz	$-84     	;abs 0xbdc8
    be1e:	3f 40 7c cf 	mov	#-12420,r15	;#0xcf7c
    be22:	dc 3f       	jmp	$-70     	;abs 0xbddc
    be24:	6e 92       	cmp.b	#4,	r14	;r2 As==10
    be26:	03 20       	jnz	$+8      	;abs 0xbe2e
    be28:	6f 93       	cmp.b	#2,	r15	;r3 As==10
    be2a:	f9 27       	jz	$-12     	;abs 0xbe1e
    be2c:	e1 3f       	jmp	$-60     	;abs 0xbdf0
    be2e:	6f 93       	cmp.b	#2,	r15	;r3 As==10
    be30:	cb 27       	jz	$-104    	;abs 0xbdc8
    be32:	6e 93       	cmp.b	#2,	r14	;r3 As==10
    be34:	dd 27       	jz	$-68     	;abs 0xbdf0
    be36:	16 41 14 00 	mov	20(r1),	r6	;0x0014(r1)
    be3a:	17 41 16 00 	mov	22(r1),	r7	;0x0016(r1)
    be3e:	1e 41 0c 00 	mov	12(r1),	r14	;0x000c(r1)
    be42:	1f 41 0e 00 	mov	14(r1),	r15	;0x000e(r1)
    be46:	b1 40 20 00 20 00 	mov	#32,	32(r1)	;#0x0020, 0x0020(r1)
    be4c:	0c 43       	clr	r12		
    be4e:	0d 43       	clr	r13		
    be50:	08 43       	clr	r8		
    be52:	09 43       	clr	r9		
    be54:	0a 43       	clr	r10		
    be56:	0b 43       	clr	r11		
    be58:	08 3c       	jmp	$+18     	;abs 0xbe6a
    be5a:	0e 5e       	rla	r14		
    be5c:	0f 6f       	rlc	r15		
    be5e:	12 c3       	clrc			
    be60:	07 10       	rrc	r7		
    be62:	06 10       	rrc	r6		
    be64:	b1 53 20 00 	add	#-1,	32(r1)	;r3 As==11, 0x0020(r1)
    be68:	1f 24       	jz	$+64     	;abs 0xbea8
    be6a:	04 46       	mov	r6,	r4	
    be6c:	05 47       	mov	r7,	r5	
    be6e:	14 f3       	and	#1,	r4	;r3 As==01
    be70:	05 f3       	and	#0,	r5	;r3 As==00
    be72:	04 93       	tst	r4		
    be74:	02 20       	jnz	$+6      	;abs 0xbe7a
    be76:	05 93       	tst	r5		
    be78:	0d 24       	jz	$+28     	;abs 0xbe94
    be7a:	0a 5e       	add	r14,	r10	
    be7c:	0b 6f       	addc	r15,	r11	
    be7e:	0c 58       	add	r8,	r12	
    be80:	0d 69       	addc	r9,	r13	
    be82:	14 43       	mov	#1,	r4	;r3 As==01
    be84:	05 43       	clr	r5		
    be86:	0b 9f       	cmp	r15,	r11	
    be88:	03 28       	jnc	$+8      	;abs 0xbe90
    be8a:	0b 24       	jz	$+24     	;abs 0xbea2
    be8c:	04 43       	clr	r4		
    be8e:	05 43       	clr	r5		
    be90:	0c 54       	add	r4,	r12	
    be92:	0d 65       	addc	r5,	r13	
    be94:	08 58       	rla	r8		
    be96:	09 69       	rlc	r9		
    be98:	0f 93       	tst	r15		
    be9a:	df 37       	jge	$-64     	;abs 0xbe5a
    be9c:	18 d3       	bis	#1,	r8	;r3 As==01
    be9e:	09 d3       	bis	#0,	r9	;r3 As==00
    bea0:	dc 3f       	jmp	$-70     	;abs 0xbe5a
    bea2:	0a 9e       	cmp	r14,	r10	
    bea4:	f5 2b       	jnc	$-20     	;abs 0xbe90
    bea6:	f2 3f       	jmp	$-26     	;abs 0xbe8c
    bea8:	0e 4d       	mov	r13,	r14	
    beaa:	19 41 12 00 	mov	18(r1),	r9	;0x0012(r1)
    beae:	19 51 0a 00 	add	10(r1),	r9	;0x000a(r1)
    beb2:	0f 49       	mov	r9,	r15	
    beb4:	2f 53       	incd	r15		
    beb6:	81 4f 02 00 	mov	r15,	2(r1)	;0x0002(r1)
    beba:	5f 43       	mov.b	#1,	r15	;r3 As==01
    bebc:	d1 91 09 00 11 00 	cmp.b	9(r1),	17(r1)	;0x0009(r1), 0x0011(r1)
    bec2:	45 24       	jz	$+140    	;abs 0xbf4e
    bec4:	c1 4f 01 00 	mov.b	r15,	1(r1)	;0x0001(r1)
    bec8:	0e 93       	tst	r14		
    beca:	27 38       	jl	$+80     	;abs 0xbf1a
    becc:	3d 90 00 40 	cmp	#16384,	r13	;#0x4000
    bed0:	10 2c       	jc	$+34     	;abs 0xbef2
    bed2:	1f 41 02 00 	mov	2(r1),	r15	;0x0002(r1)
    bed6:	3f 53       	add	#-1,	r15	;r3 As==11
    bed8:	0e 4f       	mov	r15,	r14	
    beda:	0c 5c       	rla	r12		
    bedc:	0d 6d       	rlc	r13		
    bede:	0b 93       	tst	r11		
    bee0:	19 38       	jl	$+52     	;abs 0xbf14
    bee2:	0a 5a       	rla	r10		
    bee4:	0b 6b       	rlc	r11		
    bee6:	3f 53       	add	#-1,	r15	;r3 As==11
    bee8:	3d 90 00 40 	cmp	#16384,	r13	;#0x4000
    beec:	f5 2b       	jnc	$-20     	;abs 0xbed8
    beee:	81 4e 02 00 	mov	r14,	2(r1)	;0x0002(r1)
    bef2:	0e 4c       	mov	r12,	r14	
    bef4:	0f 4d       	mov	r13,	r15	
    bef6:	3e f0 7f 00 	and	#127,	r14	;#0x007f
    befa:	0f f3       	and	#0,	r15	;r3 As==00
    befc:	3e 90 40 00 	cmp	#64,	r14	;#0x0040
    bf00:	28 24       	jz	$+82     	;abs 0xbf52
    bf02:	81 4c 04 00 	mov	r12,	4(r1)	;0x0004(r1)
    bf06:	81 4d 06 00 	mov	r13,	6(r1)	;0x0006(r1)
    bf0a:	f1 40 03 00 00 00 	mov.b	#3,	0(r1)	;#0x0003, 0x0000(r1)
    bf10:	0f 41       	mov	r1,	r15	
    bf12:	64 3f       	jmp	$-310    	;abs 0xbddc
    bf14:	1c d3       	bis	#1,	r12	;r3 As==01
    bf16:	0d d3       	bis	#0,	r13	;r3 As==00
    bf18:	e4 3f       	jmp	$-54     	;abs 0xbee2
    bf1a:	39 50 03 00 	add	#3,	r9	;#0x0003
    bf1e:	08 49       	mov	r9,	r8	
    bf20:	0e 4c       	mov	r12,	r14	
    bf22:	0f 4d       	mov	r13,	r15	
    bf24:	1e f3       	and	#1,	r14	;r3 As==01
    bf26:	0f f3       	and	#0,	r15	;r3 As==00
    bf28:	0e 93       	tst	r14		
    bf2a:	02 20       	jnz	$+6      	;abs 0xbf30
    bf2c:	0f 93       	tst	r15		
    bf2e:	06 24       	jz	$+14     	;abs 0xbf3c
    bf30:	12 c3       	clrc			
    bf32:	0b 10       	rrc	r11		
    bf34:	0a 10       	rrc	r10		
    bf36:	0a d3       	bis	#0,	r10	;r3 As==00
    bf38:	3b d0 00 80 	bis	#-32768,r11	;#0x8000
    bf3c:	12 c3       	clrc			
    bf3e:	0d 10       	rrc	r13		
    bf40:	0c 10       	rrc	r12		
    bf42:	19 53       	inc	r9		
    bf44:	0d 93       	tst	r13		
    bf46:	eb 3b       	jl	$-40     	;abs 0xbf1e
    bf48:	81 48 02 00 	mov	r8,	2(r1)	;0x0002(r1)
    bf4c:	bf 3f       	jmp	$-128    	;abs 0xbecc
    bf4e:	4f 43       	clr.b	r15		
    bf50:	b9 3f       	jmp	$-140    	;abs 0xbec4
    bf52:	0f 93       	tst	r15		
    bf54:	d6 23       	jnz	$-82     	;abs 0xbf02
    bf56:	0e 4c       	mov	r12,	r14	
    bf58:	0f 4d       	mov	r13,	r15	
    bf5a:	3e f0 80 00 	and	#128,	r14	;#0x0080
    bf5e:	0f f3       	and	#0,	r15	;r3 As==00
    bf60:	0e 93       	tst	r14		
    bf62:	cf 23       	jnz	$-96     	;abs 0xbf02
    bf64:	0f 93       	tst	r15		
    bf66:	cd 23       	jnz	$-100    	;abs 0xbf02
    bf68:	0a 93       	tst	r10		
    bf6a:	02 20       	jnz	$+6      	;abs 0xbf70
    bf6c:	0b 93       	tst	r11		
    bf6e:	c9 27       	jz	$-108    	;abs 0xbf02
    bf70:	3c 50 40 00 	add	#64,	r12	;#0x0040
    bf74:	0d 63       	adc	r13		
    bf76:	3c f0 80 ff 	and	#-128,	r12	;#0xff80
    bf7a:	3d f3       	and	#-1,	r13	;r3 As==11
    bf7c:	c2 3f       	jmp	$-122    	;abs 0xbf02

0000bf7e <__nesf2>:
    bf7e:	31 50 e8 ff 	add	#-24,	r1	;#0xffe8
    bf82:	81 4e 14 00 	mov	r14,	20(r1)	;0x0014(r1)
    bf86:	81 4f 16 00 	mov	r15,	22(r1)	;0x0016(r1)
    bf8a:	81 4c 10 00 	mov	r12,	16(r1)	;0x0010(r1)
    bf8e:	81 4d 12 00 	mov	r13,	18(r1)	;0x0012(r1)
    bf92:	0e 41       	mov	r1,	r14	
    bf94:	3e 52       	add	#8,	r14	;r2 As==11
    bf96:	0f 41       	mov	r1,	r15	
    bf98:	3f 50 14 00 	add	#20,	r15	;#0x0014
    bf9c:	b0 12 60 c4 	call	#0xc460	
    bfa0:	0e 41       	mov	r1,	r14	
    bfa2:	0f 41       	mov	r1,	r15	
    bfa4:	3f 50 10 00 	add	#16,	r15	;#0x0010
    bfa8:	b0 12 60 c4 	call	#0xc460	
    bfac:	e1 93 08 00 	cmp.b	#2,	8(r1)	;r3 As==10, 0x0008(r1)
    bfb0:	0b 28       	jnc	$+24     	;abs 0xbfc8
    bfb2:	e1 93 00 00 	cmp.b	#2,	0(r1)	;r3 As==10, 0x0000(r1)
    bfb6:	08 28       	jnc	$+18     	;abs 0xbfc8
    bfb8:	0e 41       	mov	r1,	r14	
    bfba:	0f 41       	mov	r1,	r15	
    bfbc:	3f 52       	add	#8,	r15	;r2 As==11
    bfbe:	b0 12 6c c5 	call	#0xc56c	
    bfc2:	31 50 18 00 	add	#24,	r1	;#0x0018
    bfc6:	30 41       	ret			
    bfc8:	1f 43       	mov	#1,	r15	;r3 As==01
    bfca:	fb 3f       	jmp	$-8      	;abs 0xbfc2

0000bfcc <__gtsf2>:
    bfcc:	31 50 e8 ff 	add	#-24,	r1	;#0xffe8
    bfd0:	81 4e 14 00 	mov	r14,	20(r1)	;0x0014(r1)
    bfd4:	81 4f 16 00 	mov	r15,	22(r1)	;0x0016(r1)
    bfd8:	81 4c 10 00 	mov	r12,	16(r1)	;0x0010(r1)
    bfdc:	81 4d 12 00 	mov	r13,	18(r1)	;0x0012(r1)
    bfe0:	0e 41       	mov	r1,	r14	
    bfe2:	3e 52       	add	#8,	r14	;r2 As==11
    bfe4:	0f 41       	mov	r1,	r15	
    bfe6:	3f 50 14 00 	add	#20,	r15	;#0x0014
    bfea:	b0 12 60 c4 	call	#0xc460	
    bfee:	0e 41       	mov	r1,	r14	
    bff0:	0f 41       	mov	r1,	r15	
    bff2:	3f 50 10 00 	add	#16,	r15	;#0x0010
    bff6:	b0 12 60 c4 	call	#0xc460	
    bffa:	e1 93 08 00 	cmp.b	#2,	8(r1)	;r3 As==10, 0x0008(r1)
    bffe:	0b 28       	jnc	$+24     	;abs 0xc016
    c000:	e1 93 00 00 	cmp.b	#2,	0(r1)	;r3 As==10, 0x0000(r1)
    c004:	08 28       	jnc	$+18     	;abs 0xc016
    c006:	0e 41       	mov	r1,	r14	
    c008:	0f 41       	mov	r1,	r15	
    c00a:	3f 52       	add	#8,	r15	;r2 As==11
    c00c:	b0 12 6c c5 	call	#0xc56c	
    c010:	31 50 18 00 	add	#24,	r1	;#0x0018
    c014:	30 41       	ret			
    c016:	3f 43       	mov	#-1,	r15	;r3 As==11
    c018:	fb 3f       	jmp	$-8      	;abs 0xc010

0000c01a <__floatsisf>:
    c01a:	1b 15       	pushm	#2,	r11	
    c01c:	31 82       	sub	#8,	r1	;r2 As==11
    c01e:	f1 40 03 00 00 00 	mov.b	#3,	0(r1)	;#0x0003, 0x0000(r1)
    c024:	0d 4f       	mov	r15,	r13	
    c026:	0d 5d       	rla	r13		
    c028:	0d 43       	clr	r13		
    c02a:	0d 6d       	rlc	r13		
    c02c:	4c 4d       	mov.b	r13,	r12	
    c02e:	c1 4d 01 00 	mov.b	r13,	1(r1)	;0x0001(r1)
    c032:	0e 93       	tst	r14		
    c034:	0a 20       	jnz	$+22     	;abs 0xc04a
    c036:	0f 93       	tst	r15		
    c038:	08 20       	jnz	$+18     	;abs 0xc04a
    c03a:	e1 43 00 00 	mov.b	#2,	0(r1)	;r3 As==10, 0x0000(r1)
    c03e:	0f 41       	mov	r1,	r15	
    c040:	b0 12 98 c2 	call	#0xc298	
    c044:	31 52       	add	#8,	r1	;r2 As==11
    c046:	1a 17       	popm	#2,	r11	
    c048:	30 41       	ret			
    c04a:	b1 40 1e 00 02 00 	mov	#30,	2(r1)	;#0x001e, 0x0002(r1)
    c050:	4c 93       	tst.b	r12		
    c052:	17 20       	jnz	$+48     	;abs 0xc082
    c054:	0a 4e       	mov	r14,	r10	
    c056:	0b 4f       	mov	r15,	r11	
    c058:	0e 4a       	mov	r10,	r14	
    c05a:	0f 4b       	mov	r11,	r15	
    c05c:	b0 12 2e c2 	call	#0xc22e	
    c060:	3f 53       	add	#-1,	r15	;r3 As==11
    c062:	1f 93       	cmp	#1,	r15	;r3 As==01
    c064:	27 38       	jl	$+80     	;abs 0xc0b4
    c066:	4e 4f       	mov.b	r15,	r14	
    c068:	7e f0 1f 00 	and.b	#31,	r14	;#0x001f
    c06c:	81 4a 04 00 	mov	r10,	4(r1)	;0x0004(r1)
    c070:	81 4b 06 00 	mov	r11,	6(r1)	;0x0006(r1)
    c074:	0f 20       	jnz	$+32     	;abs 0xc094
    c076:	3e 40 1e 00 	mov	#30,	r14	;#0x001e
    c07a:	0e 8f       	sub	r15,	r14	
    c07c:	81 4e 02 00 	mov	r14,	2(r1)	;0x0002(r1)
    c080:	de 3f       	jmp	$-66     	;abs 0xc03e
    c082:	0e 93       	tst	r14		
    c084:	10 24       	jz	$+34     	;abs 0xc0a6
    c086:	0a 4e       	mov	r14,	r10	
    c088:	0b 4f       	mov	r15,	r11	
    c08a:	3a e3       	inv	r10		
    c08c:	3b e3       	inv	r11		
    c08e:	1a 53       	inc	r10		
    c090:	0b 63       	adc	r11		
    c092:	e2 3f       	jmp	$-58     	;abs 0xc058
    c094:	91 51 04 00 04 00 	rla	4(r1)		;0x0004(r1)
    c09a:	91 61 06 00 06 00 	rlc	6(r1)		;0x0006(r1)
    c0a0:	7e 53       	add.b	#-1,	r14	;r3 As==11
    c0a2:	f8 23       	jnz	$-14     	;abs 0xc094
    c0a4:	e8 3f       	jmp	$-46     	;abs 0xc076
    c0a6:	3f 90 00 80 	cmp	#-32768,r15	;#0x8000
    c0aa:	ed 23       	jnz	$-36     	;abs 0xc086
    c0ac:	0e 43       	clr	r14		
    c0ae:	3f 40 00 cf 	mov	#-12544,r15	;#0xcf00
    c0b2:	c8 3f       	jmp	$-110    	;abs 0xc044
    c0b4:	81 4a 04 00 	mov	r10,	4(r1)	;0x0004(r1)
    c0b8:	81 4b 06 00 	mov	r11,	6(r1)	;0x0006(r1)
    c0bc:	c0 3f       	jmp	$-126    	;abs 0xc03e

0000c0be <__fixsfsi>:
    c0be:	31 50 f4 ff 	add	#-12,	r1	;#0xfff4
    c0c2:	81 4e 08 00 	mov	r14,	8(r1)	;0x0008(r1)
    c0c6:	81 4f 0a 00 	mov	r15,	10(r1)	;0x000a(r1)
    c0ca:	0e 41       	mov	r1,	r14	
    c0cc:	0f 41       	mov	r1,	r15	
    c0ce:	3f 52       	add	#8,	r15	;r2 As==11
    c0d0:	b0 12 60 c4 	call	#0xc460	
    c0d4:	6f 41       	mov.b	@r1,	r15	
    c0d6:	6f 93       	cmp.b	#2,	r15	;r3 As==10
    c0d8:	27 24       	jz	$+80     	;abs 0xc128
    c0da:	26 28       	jnc	$+78     	;abs 0xc128
    c0dc:	6f 92       	cmp.b	#4,	r15	;r2 As==10
    c0de:	07 24       	jz	$+16     	;abs 0xc0ee
    c0e0:	1f 41 02 00 	mov	2(r1),	r15	;0x0002(r1)
    c0e4:	0f 93       	tst	r15		
    c0e6:	20 38       	jl	$+66     	;abs 0xc128
    c0e8:	3f 90 1f 00 	cmp	#31,	r15	;#0x001f
    c0ec:	09 38       	jl	$+20     	;abs 0xc100
    c0ee:	c1 93 01 00 	tst.b	1(r1)		;0x0001(r1)
    c0f2:	25 20       	jnz	$+76     	;abs 0xc13e
    c0f4:	3e 43       	mov	#-1,	r14	;r3 As==11
    c0f6:	3f 40 ff 7f 	mov	#32767,	r15	;#0x7fff
    c0fa:	31 50 0c 00 	add	#12,	r1	;#0x000c
    c0fe:	30 41       	ret			
    c100:	3d 40 1e 00 	mov	#30,	r13	;#0x001e
    c104:	4d 8f       	sub.b	r15,	r13	
    c106:	7d f0 1f 00 	and.b	#31,	r13	;#0x001f
    c10a:	1e 41 04 00 	mov	4(r1),	r14	;0x0004(r1)
    c10e:	1f 41 06 00 	mov	6(r1),	r15	;0x0006(r1)
    c112:	0f 20       	jnz	$+32     	;abs 0xc132
    c114:	c1 93 01 00 	tst.b	1(r1)		;0x0001(r1)
    c118:	f0 27       	jz	$-30     	;abs 0xc0fa
    c11a:	3e e3       	inv	r14		
    c11c:	3f e3       	inv	r15		
    c11e:	1e 53       	inc	r14		
    c120:	0f 63       	adc	r15		
    c122:	31 50 0c 00 	add	#12,	r1	;#0x000c
    c126:	30 41       	ret			
    c128:	0e 43       	clr	r14		
    c12a:	0f 43       	clr	r15		
    c12c:	31 50 0c 00 	add	#12,	r1	;#0x000c
    c130:	30 41       	ret			
    c132:	12 c3       	clrc			
    c134:	0f 10       	rrc	r15		
    c136:	0e 10       	rrc	r14		
    c138:	7d 53       	add.b	#-1,	r13	;r3 As==11
    c13a:	fb 23       	jnz	$-8      	;abs 0xc132
    c13c:	eb 3f       	jmp	$-40     	;abs 0xc114
    c13e:	0e 43       	clr	r14		
    c140:	3f 40 00 80 	mov	#-32768,r15	;#0x8000
    c144:	31 50 0c 00 	add	#12,	r1	;#0x000c
    c148:	30 41       	ret			

0000c14a <__floatunsisf>:
    c14a:	3b 15       	pushm	#4,	r11	
    c14c:	31 82       	sub	#8,	r1	;r2 As==11
    c14e:	0a 4e       	mov	r14,	r10	
    c150:	0b 4f       	mov	r15,	r11	
    c152:	c1 43 01 00 	mov.b	#0,	1(r1)	;r3 As==00, 0x0001(r1)
    c156:	0e 93       	tst	r14		
    c158:	0a 20       	jnz	$+22     	;abs 0xc16e
    c15a:	0b 93       	tst	r11		
    c15c:	08 20       	jnz	$+18     	;abs 0xc16e
    c15e:	e1 43 00 00 	mov.b	#2,	0(r1)	;r3 As==10, 0x0000(r1)
    c162:	0f 41       	mov	r1,	r15	
    c164:	b0 12 98 c2 	call	#0xc298	
    c168:	31 52       	add	#8,	r1	;r2 As==11
    c16a:	38 17       	popm	#4,	r11	
    c16c:	30 41       	ret			
    c16e:	f1 40 03 00 00 00 	mov.b	#3,	0(r1)	;#0x0003, 0x0000(r1)
    c174:	b1 40 1e 00 02 00 	mov	#30,	2(r1)	;#0x001e, 0x0002(r1)
    c17a:	0e 4a       	mov	r10,	r14	
    c17c:	0f 4b       	mov	r11,	r15	
    c17e:	b0 12 2e c2 	call	#0xc22e	
    c182:	09 4f       	mov	r15,	r9	
    c184:	39 53       	add	#-1,	r9	;r3 As==11
    c186:	09 93       	tst	r9		
    c188:	1d 38       	jl	$+60     	;abs 0xc1c4
    c18a:	46 24       	jz	$+142    	;abs 0xc218
    c18c:	4f 49       	mov.b	r9,	r15	
    c18e:	7f f0 1f 00 	and.b	#31,	r15	;#0x001f
    c192:	81 4a 04 00 	mov	r10,	4(r1)	;0x0004(r1)
    c196:	81 4b 06 00 	mov	r11,	6(r1)	;0x0006(r1)
    c19a:	0b 20       	jnz	$+24     	;abs 0xc1b2
    c19c:	3f 40 1e 00 	mov	#30,	r15	;#0x001e
    c1a0:	0f 89       	sub	r9,	r15	
    c1a2:	81 4f 02 00 	mov	r15,	2(r1)	;0x0002(r1)
    c1a6:	0f 41       	mov	r1,	r15	
    c1a8:	b0 12 98 c2 	call	#0xc298	
    c1ac:	31 52       	add	#8,	r1	;r2 As==11
    c1ae:	38 17       	popm	#4,	r11	
    c1b0:	30 41       	ret			
    c1b2:	91 51 04 00 04 00 	rla	4(r1)		;0x0004(r1)
    c1b8:	91 61 06 00 06 00 	rlc	6(r1)		;0x0006(r1)
    c1be:	7f 53       	add.b	#-1,	r15	;r3 As==11
    c1c0:	f8 23       	jnz	$-14     	;abs 0xc1b2
    c1c2:	ec 3f       	jmp	$-38     	;abs 0xc19c
    c1c4:	08 49       	mov	r9,	r8	
    c1c6:	38 e3       	inv	r8		
    c1c8:	18 53       	inc	r8		
    c1ca:	4d 48       	mov.b	r8,	r13	
    c1cc:	7d f0 1f 00 	and.b	#31,	r13	;#0x001f
    c1d0:	1e 43       	mov	#1,	r14	;r3 As==01
    c1d2:	0f 43       	clr	r15		
    c1d4:	04 24       	jz	$+10     	;abs 0xc1de
    c1d6:	0e 5e       	rla	r14		
    c1d8:	0f 6f       	rlc	r15		
    c1da:	7d 53       	add.b	#-1,	r13	;r3 As==11
    c1dc:	fc 23       	jnz	$-6      	;abs 0xc1d6
    c1de:	3e 53       	add	#-1,	r14	;r3 As==11
    c1e0:	3f 63       	addc	#-1,	r15	;r3 As==11
    c1e2:	0e fa       	and	r10,	r14	
    c1e4:	0f fb       	and	r11,	r15	
    c1e6:	1c 43       	mov	#1,	r12	;r3 As==01
    c1e8:	0d 43       	clr	r13		
    c1ea:	0e 93       	tst	r14		
    c1ec:	04 20       	jnz	$+10     	;abs 0xc1f6
    c1ee:	0f 93       	tst	r15		
    c1f0:	02 20       	jnz	$+6      	;abs 0xc1f6
    c1f2:	0c 43       	clr	r12		
    c1f4:	0d 43       	clr	r13		
    c1f6:	78 f0 1f 00 	and.b	#31,	r8	;#0x001f
    c1fa:	13 20       	jnz	$+40     	;abs 0xc222
    c1fc:	0e 4c       	mov	r12,	r14	
    c1fe:	0f 4d       	mov	r13,	r15	
    c200:	0e da       	bis	r10,	r14	
    c202:	0f db       	bis	r11,	r15	
    c204:	81 4e 04 00 	mov	r14,	4(r1)	;0x0004(r1)
    c208:	81 4f 06 00 	mov	r15,	6(r1)	;0x0006(r1)
    c20c:	3f 40 1e 00 	mov	#30,	r15	;#0x001e
    c210:	0f 89       	sub	r9,	r15	
    c212:	81 4f 02 00 	mov	r15,	2(r1)	;0x0002(r1)
    c216:	a5 3f       	jmp	$-180    	;abs 0xc162
    c218:	81 4a 04 00 	mov	r10,	4(r1)	;0x0004(r1)
    c21c:	81 4b 06 00 	mov	r11,	6(r1)	;0x0006(r1)
    c220:	a0 3f       	jmp	$-190    	;abs 0xc162
    c222:	12 c3       	clrc			
    c224:	0b 10       	rrc	r11		
    c226:	0a 10       	rrc	r10		
    c228:	78 53       	add.b	#-1,	r8	;r3 As==11
    c22a:	fb 23       	jnz	$-8      	;abs 0xc222
    c22c:	e7 3f       	jmp	$-48     	;abs 0xc1fc

0000c22e <__clzsi2>:
    c22e:	2b 15       	pushm	#3,	r11	
    c230:	1f 93       	cmp	#1,	r15	;r3 As==01
    c232:	15 2c       	jc	$+44     	;abs 0xc25e
    c234:	3e 90 00 01 	cmp	#256,	r14	;#0x0100
    c238:	2a 28       	jnc	$+86     	;abs 0xc28e
    c23a:	3a 40 18 00 	mov	#24,	r10	;#0x0018
    c23e:	0b 43       	clr	r11		
    c240:	39 42       	mov	#8,	r9	;r2 As==11
    c242:	49 49       	mov.b	r9,	r9	
    c244:	0c 4e       	mov	r14,	r12	
    c246:	0d 4f       	mov	r15,	r13	
    c248:	49 93       	tst.b	r9		
    c24a:	15 20       	jnz	$+44     	;abs 0xc276
    c24c:	3c 50 84 cf 	add	#-12412,r12	;#0xcf84
    c250:	6e 4c       	mov.b	@r12,	r14	
    c252:	0f 43       	clr	r15		
    c254:	0a 8e       	sub	r14,	r10	
    c256:	0b 7f       	subc	r15,	r11	
    c258:	0f 4a       	mov	r10,	r15	
    c25a:	29 17       	popm	#3,	r11	
    c25c:	30 41       	ret			
    c25e:	3f 90 00 01 	cmp	#256,	r15	;#0x0100
    c262:	0f 28       	jnc	$+32     	;abs 0xc282
    c264:	3a 42       	mov	#8,	r10	;r2 As==11
    c266:	0b 43       	clr	r11		
    c268:	39 40 18 00 	mov	#24,	r9	;#0x0018
    c26c:	49 49       	mov.b	r9,	r9	
    c26e:	0c 4e       	mov	r14,	r12	
    c270:	0d 4f       	mov	r15,	r13	
    c272:	49 93       	tst.b	r9		
    c274:	eb 27       	jz	$-40     	;abs 0xc24c
    c276:	12 c3       	clrc			
    c278:	0d 10       	rrc	r13		
    c27a:	0c 10       	rrc	r12		
    c27c:	79 53       	add.b	#-1,	r9	;r3 As==11
    c27e:	fb 23       	jnz	$-8      	;abs 0xc276
    c280:	e5 3f       	jmp	$-52     	;abs 0xc24c
    c282:	3a 40 10 00 	mov	#16,	r10	;#0x0010
    c286:	0b 43       	clr	r11		
    c288:	39 40 10 00 	mov	#16,	r9	;#0x0010
    c28c:	ef 3f       	jmp	$-32     	;abs 0xc26c
    c28e:	3a 40 20 00 	mov	#32,	r10	;#0x0020
    c292:	0b 43       	clr	r11		
    c294:	09 43       	clr	r9		
    c296:	ea 3f       	jmp	$-42     	;abs 0xc26c

0000c298 <__pack_f>:
    c298:	3b 15       	pushm	#4,	r11	
    c29a:	0d 4f       	mov	r15,	r13	
    c29c:	1e 4f 04 00 	mov	4(r15),	r14	;0x0004(r15)
    c2a0:	1f 4f 06 00 	mov	6(r15),	r15	;0x0006(r15)
    c2a4:	59 4d 01 00 	mov.b	1(r13),	r9	;0x0001(r13)
    c2a8:	6c 4d       	mov.b	@r13,	r12	
    c2aa:	6c 93       	cmp.b	#2,	r12	;r3 As==10
    c2ac:	68 28       	jnc	$+210    	;abs 0xc37e
    c2ae:	6c 92       	cmp.b	#4,	r12	;r2 As==10
    c2b0:	62 24       	jz	$+198    	;abs 0xc376
    c2b2:	6c 93       	cmp.b	#2,	r12	;r3 As==10
    c2b4:	36 24       	jz	$+110    	;abs 0xc322
    c2b6:	0e 93       	tst	r14		
    c2b8:	32 24       	jz	$+102    	;abs 0xc31e
    c2ba:	1b 4d 02 00 	mov	2(r13),	r11	;0x0002(r13)
    c2be:	3b 90 82 ff 	cmp	#-126,	r11	;#0xff82
    c2c2:	65 38       	jl	$+204    	;abs 0xc38e
    c2c4:	3b 90 80 00 	cmp	#128,	r11	;#0x0080
    c2c8:	56 34       	jge	$+174    	;abs 0xc376
    c2ca:	0c 4e       	mov	r14,	r12	
    c2cc:	0d 4f       	mov	r15,	r13	
    c2ce:	3c f0 7f 00 	and	#127,	r12	;#0x007f
    c2d2:	0d f3       	and	#0,	r13	;r3 As==00
    c2d4:	3c 90 40 00 	cmp	#64,	r12	;#0x0040
    c2d8:	38 24       	jz	$+114    	;abs 0xc34a
    c2da:	3e 50 3f 00 	add	#63,	r14	;#0x003f
    c2de:	0f 63       	adc	r15		
    c2e0:	0f 93       	tst	r15		
    c2e2:	42 38       	jl	$+134    	;abs 0xc368
    c2e4:	0c 4b       	mov	r11,	r12	
    c2e6:	3c 50 7f 00 	add	#127,	r12	;#0x007f
    c2ea:	12 c3       	clrc			
    c2ec:	0f 10       	rrc	r15		
    c2ee:	0e 10       	rrc	r14		
    c2f0:	12 c3       	clrc			
    c2f2:	0f 10       	rrc	r15		
    c2f4:	0e 10       	rrc	r14		
    c2f6:	12 c3       	clrc			
    c2f8:	0f 10       	rrc	r15		
    c2fa:	0e 10       	rrc	r14		
    c2fc:	12 c3       	clrc			
    c2fe:	0f 10       	rrc	r15		
    c300:	0e 10       	rrc	r14		
    c302:	12 c3       	clrc			
    c304:	0f 10       	rrc	r15		
    c306:	0e 10       	rrc	r14		
    c308:	12 c3       	clrc			
    c30a:	0f 10       	rrc	r15		
    c30c:	0e 10       	rrc	r14		
    c30e:	12 c3       	clrc			
    c310:	0f 10       	rrc	r15		
    c312:	0e 10       	rrc	r14		
    c314:	3e f3       	and	#-1,	r14	;r3 As==11
    c316:	3f f0 7f 00 	and	#127,	r15	;#0x007f
    c31a:	4c 4c       	mov.b	r12,	r12	
    c31c:	05 3c       	jmp	$+12     	;abs 0xc328
    c31e:	0f 93       	tst	r15		
    c320:	cc 23       	jnz	$-102    	;abs 0xc2ba
    c322:	4c 43       	clr.b	r12		
    c324:	0e 43       	clr	r14		
    c326:	0f 43       	clr	r15		
    c328:	4d 4c       	mov.b	r12,	r13	
    c32a:	5d 0e       	rlam	#4,	r13	
    c32c:	5d 0a       	rlam	#3,	r13	
    c32e:	0c 4f       	mov	r15,	r12	
    c330:	3c f0 7f 00 	and	#127,	r12	;#0x007f
    c334:	0c dd       	bis	r13,	r12	
    c336:	4f 49       	mov.b	r9,	r15	
    c338:	0f 11       	rra	r15		
    c33a:	0f 43       	clr	r15		
    c33c:	0f 10       	rrc	r15		
    c33e:	0b 4e       	mov	r14,	r11	
    c340:	0d 4c       	mov	r12,	r13	
    c342:	0d df       	bis	r15,	r13	
    c344:	0f 4d       	mov	r13,	r15	
    c346:	38 17       	popm	#4,	r11	
    c348:	30 41       	ret			
    c34a:	0d 93       	tst	r13		
    c34c:	c6 23       	jnz	$-114    	;abs 0xc2da
    c34e:	0c 4e       	mov	r14,	r12	
    c350:	0d 4f       	mov	r15,	r13	
    c352:	3c f0 80 00 	and	#128,	r12	;#0x0080
    c356:	0d f3       	and	#0,	r13	;r3 As==00
    c358:	0c 93       	tst	r12		
    c35a:	02 20       	jnz	$+6      	;abs 0xc360
    c35c:	0d 93       	tst	r13		
    c35e:	c0 27       	jz	$-126    	;abs 0xc2e0
    c360:	3e 50 40 00 	add	#64,	r14	;#0x0040
    c364:	0f 63       	adc	r15		
    c366:	bc 3f       	jmp	$-134    	;abs 0xc2e0
    c368:	12 c3       	clrc			
    c36a:	0f 10       	rrc	r15		
    c36c:	0e 10       	rrc	r14		
    c36e:	0c 4b       	mov	r11,	r12	
    c370:	3c 50 80 00 	add	#128,	r12	;#0x0080
    c374:	ba 3f       	jmp	$-138    	;abs 0xc2ea
    c376:	7c 43       	mov.b	#-1,	r12	;r3 As==11
    c378:	0e 43       	clr	r14		
    c37a:	0f 43       	clr	r15		
    c37c:	d5 3f       	jmp	$-84     	;abs 0xc328
    c37e:	0e d3       	bis	#0,	r14	;r3 As==00
    c380:	3f d0 10 00 	bis	#16,	r15	;#0x0010
    c384:	3e f3       	and	#-1,	r14	;r3 As==11
    c386:	3f f0 7f 00 	and	#127,	r15	;#0x007f
    c38a:	7c 43       	mov.b	#-1,	r12	;r3 As==11
    c38c:	cd 3f       	jmp	$-100    	;abs 0xc328
    c38e:	3d 40 82 ff 	mov	#-126,	r13	;#0xff82
    c392:	0d 8b       	sub	r11,	r13	
    c394:	3d 90 1a 00 	cmp	#26,	r13	;#0x001a
    c398:	50 34       	jge	$+162    	;abs 0xc43a
    c39a:	4c 4d       	mov.b	r13,	r12	
    c39c:	7c f0 1f 00 	and.b	#31,	r12	;#0x001f
    c3a0:	0a 4e       	mov	r14,	r10	
    c3a2:	0b 4f       	mov	r15,	r11	
    c3a4:	05 24       	jz	$+12     	;abs 0xc3b0
    c3a6:	12 c3       	clrc			
    c3a8:	0b 10       	rrc	r11		
    c3aa:	0a 10       	rrc	r10		
    c3ac:	7c 53       	add.b	#-1,	r12	;r3 As==11
    c3ae:	fb 23       	jnz	$-8      	;abs 0xc3a6
    c3b0:	48 4d       	mov.b	r13,	r8	
    c3b2:	78 f0 1f 00 	and.b	#31,	r8	;#0x001f
    c3b6:	1c 43       	mov	#1,	r12	;r3 As==01
    c3b8:	0d 43       	clr	r13		
    c3ba:	04 24       	jz	$+10     	;abs 0xc3c4
    c3bc:	0c 5c       	rla	r12		
    c3be:	0d 6d       	rlc	r13		
    c3c0:	78 53       	add.b	#-1,	r8	;r3 As==11
    c3c2:	fc 23       	jnz	$-6      	;abs 0xc3bc
    c3c4:	3c 53       	add	#-1,	r12	;r3 As==11
    c3c6:	3d 63       	addc	#-1,	r13	;r3 As==11
    c3c8:	0c fe       	and	r14,	r12	
    c3ca:	0d ff       	and	r15,	r13	
    c3cc:	1e 43       	mov	#1,	r14	;r3 As==01
    c3ce:	0f 43       	clr	r15		
    c3d0:	0c 93       	tst	r12		
    c3d2:	04 20       	jnz	$+10     	;abs 0xc3dc
    c3d4:	0d 93       	tst	r13		
    c3d6:	02 20       	jnz	$+6      	;abs 0xc3dc
    c3d8:	0e 43       	clr	r14		
    c3da:	0f 43       	clr	r15		
    c3dc:	0c 4e       	mov	r14,	r12	
    c3de:	0d 4f       	mov	r15,	r13	
    c3e0:	0c da       	bis	r10,	r12	
    c3e2:	0d db       	bis	r11,	r13	
    c3e4:	0e 4c       	mov	r12,	r14	
    c3e6:	0f 4d       	mov	r13,	r15	
    c3e8:	3e f0 7f 00 	and	#127,	r14	;#0x007f
    c3ec:	0f f3       	and	#0,	r15	;r3 As==00
    c3ee:	3e 90 40 00 	cmp	#64,	r14	;#0x0040
    c3f2:	26 24       	jz	$+78     	;abs 0xc440
    c3f4:	3c 50 3f 00 	add	#63,	r12	;#0x003f
    c3f8:	0d 63       	adc	r13		
    c3fa:	0e 4c       	mov	r12,	r14	
    c3fc:	0f 4d       	mov	r13,	r15	
    c3fe:	12 c3       	clrc			
    c400:	0f 10       	rrc	r15		
    c402:	0e 10       	rrc	r14		
    c404:	12 c3       	clrc			
    c406:	0f 10       	rrc	r15		
    c408:	0e 10       	rrc	r14		
    c40a:	12 c3       	clrc			
    c40c:	0f 10       	rrc	r15		
    c40e:	0e 10       	rrc	r14		
    c410:	12 c3       	clrc			
    c412:	0f 10       	rrc	r15		
    c414:	0e 10       	rrc	r14		
    c416:	12 c3       	clrc			
    c418:	0f 10       	rrc	r15		
    c41a:	0e 10       	rrc	r14		
    c41c:	12 c3       	clrc			
    c41e:	0f 10       	rrc	r15		
    c420:	0e 10       	rrc	r14		
    c422:	12 c3       	clrc			
    c424:	0f 10       	rrc	r15		
    c426:	0e 10       	rrc	r14		
    c428:	3e f3       	and	#-1,	r14	;r3 As==11
    c42a:	3f f0 7f 00 	and	#127,	r15	;#0x007f
    c42e:	5c 43       	mov.b	#1,	r12	;r3 As==01
    c430:	3d 90 00 40 	cmp	#16384,	r13	;#0x4000
    c434:	79 2f       	jc	$-268    	;abs 0xc328
    c436:	4c 43       	clr.b	r12		
    c438:	77 3f       	jmp	$-272    	;abs 0xc328
    c43a:	0c 43       	clr	r12		
    c43c:	0d 43       	clr	r13		
    c43e:	da 3f       	jmp	$-74     	;abs 0xc3f4
    c440:	0f 93       	tst	r15		
    c442:	d8 23       	jnz	$-78     	;abs 0xc3f4
    c444:	0e 4c       	mov	r12,	r14	
    c446:	0f 4d       	mov	r13,	r15	
    c448:	3e f0 80 00 	and	#128,	r14	;#0x0080
    c44c:	0f f3       	and	#0,	r15	;r3 As==00
    c44e:	0e 93       	tst	r14		
    c450:	04 24       	jz	$+10     	;abs 0xc45a
    c452:	3c 50 40 00 	add	#64,	r12	;#0x0040
    c456:	0d 63       	adc	r13		
    c458:	d0 3f       	jmp	$-94     	;abs 0xc3fa
    c45a:	0f 93       	tst	r15		
    c45c:	ce 27       	jz	$-98     	;abs 0xc3fa
    c45e:	f9 3f       	jmp	$-12     	;abs 0xc452

0000c460 <__unpack_f>:
    c460:	3b 15       	pushm	#4,	r11	
    c462:	2a 4f       	mov	@r15,	r10	
    c464:	5d 4f 02 00 	mov.b	2(r15),	r13	;0x0002(r15)
    c468:	0b 4d       	mov	r13,	r11	
    c46a:	3b f0 7f 00 	and	#127,	r11	;#0x007f
    c46e:	08 4a       	mov	r10,	r8	
    c470:	09 4b       	mov	r11,	r9	
    c472:	1d 4f 02 00 	mov	2(r15),	r13	;0x0002(r15)
    c476:	5d 0f       	rrum	#4,	r13	
    c478:	5d 0b       	rrum	#3,	r13	
    c47a:	4c 4d       	mov.b	r13,	r12	
    c47c:	5f 4f 03 00 	mov.b	3(r15),	r15	;0x0003(r15)
    c480:	4f 5f       	rla.b	r15		
    c482:	0f 43       	clr	r15		
    c484:	0f 6f       	rlc	r15		
    c486:	ce 4f 01 00 	mov.b	r15,	1(r14)	;0x0001(r14)
    c48a:	0c 93       	tst	r12		
    c48c:	2c 20       	jnz	$+90     	;abs 0xc4e6
    c48e:	0a 93       	tst	r10		
    c490:	4f 24       	jz	$+160    	;abs 0xc530
    c492:	be 40 82 ff 02 00 	mov	#-126,	2(r14)	;#0xff82, 0x0002(r14)
    c498:	0c 48       	mov	r8,	r12	
    c49a:	0d 49       	mov	r9,	r13	
    c49c:	0c 5c       	rla	r12		
    c49e:	0d 6d       	rlc	r13		
    c4a0:	0c 5c       	rla	r12		
    c4a2:	0d 6d       	rlc	r13		
    c4a4:	0c 5c       	rla	r12		
    c4a6:	0d 6d       	rlc	r13		
    c4a8:	0c 5c       	rla	r12		
    c4aa:	0d 6d       	rlc	r13		
    c4ac:	0c 5c       	rla	r12		
    c4ae:	0d 6d       	rlc	r13		
    c4b0:	0c 5c       	rla	r12		
    c4b2:	0d 6d       	rlc	r13		
    c4b4:	0c 5c       	rla	r12		
    c4b6:	0d 6d       	rlc	r13		
    c4b8:	fe 40 03 00 00 00 	mov.b	#3,	0(r14)	;#0x0003, 0x0000(r14)
    c4be:	3d 90 00 40 	cmp	#16384,	r13	;#0x4000
    c4c2:	0b 2c       	jc	$+24     	;abs 0xc4da
    c4c4:	3f 40 81 ff 	mov	#-127,	r15	;#0xff81
    c4c8:	0c 5c       	rla	r12		
    c4ca:	0d 6d       	rlc	r13		
    c4cc:	0b 4f       	mov	r15,	r11	
    c4ce:	3f 53       	add	#-1,	r15	;r3 As==11
    c4d0:	3d 90 00 40 	cmp	#16384,	r13	;#0x4000
    c4d4:	f9 2b       	jnc	$-12     	;abs 0xc4c8
    c4d6:	8e 4b 02 00 	mov	r11,	2(r14)	;0x0002(r14)
    c4da:	8e 4c 04 00 	mov	r12,	4(r14)	;0x0004(r14)
    c4de:	8e 4d 06 00 	mov	r13,	6(r14)	;0x0006(r14)
    c4e2:	38 17       	popm	#4,	r11	
    c4e4:	30 41       	ret			
    c4e6:	3c 90 ff 00 	cmp	#255,	r12	;#0x00ff
    c4ea:	28 24       	jz	$+82     	;abs 0xc53c
    c4ec:	3c 50 81 ff 	add	#-127,	r12	;#0xff81
    c4f0:	8e 4c 02 00 	mov	r12,	2(r14)	;0x0002(r14)
    c4f4:	fe 40 03 00 00 00 	mov.b	#3,	0(r14)	;#0x0003, 0x0000(r14)
    c4fa:	0c 4a       	mov	r10,	r12	
    c4fc:	0d 4b       	mov	r11,	r13	
    c4fe:	0c 5c       	rla	r12		
    c500:	0d 6d       	rlc	r13		
    c502:	0c 5c       	rla	r12		
    c504:	0d 6d       	rlc	r13		
    c506:	0c 5c       	rla	r12		
    c508:	0d 6d       	rlc	r13		
    c50a:	0c 5c       	rla	r12		
    c50c:	0d 6d       	rlc	r13		
    c50e:	0c 5c       	rla	r12		
    c510:	0d 6d       	rlc	r13		
    c512:	0c 5c       	rla	r12		
    c514:	0d 6d       	rlc	r13		
    c516:	0c 5c       	rla	r12		
    c518:	0d 6d       	rlc	r13		
    c51a:	0a 4c       	mov	r12,	r10	
    c51c:	0b 4d       	mov	r13,	r11	
    c51e:	0a d3       	bis	#0,	r10	;r3 As==00
    c520:	3b d0 00 40 	bis	#16384,	r11	;#0x4000
    c524:	8e 4a 04 00 	mov	r10,	4(r14)	;0x0004(r14)
    c528:	8e 4b 06 00 	mov	r11,	6(r14)	;0x0006(r14)
    c52c:	38 17       	popm	#4,	r11	
    c52e:	30 41       	ret			
    c530:	0b 93       	tst	r11		
    c532:	af 23       	jnz	$-160    	;abs 0xc492
    c534:	ee 43 00 00 	mov.b	#2,	0(r14)	;r3 As==10, 0x0000(r14)
    c538:	38 17       	popm	#4,	r11	
    c53a:	30 41       	ret			
    c53c:	0a 93       	tst	r10		
    c53e:	0e 24       	jz	$+30     	;abs 0xc55c
    c540:	0a f3       	and	#0,	r10	;r3 As==00
    c542:	3b f0 10 00 	and	#16,	r11	;#0x0010
    c546:	0a 93       	tst	r10		
    c548:	02 20       	jnz	$+6      	;abs 0xc54e
    c54a:	0b 93       	tst	r11		
    c54c:	0c 24       	jz	$+26     	;abs 0xc566
    c54e:	de 43 00 00 	mov.b	#1,	0(r14)	;r3 As==01, 0x0000(r14)
    c552:	8e 48 04 00 	mov	r8,	4(r14)	;0x0004(r14)
    c556:	8e 49 06 00 	mov	r9,	6(r14)	;0x0006(r14)
    c55a:	e8 3f       	jmp	$-46     	;abs 0xc52c
    c55c:	0b 93       	tst	r11		
    c55e:	f0 23       	jnz	$-30     	;abs 0xc540
    c560:	ee 42 00 00 	mov.b	#4,	0(r14)	;r2 As==10, 0x0000(r14)
    c564:	e3 3f       	jmp	$-56     	;abs 0xc52c
    c566:	ce 43 00 00 	mov.b	#0,	0(r14)	;r3 As==00, 0x0000(r14)
    c56a:	f3 3f       	jmp	$-24     	;abs 0xc552

0000c56c <__fpcmp_parts_f>:
    c56c:	0b 12       	push	r11		
    c56e:	6d 4f       	mov.b	@r15,	r13	
    c570:	6d 93       	cmp.b	#2,	r13	;r3 As==10
    c572:	12 28       	jnc	$+38     	;abs 0xc598
    c574:	6c 4e       	mov.b	@r14,	r12	
    c576:	6c 93       	cmp.b	#2,	r12	;r3 As==10
    c578:	0f 28       	jnc	$+32     	;abs 0xc598
    c57a:	6d 92       	cmp.b	#4,	r13	;r2 As==10
    c57c:	41 24       	jz	$+132    	;abs 0xc600
    c57e:	6c 92       	cmp.b	#4,	r12	;r2 As==10
    c580:	11 24       	jz	$+36     	;abs 0xc5a4
    c582:	6d 93       	cmp.b	#2,	r13	;r3 As==10
    c584:	0d 24       	jz	$+28     	;abs 0xc5a0
    c586:	6c 93       	cmp.b	#2,	r12	;r3 As==10
    c588:	14 24       	jz	$+42     	;abs 0xc5b2
    c58a:	5d 4f 01 00 	mov.b	1(r15),	r13	;0x0001(r15)
    c58e:	5d 9e 01 00 	cmp.b	1(r14),	r13	;0x0001(r14)
    c592:	14 24       	jz	$+42     	;abs 0xc5bc
    c594:	4d 93       	tst.b	r13		
    c596:	09 20       	jnz	$+20     	;abs 0xc5aa
    c598:	1e 43       	mov	#1,	r14	;r3 As==01
    c59a:	0f 4e       	mov	r14,	r15	
    c59c:	3b 41       	pop	r11		
    c59e:	30 41       	ret			
    c5a0:	6c 93       	cmp.b	#2,	r12	;r3 As==10
    c5a2:	28 24       	jz	$+82     	;abs 0xc5f4
    c5a4:	ce 93 01 00 	tst.b	1(r14)		;0x0001(r14)
    c5a8:	f7 23       	jnz	$-16     	;abs 0xc598
    c5aa:	3e 43       	mov	#-1,	r14	;r3 As==11
    c5ac:	0f 4e       	mov	r14,	r15	
    c5ae:	3b 41       	pop	r11		
    c5b0:	30 41       	ret			
    c5b2:	cf 93 01 00 	tst.b	1(r15)		;0x0001(r15)
    c5b6:	f0 27       	jz	$-30     	;abs 0xc598
    c5b8:	3e 43       	mov	#-1,	r14	;r3 As==11
    c5ba:	f8 3f       	jmp	$-14     	;abs 0xc5ac
    c5bc:	1b 4f 02 00 	mov	2(r15),	r11	;0x0002(r15)
    c5c0:	1c 4e 02 00 	mov	2(r14),	r12	;0x0002(r14)
    c5c4:	0c 9b       	cmp	r11,	r12	
    c5c6:	e6 3b       	jl	$-50     	;abs 0xc594
    c5c8:	0b 9c       	cmp	r12,	r11	
    c5ca:	16 38       	jl	$+46     	;abs 0xc5f8
    c5cc:	1b 4f 04 00 	mov	4(r15),	r11	;0x0004(r15)
    c5d0:	1f 4f 06 00 	mov	6(r15),	r15	;0x0006(r15)
    c5d4:	1c 4e 04 00 	mov	4(r14),	r12	;0x0004(r14)
    c5d8:	1e 4e 06 00 	mov	6(r14),	r14	;0x0006(r14)
    c5dc:	0e 9f       	cmp	r15,	r14	
    c5de:	da 2b       	jnc	$-74     	;abs 0xc594
    c5e0:	0f 9e       	cmp	r14,	r15	
    c5e2:	02 28       	jnc	$+6      	;abs 0xc5e8
    c5e4:	0c 9b       	cmp	r11,	r12	
    c5e6:	d6 2b       	jnc	$-82     	;abs 0xc594
    c5e8:	0f 9e       	cmp	r14,	r15	
    c5ea:	06 28       	jnc	$+14     	;abs 0xc5f8
    c5ec:	0e 9f       	cmp	r15,	r14	
    c5ee:	02 28       	jnc	$+6      	;abs 0xc5f4
    c5f0:	0b 9c       	cmp	r12,	r11	
    c5f2:	02 28       	jnc	$+6      	;abs 0xc5f8
    c5f4:	0e 43       	clr	r14		
    c5f6:	d1 3f       	jmp	$-92     	;abs 0xc59a
    c5f8:	4d 93       	tst.b	r13		
    c5fa:	ce 23       	jnz	$-98     	;abs 0xc598
    c5fc:	3e 43       	mov	#-1,	r14	;r3 As==11
    c5fe:	d6 3f       	jmp	$-82     	;abs 0xc5ac
    c600:	6c 92       	cmp.b	#4,	r12	;r2 As==10
    c602:	d7 23       	jnz	$-80     	;abs 0xc5b2
    c604:	5e 4e 01 00 	mov.b	1(r14),	r14	;0x0001(r14)
    c608:	5f 4f 01 00 	mov.b	1(r15),	r15	;0x0001(r15)
    c60c:	0e 8f       	sub	r15,	r14	
    c60e:	c5 3f       	jmp	$-116    	;abs 0xc59a

0000c610 <memcpy>:
    c610:	3b 15       	pushm	#4,	r11	
    c612:	0d 93       	tst	r13		
    c614:	6f 24       	jz	$+224    	;abs 0xc6f4
    c616:	0f 9e       	cmp	r14,	r15	
    c618:	6d 24       	jz	$+220    	;abs 0xc6f4
    c61a:	35 2c       	jc	$+108    	;abs 0xc686
    c61c:	0c 4e       	mov	r14,	r12	
    c61e:	0c df       	bis	r15,	r12	
    c620:	1c f3       	and	#1,	r12	;r3 As==01
    c622:	1d 24       	jz	$+60     	;abs 0xc65e
    c624:	0c 4e       	mov	r14,	r12	
    c626:	0c ef       	xor	r15,	r12	
    c628:	1c f3       	and	#1,	r12	;r3 As==01
    c62a:	07 20       	jnz	$+16     	;abs 0xc63a
    c62c:	2d 93       	cmp	#2,	r13	;r3 As==10
    c62e:	07 28       	jnc	$+16     	;abs 0xc63e
    c630:	0c 4e       	mov	r14,	r12	
    c632:	1c f3       	and	#1,	r12	;r3 As==01
    c634:	2b 43       	mov	#2,	r11	;r3 As==10
    c636:	0b 8c       	sub	r12,	r11	
    c638:	03 3c       	jmp	$+8      	;abs 0xc640
    c63a:	0b 4d       	mov	r13,	r11	
    c63c:	01 3c       	jmp	$+4      	;abs 0xc640
    c63e:	1b 43       	mov	#1,	r11	;r3 As==01
    c640:	0d 8b       	sub	r11,	r13	
    c642:	0c 43       	clr	r12		
    c644:	09 4e       	mov	r14,	r9	
    c646:	09 5c       	add	r12,	r9	
    c648:	0a 4f       	mov	r15,	r10	
    c64a:	0a 5c       	add	r12,	r10	
    c64c:	ea 49 00 00 	mov.b	@r9,	0(r10)	;0x0000(r10)
    c650:	1c 53       	inc	r12		
    c652:	0c 9b       	cmp	r11,	r12	
    c654:	f7 23       	jnz	$-16     	;abs 0xc644
    c656:	0b 4f       	mov	r15,	r11	
    c658:	0b 5c       	add	r12,	r11	
    c65a:	0e 5c       	add	r12,	r14	
    c65c:	01 3c       	jmp	$+4      	;abs 0xc660
    c65e:	0b 4f       	mov	r15,	r11	
    c660:	0c 4d       	mov	r13,	r12	
    c662:	5c 03       	rrum	#1,	r12	
    c664:	0b 24       	jz	$+24     	;abs 0xc67c
    c666:	0a 4c       	mov	r12,	r10	
    c668:	08 4e       	mov	r14,	r8	
    c66a:	09 4b       	mov	r11,	r9	
    c66c:	b9 48 00 00 	mov	@r8+,	0(r9)	;0x0000(r9)
    c670:	29 53       	incd	r9		
    c672:	3a 53       	add	#-1,	r10	;r3 As==11
    c674:	fb 23       	jnz	$-8      	;abs 0xc66c
    c676:	5c 02       	rlam	#1,	r12	
    c678:	0e 5c       	add	r12,	r14	
    c67a:	0b 5c       	add	r12,	r11	
    c67c:	1d f3       	and	#1,	r13	;r3 As==01
    c67e:	3a 24       	jz	$+118    	;abs 0xc6f4
    c680:	eb 4e 00 00 	mov.b	@r14,	0(r11)	;0x0000(r11)
    c684:	37 3c       	jmp	$+112    	;abs 0xc6f4
    c686:	0e 5d       	add	r13,	r14	
    c688:	0c 4f       	mov	r15,	r12	
    c68a:	0c 5d       	add	r13,	r12	
    c68c:	0b 4c       	mov	r12,	r11	
    c68e:	0b de       	bis	r14,	r11	
    c690:	1b f3       	and	#1,	r11	;r3 As==01
    c692:	1b 24       	jz	$+56     	;abs 0xc6ca
    c694:	0b 4c       	mov	r12,	r11	
    c696:	0b ee       	xor	r14,	r11	
    c698:	1b f3       	and	#1,	r11	;r3 As==01
    c69a:	06 20       	jnz	$+14     	;abs 0xc6a8
    c69c:	3d 90 03 00 	cmp	#3,	r13	;#0x0003
    c6a0:	03 28       	jnc	$+8      	;abs 0xc6a8
    c6a2:	0a 4e       	mov	r14,	r10	
    c6a4:	1a f3       	and	#1,	r10	;r3 As==01
    c6a6:	01 3c       	jmp	$+4      	;abs 0xc6aa
    c6a8:	0a 4d       	mov	r13,	r10	
    c6aa:	0d 8a       	sub	r10,	r13	
    c6ac:	0b 4a       	mov	r10,	r11	
    c6ae:	3b 53       	add	#-1,	r11	;r3 As==11
    c6b0:	3a e3       	inv	r10		
    c6b2:	1a 53       	inc	r10		
    c6b4:	0e 5a       	add	r10,	r14	
    c6b6:	0c 5a       	add	r10,	r12	
    c6b8:	09 4e       	mov	r14,	r9	
    c6ba:	09 5b       	add	r11,	r9	
    c6bc:	0a 4c       	mov	r12,	r10	
    c6be:	0a 5b       	add	r11,	r10	
    c6c0:	ea 49 00 00 	mov.b	@r9,	0(r10)	;0x0000(r10)
    c6c4:	3b 53       	add	#-1,	r11	;r3 As==11
    c6c6:	3b 93       	cmp	#-1,	r11	;r3 As==11
    c6c8:	f7 23       	jnz	$-16     	;abs 0xc6b8
    c6ca:	0a 4d       	mov	r13,	r10	
    c6cc:	5a 03       	rrum	#1,	r10	
    c6ce:	0d 24       	jz	$+28     	;abs 0xc6ea
    c6d0:	0b 4a       	mov	r10,	r11	
    c6d2:	08 4e       	mov	r14,	r8	
    c6d4:	09 4c       	mov	r12,	r9	
    c6d6:	28 83       	decd	r8		
    c6d8:	29 83       	decd	r9		
    c6da:	a9 48 00 00 	mov	@r8,	0(r9)	;0x0000(r9)
    c6de:	3b 53       	add	#-1,	r11	;r3 As==11
    c6e0:	fa 23       	jnz	$-10     	;abs 0xc6d6
    c6e2:	0b 8a       	sub	r10,	r11	
    c6e4:	5b 02       	rlam	#1,	r11	
    c6e6:	0e 5b       	add	r11,	r14	
    c6e8:	0c 5b       	add	r11,	r12	
    c6ea:	1d f3       	and	#1,	r13	;r3 As==01
    c6ec:	03 24       	jz	$+8      	;abs 0xc6f4
    c6ee:	dc 4e ff ff ff ff 	mov.b	-1(r14),-1(r12)	;0xffff(r14), 0xffff(r12)
    c6f4:	38 17       	popm	#4,	r11	
    c6f6:	30 41       	ret			

0000c6f8 <memset>:
    c6f8:	3b 15       	pushm	#4,	r11	
    c6fa:	3d 90 06 00 	cmp	#6,	r13	;#0x0006
    c6fe:	09 2c       	jc	$+20     	;abs 0xc712
    c700:	0d 5f       	add	r15,	r13	
    c702:	0c 4f       	mov	r15,	r12	
    c704:	03 3c       	jmp	$+8      	;abs 0xc70c
    c706:	cc 4e 00 00 	mov.b	r14,	0(r12)	;0x0000(r12)
    c70a:	1c 53       	inc	r12		
    c70c:	0c 9d       	cmp	r13,	r12	
    c70e:	fb 23       	jnz	$-8      	;abs 0xc706
    c710:	1f 3c       	jmp	$+64     	;abs 0xc750
    c712:	0b 4e       	mov	r14,	r11	
    c714:	3b f0 ff 00 	and	#255,	r11	;#0x00ff
    c718:	03 24       	jz	$+8      	;abs 0xc720
    c71a:	0c 4b       	mov	r11,	r12	
    c71c:	8c 10       	swpb	r12		
    c71e:	0b dc       	bis	r12,	r11	
    c720:	1f b3       	bit	#1,	r15	;r3 As==01
    c722:	06 24       	jz	$+14     	;abs 0xc730
    c724:	3d 53       	add	#-1,	r13	;r3 As==11
    c726:	cf 4e 00 00 	mov.b	r14,	0(r15)	;0x0000(r15)
    c72a:	0a 4f       	mov	r15,	r10	
    c72c:	1a 53       	inc	r10		
    c72e:	01 3c       	jmp	$+4      	;abs 0xc732
    c730:	0a 4f       	mov	r15,	r10	
    c732:	0c 4d       	mov	r13,	r12	
    c734:	5c 03       	rrum	#1,	r12	
    c736:	08 4a       	mov	r10,	r8	
    c738:	09 4c       	mov	r12,	r9	
    c73a:	88 4b 00 00 	mov	r11,	0(r8)	;0x0000(r8)
    c73e:	28 53       	incd	r8		
    c740:	39 53       	add	#-1,	r9	;r3 As==11
    c742:	fb 23       	jnz	$-8      	;abs 0xc73a
    c744:	5c 02       	rlam	#1,	r12	
    c746:	0c 5a       	add	r10,	r12	
    c748:	1d f3       	and	#1,	r13	;r3 As==01
    c74a:	02 24       	jz	$+6      	;abs 0xc750
    c74c:	cc 4e 00 00 	mov.b	r14,	0(r12)	;0x0000(r12)
    c750:	38 17       	popm	#4,	r11	
    c752:	30 41       	ret			

0000c754 <_unexpected_>:
    c754:	00 13       	reti			

0000c756 <sig_USCI_B0_VECTOR>:
    c756:	0f 12       	push	r15		
    c758:	1f 42 fe 05 	mov	&0x05fe,r15	
    c75c:	c2 93 5f 1f 	tst.b	&0x1f5f	
    c760:	04 20       	jnz	$+10     	;abs 0xc76a
    c762:	06 3c       	jmp	$+14     	;abs 0xc770
    c764:	5f 42 e1 05 	mov.b	&0x05e1,r15	
    c768:	03 3c       	jmp	$+8      	;abs 0xc770
    c76a:	d2 b3 e1 05 	bit.b	#1,	&0x05e1	;r3 As==01
    c76e:	fa 23       	jnz	$-10     	;abs 0xc764
    c770:	3f 41       	pop	r15		
    c772:	b1 c0 f0 00 00 00 	bic	#240,	0(r1)	;#0x00f0, 0x0000(r1)
    c778:	00 13       	reti			

0000c77a <sig_USCI_B1_VECTOR>:
    c77a:	0f 12       	push	r15		
    c77c:	1f 42 3e 06 	mov	&0x063e,r15	
    c780:	c2 93 da 20 	tst.b	&0x20da	
    c784:	04 20       	jnz	$+10     	;abs 0xc78e
    c786:	06 3c       	jmp	$+14     	;abs 0xc794
    c788:	5f 42 21 06 	mov.b	&0x0621,r15	
    c78c:	03 3c       	jmp	$+8      	;abs 0xc794
    c78e:	d2 b3 21 06 	bit.b	#1,	&0x0621	;r3 As==01
    c792:	fa 23       	jnz	$-10     	;abs 0xc788
    c794:	3f 41       	pop	r15		
    c796:	b1 c0 f0 00 00 00 	bic	#240,	0(r1)	;#0x00f0, 0x0000(r1)
    c79c:	00 13       	reti			

0000c79e <sig_USCI_A0_VECTOR>:
    c79e:	0f 12       	push	r15		
    c7a0:	1f 42 de 05 	mov	&0x05de,r15	
    c7a4:	c2 93 37 20 	tst.b	&0x2037	
    c7a8:	04 20       	jnz	$+10     	;abs 0xc7b2
    c7aa:	06 3c       	jmp	$+14     	;abs 0xc7b8
    c7ac:	5f 42 c1 05 	mov.b	&0x05c1,r15	
    c7b0:	03 3c       	jmp	$+8      	;abs 0xc7b8
    c7b2:	d2 b3 c1 05 	bit.b	#1,	&0x05c1	;r3 As==01
    c7b6:	fa 23       	jnz	$-10     	;abs 0xc7ac
    c7b8:	3f 41       	pop	r15		
    c7ba:	b1 c0 f0 00 00 00 	bic	#240,	0(r1)	;#0x00f0, 0x0000(r1)
    c7c0:	00 13       	reti			

0000c7c2 <sig_USCI_A1_VECTOR>:
    c7c2:	6f 15       	pushm	#7,	r15	
    c7c4:	1e 42 1e 06 	mov	&0x061e,r14	
    c7c8:	c2 93 4c 1f 	tst.b	&0x1f4c	
    c7cc:	e8 20       	jnz	$+466    	;abs 0xc99e
    c7ce:	ee 3c       	jmp	$+478    	;abs 0xc9ac
    c7d0:	5f 42 01 06 	mov.b	&0x0601,r15	
    c7d4:	eb 3c       	jmp	$+472    	;abs 0xc9ac
    c7d6:	4e 4e       	mov.b	r14,	r14	
    c7d8:	6e 93       	cmp.b	#2,	r14	;r3 As==10
    c7da:	31 20       	jnz	$+100    	;abs 0xc83e
    c7dc:	5e 42 0a 06 	mov.b	&0x060a,r14	
    c7e0:	5e 42 0c 06 	mov.b	&0x060c,r14	
    c7e4:	5d 42 0a 06 	mov.b	&0x060a,r13	
    c7e8:	1d 42 24 33 	mov	&0x3324,r13	
    c7ec:	0d 93       	tst	r13		
    c7ee:	0e 24       	jz	$+30     	;abs 0xc80c
    c7f0:	1f 42 4e 1f 	mov	&0x1f4e,r15	
    c7f4:	0d 5f       	add	r15,	r13	
    c7f6:	cd 4e 00 00 	mov.b	r14,	0(r13)	;0x0000(r13)
    c7fa:	1f 53       	inc	r15		
    c7fc:	82 4f 4e 1f 	mov	r15,	&0x1f4e	
    c800:	82 9f 78 23 	cmp	r15,	&0x2378	
    c804:	d3 20       	jnz	$+424    	;abs 0xc9ac
    c806:	82 43 24 33 	mov	#0,	&0x3324	;r3 As==00
    c80a:	d0 3c       	jmp	$+418    	;abs 0xc9ac
    c80c:	4f 93       	tst.b	r15		
    c80e:	ce 20       	jnz	$+414    	;abs 0xc9ac
    c810:	7e 90 7e 00 	cmp.b	#126,	r14	;#0x007e
    c814:	03 20       	jnz	$+8      	;abs 0xc81c
    c816:	4e 43       	clr.b	r14		
    c818:	5f 43       	mov.b	#1,	r15	;r3 As==01
    c81a:	0e 3c       	jmp	$+30     	;abs 0xc838
    c81c:	7e 90 7d 00 	cmp.b	#125,	r14	;#0x007d
    c820:	03 20       	jnz	$+8      	;abs 0xc828
    c822:	e2 d3 4a 1c 	bis.b	#2,	&0x1c4a	;r3 As==10
    c826:	c2 3c       	jmp	$+390    	;abs 0xc9ac
    c828:	e2 b3 4a 1c 	bit.b	#2,	&0x1c4a	;r3 As==10
    c82c:	04 24       	jz	$+10     	;abs 0xc836
    c82e:	e2 c3 4a 1c 	bic.b	#2,	&0x1c4a	;r3 As==10
    c832:	7e e0 20 00 	xor.b	#32,	r14	;#0x0020
    c836:	4f 43       	clr.b	r15		
    c838:	b0 12 04 57 	call	#0x5704	
    c83c:	b7 3c       	jmp	$+368    	;abs 0xc9ac
    c83e:	6e 92       	cmp.b	#4,	r14	;r2 As==10
    c840:	b5 20       	jnz	$+364    	;abs 0xc9ac
    c842:	1e 42 26 20 	mov	&0x2026,r14	
    c846:	1d 42 ec 1c 	mov	&0x1cec,r13	
    c84a:	0d 5e       	add	r14,	r13	
    c84c:	6c 4d       	mov.b	@r13,	r12	
    c84e:	1e 53       	inc	r14		
    c850:	82 4e 26 20 	mov	r14,	&0x2026	
    c854:	5d 43       	mov.b	#1,	r13	;r3 As==01
    c856:	1e 92 62 1f 	cmp	&0x1f62,r14	
    c85a:	02 24       	jz	$+6      	;abs 0xc860
    c85c:	4d 43       	clr.b	r13		
    c85e:	05 3c       	jmp	$+12     	;abs 0xc86a
    c860:	5e 42 1c 06 	mov.b	&0x061c,r14	
    c864:	6e c3       	bic.b	#2,	r14	;r3 As==10
    c866:	c2 4e 1c 06 	mov.b	r14,	&0x061c	
    c86a:	c2 4c 0e 06 	mov.b	r12,	&0x060e	
    c86e:	4d 93       	tst.b	r13		
    c870:	9d 24       	jz	$+316    	;abs 0xc9ac
    c872:	82 43 ec 1c 	mov	#0,	&0x1cec	;r3 As==00
    c876:	4f 93       	tst.b	r15		
    c878:	99 20       	jnz	$+308    	;abs 0xc9ac
    c87a:	d2 b3 4a 1c 	bit.b	#1,	&0x1c4a	;r3 As==01
    c87e:	08 24       	jz	$+18     	;abs 0xc890
    c880:	d2 c3 4a 1c 	bic.b	#1,	&0x1c4a	;r3 As==01
    c884:	d2 42 d6 22 ca 1e 	mov.b	&0x22d6,&0x1eca	
    c88a:	b0 12 78 5c 	call	#0x5c78	
    c88e:	8e 3c       	jmp	$+286    	;abs 0xc9ac
    c890:	5f 42 ca 22 	mov.b	&0x22ca,r15	
    c894:	7f 53       	add.b	#-1,	r15	;r3 As==11
    c896:	7f 92       	cmp.b	#8,	r15	;r2 As==11
    c898:	7c 2c       	jc	$+250    	;abs 0xc992
    c89a:	4f 4f       	mov.b	r15,	r15	
    c89c:	5f 02       	rlam	#1,	r15	
    c89e:	10 4f 10 cf 	br	-12528(r15)	;0xcf10(r15)
    c8a2:	5f 42 30 20 	mov.b	&0x2030,r15	
    c8a6:	b0 12 be 5e 	call	#0x5ebe	
    c8aa:	0b 4f       	mov	r15,	r11	
    c8ac:	f2 40 03 00 ca 22 	mov.b	#3,	&0x22ca	;#0x0003
    c8b2:	5e 42 30 20 	mov.b	&0x2030,r14	
    c8b6:	0a 3c       	jmp	$+22     	;abs 0xc8cc
    c8b8:	5f 42 50 24 	mov.b	&0x2450,r15	
    c8bc:	b0 12 be 5e 	call	#0x5ebe	
    c8c0:	0b 4f       	mov	r15,	r11	
    c8c2:	f2 40 03 00 ca 22 	mov.b	#3,	&0x22ca	;#0x0003
    c8c8:	5e 42 50 24 	mov.b	&0x2450,r14	
    c8cc:	1f 42 f0 36 	mov	&0x36f0,r15	
    c8d0:	b0 12 20 4c 	call	#0x4c20	
    c8d4:	82 4f f0 36 	mov	r15,	&0x36f0	
    c8d8:	0f 4b       	mov	r11,	r15	
    c8da:	59 3c       	jmp	$+180    	;abs 0xc98e
    c8dc:	5f 42 3a 21 	mov.b	&0x213a,r15	
    c8e0:	5f 02       	rlam	#1,	r15	
    c8e2:	3f 50 6c 20 	add	#8300,	r15	;#0x206c
    c8e6:	5f 4f 01 00 	mov.b	1(r15),	r15	;0x0001(r15)
    c8ea:	b0 12 be 5e 	call	#0x5ebe	
    c8ee:	0b 4f       	mov	r15,	r11	
    c8f0:	5a 42 3a 21 	mov.b	&0x213a,r10	
    c8f4:	49 4a       	mov.b	r10,	r9	
    c8f6:	0f 49       	mov	r9,	r15	
    c8f8:	5f 02       	rlam	#1,	r15	
    c8fa:	3f 50 6c 20 	add	#8300,	r15	;#0x206c
    c8fe:	5e 4f 01 00 	mov.b	1(r15),	r14	;0x0001(r15)
    c902:	1f 42 f0 36 	mov	&0x36f0,r15	
    c906:	b0 12 20 4c 	call	#0x4c20	
    c90a:	82 4f f0 36 	mov	r15,	&0x36f0	
    c90e:	5d 42 1d 20 	mov.b	&0x201d,r13	
    c912:	5d 53       	inc.b	r13		
    c914:	c2 4d 1d 20 	mov.b	r13,	&0x201d	
    c918:	5a 93       	cmp.b	#1,	r10	;r3 As==01
    c91a:	1c 20       	jnz	$+58     	;abs 0xc954
    c91c:	5e 42 56 1c 	mov.b	&0x1c56,r14	
    c920:	4f 4e       	mov.b	r14,	r15	
    c922:	1f 52 5a 1c 	add	&0x1c5a,r15	
    c926:	6f 4f       	mov.b	@r15,	r15	
    c928:	5e 53       	inc.b	r14		
    c92a:	c2 4e 56 1c 	mov.b	r14,	&0x1c56	
    c92e:	c2 9e 57 1c 	cmp.b	r14,	&0x1c57	
    c932:	03 2c       	jc	$+8      	;abs 0xc93a
    c934:	e2 43 6e 20 	mov.b	#2,	&0x206e	;r3 As==10
    c938:	4f 43       	clr.b	r15		
    c93a:	0e 49       	mov	r9,	r14	
    c93c:	5e 02       	rlam	#1,	r14	
    c93e:	3e 50 6c 20 	add	#8300,	r14	;#0x206c
    c942:	ee 93 00 00 	cmp.b	#2,	0(r14)	;r3 As==10, 0x0000(r14)
    c946:	06 24       	jz	$+14     	;abs 0xc954
    c948:	7d 93       	cmp.b	#-1,	r13	;r3 As==11
    c94a:	01 20       	jnz	$+4      	;abs 0xc94e
    c94c:	03 3c       	jmp	$+8      	;abs 0xc954
    c94e:	ce 4f 01 00 	mov.b	r15,	1(r14)	;0x0001(r14)
    c952:	c2 3f       	jmp	$-122    	;abs 0xc8d8
    c954:	e2 42 ca 22 	mov.b	#4,	&0x22ca	;r2 As==10
    c958:	bf 3f       	jmp	$-128    	;abs 0xc8d8
    c95a:	5f 42 f0 36 	mov.b	&0x36f0,r15	
    c95e:	b0 12 be 5e 	call	#0x5ebe	
    c962:	f2 40 05 00 ca 22 	mov.b	#5,	&0x22ca	;#0x0005
    c968:	12 3c       	jmp	$+38     	;abs 0xc98e
    c96a:	1f 42 f0 36 	mov	&0x36f0,r15	
    c96e:	8f 10       	swpb	r15		
    c970:	b0 12 be 5e 	call	#0x5ebe	
    c974:	f2 40 06 00 ca 22 	mov.b	#6,	&0x22ca	;#0x0006
    c97a:	09 3c       	jmp	$+20     	;abs 0xc98e
    c97c:	b0 12 a2 5e 	call	#0x5ea2	
    c980:	f2 40 07 00 ca 22 	mov.b	#7,	&0x22ca	;#0x0007
    c986:	03 3c       	jmp	$+8      	;abs 0xc98e
    c988:	f2 42 ca 22 	mov.b	#8,	&0x22ca	;r2 As==11
    c98c:	05 3c       	jmp	$+12     	;abs 0xc998
    c98e:	0f 93       	tst	r15		
    c990:	0d 24       	jz	$+28     	;abs 0xc9ac
    c992:	f2 40 09 00 ca 22 	mov.b	#9,	&0x22ca	;#0x0009
    c998:	b0 12 98 53 	call	#0x5398	
    c99c:	07 3c       	jmp	$+16     	;abs 0xc9ac
    c99e:	d2 b3 01 06 	bit.b	#1,	&0x0601	;r3 As==01
    c9a2:	16 23       	jnz	$-466    	;abs 0xc7d0
    c9a4:	5f 42 2b 1c 	mov.b	&0x1c2b,r15	
    c9a8:	7f 93       	cmp.b	#-1,	r15	;r3 As==11
    c9aa:	15 23       	jnz	$-468    	;abs 0xc7d6
    c9ac:	69 17       	popm	#7,	r15	
    c9ae:	b1 c0 f0 00 00 00 	bic	#240,	0(r1)	;#0x00f0, 0x0000(r1)
    c9b4:	00 13       	reti			

0000c9b6 <sig_TIMER0_A0_VECTOR>:
    c9b6:	3f 15       	pushm	#4,	r15	
    c9b8:	b0 12 ac 66 	call	#0x66ac	
    c9bc:	3c 17       	popm	#4,	r15	
    c9be:	b1 c0 f0 00 00 00 	bic	#240,	0(r1)	;#0x00f0, 0x0000(r1)
    c9c4:	00 13       	reti			

0000c9c6 <sig_TIMER0_A1_VECTOR>:
    c9c6:	3f 15       	pushm	#4,	r15	
    c9c8:	1f 42 6e 03 	mov	&0x036e,r15	
    c9cc:	4f 4f       	mov.b	r15,	r15	
    c9ce:	5f 03       	rrum	#1,	r15	
    c9d0:	7f 92       	cmp.b	#8,	r15	;r2 As==11
    c9d2:	15 2c       	jc	$+44     	;abs 0xc9fe
    c9d4:	4f 4f       	mov.b	r15,	r15	
    c9d6:	5f 02       	rlam	#1,	r15	
    c9d8:	10 4f 20 cf 	br	-12512(r15)	;0xcf20(r15)
    c9dc:	b0 12 ac 66 	call	#0x66ac	
    c9e0:	0e 3c       	jmp	$+30     	;abs 0xc9fe
    c9e2:	b0 12 dc 66 	call	#0x66dc	
    c9e6:	0b 3c       	jmp	$+24     	;abs 0xc9fe
    c9e8:	b0 12 ac 6e 	call	#0x6eac	
    c9ec:	08 3c       	jmp	$+18     	;abs 0xc9fe
    c9ee:	b0 12 3c 4a 	call	#0x4a3c	
    c9f2:	05 3c       	jmp	$+12     	;abs 0xc9fe
    c9f4:	b0 12 4c 4a 	call	#0x4a4c	
    c9f8:	02 3c       	jmp	$+6      	;abs 0xc9fe
    c9fa:	b0 12 d4 49 	call	#0x49d4	
    c9fe:	3c 17       	popm	#4,	r15	
    ca00:	b1 c0 f0 00 00 00 	bic	#240,	0(r1)	;#0x00f0, 0x0000(r1)
    ca06:	00 13       	reti			

0000ca08 <sig_TIMER0_B0_VECTOR>:
    ca08:	3f 15       	pushm	#4,	r15	
    ca0a:	b0 12 5c 4a 	call	#0x4a5c	
    ca0e:	3c 17       	popm	#4,	r15	
    ca10:	b1 c0 f0 00 00 00 	bic	#240,	0(r1)	;#0x00f0, 0x0000(r1)
    ca16:	00 13       	reti			

0000ca18 <sig_TIMER0_B1_VECTOR>:
    ca18:	3f 15       	pushm	#4,	r15	
    ca1a:	1f 42 ee 03 	mov	&0x03ee,r15	
    ca1e:	4f 4f       	mov.b	r15,	r15	
    ca20:	5f 03       	rrum	#1,	r15	
    ca22:	7f 90 07 00 	cmp.b	#7,	r15	;#0x0007
    ca26:	18 2c       	jc	$+50     	;abs 0xca58
    ca28:	4f 4f       	mov.b	r15,	r15	
    ca2a:	5f 02       	rlam	#1,	r15	
    ca2c:	10 4f 30 cf 	br	-12496(r15)	;0xcf30(r15)
    ca30:	b0 12 5c 4a 	call	#0x4a5c	
    ca34:	11 3c       	jmp	$+36     	;abs 0xca58
    ca36:	b0 12 6c 4a 	call	#0x4a6c	
    ca3a:	0e 3c       	jmp	$+30     	;abs 0xca58
    ca3c:	b0 12 7c 4a 	call	#0x4a7c	
    ca40:	0b 3c       	jmp	$+24     	;abs 0xca58
    ca42:	b0 12 8c 4a 	call	#0x4a8c	
    ca46:	08 3c       	jmp	$+18     	;abs 0xca58
    ca48:	b0 12 9c 4a 	call	#0x4a9c	
    ca4c:	05 3c       	jmp	$+12     	;abs 0xca58
    ca4e:	b0 12 ac 4a 	call	#0x4aac	
    ca52:	02 3c       	jmp	$+6      	;abs 0xca58
    ca54:	b0 12 bc 4a 	call	#0x4abc	
    ca58:	3c 17       	popm	#4,	r15	
    ca5a:	b1 c0 f0 00 00 00 	bic	#240,	0(r1)	;#0x00f0, 0x0000(r1)
    ca60:	00 13       	reti			

0000ca62 <sig_TIMER1_A0_VECTOR>:
    ca62:	3f 15       	pushm	#4,	r15	
    ca64:	b0 12 da 7a 	call	#0x7ada	
    ca68:	3c 17       	popm	#4,	r15	
    ca6a:	b1 c0 f0 00 00 00 	bic	#240,	0(r1)	;#0x00f0, 0x0000(r1)
    ca70:	00 13       	reti			

0000ca72 <sig_TIMER1_A1_VECTOR>:
    ca72:	3f 15       	pushm	#4,	r15	
    ca74:	1f 42 ae 03 	mov	&0x03ae,r15	
    ca78:	4f 4f       	mov.b	r15,	r15	
    ca7a:	5f 03       	rrum	#1,	r15	
    ca7c:	5f 93       	cmp.b	#1,	r15	;r3 As==01
    ca7e:	07 24       	jz	$+16     	;abs 0xca8e
    ca80:	03 28       	jnc	$+8      	;abs 0xca88
    ca82:	6f 93       	cmp.b	#2,	r15	;r3 As==10
    ca84:	09 20       	jnz	$+20     	;abs 0xca98
    ca86:	06 3c       	jmp	$+14     	;abs 0xca94
    ca88:	b0 12 da 7a 	call	#0x7ada	
    ca8c:	05 3c       	jmp	$+12     	;abs 0xca98
    ca8e:	b0 12 fc 7a 	call	#0x7afc	
    ca92:	02 3c       	jmp	$+6      	;abs 0xca98
    ca94:	b0 12 6c 4c 	call	#0x4c6c	
    ca98:	3c 17       	popm	#4,	r15	
    ca9a:	b1 c0 f0 00 00 00 	bic	#240,	0(r1)	;#0x00f0, 0x0000(r1)
    caa0:	00 13       	reti			

0000caa2 <sig_TIMER2_A0_VECTOR>:
    caa2:	3f 15       	pushm	#4,	r15	
    caa4:	b0 12 84 4c 	call	#0x4c84	
    caa8:	3c 17       	popm	#4,	r15	
    caaa:	b1 c0 f0 00 00 00 	bic	#240,	0(r1)	;#0x00f0, 0x0000(r1)
    cab0:	00 13       	reti			

0000cab2 <sig_TIMER2_A1_VECTOR>:
    cab2:	3f 15       	pushm	#4,	r15	
    cab4:	1f 42 2e 04 	mov	&0x042e,r15	
    cab8:	4f 4f       	mov.b	r15,	r15	
    caba:	5f 03       	rrum	#1,	r15	
    cabc:	5f 93       	cmp.b	#1,	r15	;r3 As==01
    cabe:	07 24       	jz	$+16     	;abs 0xcace
    cac0:	03 28       	jnc	$+8      	;abs 0xcac8
    cac2:	6f 93       	cmp.b	#2,	r15	;r3 As==10
    cac4:	09 20       	jnz	$+20     	;abs 0xcad8
    cac6:	06 3c       	jmp	$+14     	;abs 0xcad4
    cac8:	b0 12 84 4c 	call	#0x4c84	
    cacc:	05 3c       	jmp	$+12     	;abs 0xcad8
    cace:	b0 12 94 4c 	call	#0x4c94	
    cad2:	02 3c       	jmp	$+6      	;abs 0xcad8
    cad4:	b0 12 a4 4c 	call	#0x4ca4	
    cad8:	3c 17       	popm	#4,	r15	
    cada:	b1 c0 f0 00 00 00 	bic	#240,	0(r1)	;#0x00f0, 0x0000(r1)
    cae0:	00 13       	reti			

0000cae2 <sig_UNMI_VECTOR>:
    cae2:	3f 15       	pushm	#4,	r15	
    cae4:	1f 42 6e 01 	mov	&0x016e,r15	
    cae8:	2f f3       	and	#2,	r15	;r3 As==10
    caea:	17 24       	jz	$+48     	;abs 0xcb1a
    caec:	82 43 f6 23 	mov	#0,	&0x23f6	;r3 As==00
    caf0:	b0 12 c2 51 	call	#0x51c2	
    caf4:	92 53 f6 23 	inc	&0x23f6	
    caf8:	b2 f0 fc ff 6e 01 	and	#-4,	&0x016e	;#0xfffc
    cafe:	a2 c3 02 01 	bic	#2,	&0x0102	;r3 As==10
    cb02:	03 43       	nop			
    cb04:	03 43       	nop			
    cb06:	1f 42 02 01 	mov	&0x0102,r15	
    cb0a:	2f f3       	and	#2,	r15	;r3 As==10
    cb0c:	03 20       	jnz	$+8      	;abs 0xcb14
    cb0e:	b0 12 68 50 	call	#0x5068	
    cb12:	03 3c       	jmp	$+8      	;abs 0xcb1a
    cb14:	82 93 f6 23 	tst	&0x23f6	
    cb18:	eb 23       	jnz	$-40     	;abs 0xcaf0
    cb1a:	3c 17       	popm	#4,	r15	
    cb1c:	b1 c0 f0 00 00 00 	bic	#240,	0(r1)	;#0x00f0, 0x0000(r1)
    cb22:	00 13       	reti			

0000cb24 <sig_PORT1_VECTOR>:
    cb24:	1f 15       	pushm	#2,	r15	
    cb26:	21 83       	decd	r1		
    cb28:	5e 42 1c 02 	mov.b	&0x021c,r14	
    cb2c:	5f 42 1a 02 	mov.b	&0x021a,r15	
    cb30:	4f fe       	and.b	r14,	r15	
    cb32:	c1 4f 00 00 	mov.b	r15,	0(r1)	;0x0000(r1)
    cb36:	d1 b3 00 00 	bit.b	#1,	0(r1)	;r3 As==01, 0x0000(r1)
    cb3a:	04 24       	jz	$+10     	;abs 0xcb44
    cb3c:	5f 42 1c 02 	mov.b	&0x021c,r15	
    cb40:	5f c3       	bic.b	#1,	r15	;r3 As==01
    cb42:	37 3c       	jmp	$+112    	;abs 0xcbb2
    cb44:	e1 b3 00 00 	bit.b	#2,	0(r1)	;r3 As==10, 0x0000(r1)
    cb48:	04 24       	jz	$+10     	;abs 0xcb52
    cb4a:	5f 42 1c 02 	mov.b	&0x021c,r15	
    cb4e:	6f c3       	bic.b	#2,	r15	;r3 As==10
    cb50:	30 3c       	jmp	$+98     	;abs 0xcbb2
    cb52:	e1 b2 00 00 	bit.b	#4,	0(r1)	;r2 As==10, 0x0000(r1)
    cb56:	04 24       	jz	$+10     	;abs 0xcb60
    cb58:	5f 42 1c 02 	mov.b	&0x021c,r15	
    cb5c:	6f c2       	bic.b	#4,	r15	;r2 As==10
    cb5e:	29 3c       	jmp	$+84     	;abs 0xcbb2
    cb60:	f1 b2 00 00 	bit.b	#8,	0(r1)	;r2 As==11, 0x0000(r1)
    cb64:	04 24       	jz	$+10     	;abs 0xcb6e
    cb66:	5f 42 1c 02 	mov.b	&0x021c,r15	
    cb6a:	7f c2       	bic.b	#8,	r15	;r2 As==11
    cb6c:	22 3c       	jmp	$+70     	;abs 0xcbb2
    cb6e:	f1 b0 10 00 00 00 	bit.b	#16,	0(r1)	;#0x0010, 0x0000(r1)
    cb74:	05 24       	jz	$+12     	;abs 0xcb80
    cb76:	5f 42 1c 02 	mov.b	&0x021c,r15	
    cb7a:	7f f0 ef ff 	and.b	#-17,	r15	;#0xffef
    cb7e:	19 3c       	jmp	$+52     	;abs 0xcbb2
    cb80:	f1 b0 20 00 00 00 	bit.b	#32,	0(r1)	;#0x0020, 0x0000(r1)
    cb86:	05 24       	jz	$+12     	;abs 0xcb92
    cb88:	5f 42 1c 02 	mov.b	&0x021c,r15	
    cb8c:	7f f0 df ff 	and.b	#-33,	r15	;#0xffdf
    cb90:	10 3c       	jmp	$+34     	;abs 0xcbb2
    cb92:	f1 b0 40 00 00 00 	bit.b	#64,	0(r1)	;#0x0040, 0x0000(r1)
    cb98:	05 24       	jz	$+12     	;abs 0xcba4
    cb9a:	5f 42 1c 02 	mov.b	&0x021c,r15	
    cb9e:	7f f0 bf ff 	and.b	#-65,	r15	;#0xffbf
    cba2:	07 3c       	jmp	$+16     	;abs 0xcbb2
    cba4:	6f 41       	mov.b	@r1,	r15	
    cba6:	4f 93       	tst.b	r15		
    cba8:	06 34       	jge	$+14     	;abs 0xcbb6
    cbaa:	5f 42 1c 02 	mov.b	&0x021c,r15	
    cbae:	7f f0 7f 00 	and.b	#127,	r15	;#0x007f
    cbb2:	c2 4f 1c 02 	mov.b	r15,	&0x021c	
    cbb6:	21 53       	incd	r1		
    cbb8:	1e 17       	popm	#2,	r15	
    cbba:	b1 c0 f0 00 00 00 	bic	#240,	0(r1)	;#0x00f0, 0x0000(r1)
    cbc0:	00 13       	reti			

0000cbc2 <sig_PORT2_VECTOR>:
    cbc2:	1f 15       	pushm	#2,	r15	
    cbc4:	21 83       	decd	r1		
    cbc6:	5e 42 1d 02 	mov.b	&0x021d,r14	
    cbca:	5f 42 1b 02 	mov.b	&0x021b,r15	
    cbce:	4f fe       	and.b	r14,	r15	
    cbd0:	c1 4f 00 00 	mov.b	r15,	0(r1)	;0x0000(r1)
    cbd4:	d1 b3 00 00 	bit.b	#1,	0(r1)	;r3 As==01, 0x0000(r1)
    cbd8:	04 24       	jz	$+10     	;abs 0xcbe2
    cbda:	5f 42 1d 02 	mov.b	&0x021d,r15	
    cbde:	5f c3       	bic.b	#1,	r15	;r3 As==01
    cbe0:	37 3c       	jmp	$+112    	;abs 0xcc50
    cbe2:	e1 b3 00 00 	bit.b	#2,	0(r1)	;r3 As==10, 0x0000(r1)
    cbe6:	04 24       	jz	$+10     	;abs 0xcbf0
    cbe8:	5f 42 1d 02 	mov.b	&0x021d,r15	
    cbec:	6f c3       	bic.b	#2,	r15	;r3 As==10
    cbee:	30 3c       	jmp	$+98     	;abs 0xcc50
    cbf0:	e1 b2 00 00 	bit.b	#4,	0(r1)	;r2 As==10, 0x0000(r1)
    cbf4:	04 24       	jz	$+10     	;abs 0xcbfe
    cbf6:	5f 42 1d 02 	mov.b	&0x021d,r15	
    cbfa:	6f c2       	bic.b	#4,	r15	;r2 As==10
    cbfc:	29 3c       	jmp	$+84     	;abs 0xcc50
    cbfe:	f1 b2 00 00 	bit.b	#8,	0(r1)	;r2 As==11, 0x0000(r1)
    cc02:	04 24       	jz	$+10     	;abs 0xcc0c
    cc04:	5f 42 1d 02 	mov.b	&0x021d,r15	
    cc08:	7f c2       	bic.b	#8,	r15	;r2 As==11
    cc0a:	22 3c       	jmp	$+70     	;abs 0xcc50
    cc0c:	f1 b0 10 00 00 00 	bit.b	#16,	0(r1)	;#0x0010, 0x0000(r1)
    cc12:	05 24       	jz	$+12     	;abs 0xcc1e
    cc14:	5f 42 1d 02 	mov.b	&0x021d,r15	
    cc18:	7f f0 ef ff 	and.b	#-17,	r15	;#0xffef
    cc1c:	19 3c       	jmp	$+52     	;abs 0xcc50
    cc1e:	f1 b0 20 00 00 00 	bit.b	#32,	0(r1)	;#0x0020, 0x0000(r1)
    cc24:	05 24       	jz	$+12     	;abs 0xcc30
    cc26:	5f 42 1d 02 	mov.b	&0x021d,r15	
    cc2a:	7f f0 df ff 	and.b	#-33,	r15	;#0xffdf
    cc2e:	10 3c       	jmp	$+34     	;abs 0xcc50
    cc30:	f1 b0 40 00 00 00 	bit.b	#64,	0(r1)	;#0x0040, 0x0000(r1)
    cc36:	05 24       	jz	$+12     	;abs 0xcc42
    cc38:	5f 42 1d 02 	mov.b	&0x021d,r15	
    cc3c:	7f f0 bf ff 	and.b	#-65,	r15	;#0xffbf
    cc40:	07 3c       	jmp	$+16     	;abs 0xcc50
    cc42:	6f 41       	mov.b	@r1,	r15	
    cc44:	4f 93       	tst.b	r15		
    cc46:	06 34       	jge	$+14     	;abs 0xcc54
    cc48:	5f 42 1d 02 	mov.b	&0x021d,r15	
    cc4c:	7f f0 7f 00 	and.b	#127,	r15	;#0x007f
    cc50:	c2 4f 1d 02 	mov.b	r15,	&0x021d	
    cc54:	21 53       	incd	r1		
    cc56:	1e 17       	popm	#2,	r15	
    cc58:	b1 c0 f0 00 00 00 	bic	#240,	0(r1)	;#0x00f0, 0x0000(r1)
    cc5e:	00 13       	reti			

0000cc60 <sig_ADC12_VECTOR>:
    cc60:	5f 15       	pushm	#6,	r15	
    cc62:	21 82       	sub	#4,	r1	;r2 As==10
    cc64:	1f 42 0e 07 	mov	&0x070e,r15	
    cc68:	3f 90 05 00 	cmp	#5,	r15	;#0x0005
    cc6c:	16 2c       	jc	$+46     	;abs 0xcc9a
    cc6e:	b0 12 90 4b 	call	#0x4b90	
    cc72:	c1 4f 02 00 	mov.b	r15,	2(r1)	;0x0002(r1)
    cc76:	8f 10       	swpb	r15		
    cc78:	c1 4f 03 00 	mov.b	r15,	3(r1)	;0x0003(r1)
    cc7c:	91 41 02 00 00 00 	mov	2(r1),	0(r1)	;0x0002(r1), 0x0000(r1)
    cc82:	6f 41       	mov.b	@r1,	r15	
    cc84:	1e 42 0c 07 	mov	&0x070c,r14	
    cc88:	0e 93       	tst	r14		
    cc8a:	a8 24       	jz	$+338    	;abs 0xcddc
    cc8c:	7f e3       	xor.b	#-1,	r15	;r3 As==11
    cc8e:	4f 4f       	mov.b	r15,	r15	
    cc90:	4f 5f       	rla.b	r15		
    cc92:	0f 43       	clr	r15		
    cc94:	0f 6f       	rlc	r15		
    cc96:	4f 4f       	mov.b	r15,	r15	
    cc98:	01 3c       	jmp	$+4      	;abs 0xcc9c
    cc9a:	4f 43       	clr.b	r15		
    cc9c:	5e 42 d0 20 	mov.b	&0x20d0,r14	
    cca0:	7e f0 1f 00 	and.b	#31,	r14	;#0x001f
    cca4:	7e 53       	add.b	#-1,	r14	;r3 As==11
    cca6:	7e 90 10 00 	cmp.b	#16,	r14	;#0x0010
    ccaa:	96 2c       	jc	$+302    	;abs 0xcdd8
    ccac:	4e 4e       	mov.b	r14,	r14	
    ccae:	5e 02       	rlam	#1,	r14	
    ccb0:	10 4e 40 cf 	br	-12480(r14)	;0xcf40(r14)
    ccb4:	b0 12 78 5f 	call	#0x5f78	
    ccb8:	1e 42 20 07 	mov	&0x0720,r14	
    ccbc:	5f 42 8f 1c 	mov.b	&0x1c8f,r15	
    ccc0:	b0 12 14 bc 	call	#0xbc14	
    ccc4:	8b 3c       	jmp	$+280    	;abs 0xcddc
    ccc6:	1e 42 20 07 	mov	&0x0720,r14	
    ccca:	5f 42 8f 1c 	mov.b	&0x1c8f,r15	
    ccce:	b0 12 14 bc 	call	#0xbc14	
    ccd2:	0f 93       	tst	r15		
    ccd4:	83 24       	jz	$+264    	;abs 0xcddc
    ccd6:	80 3c       	jmp	$+258    	;abs 0xcdd8
    ccd8:	1d 42 90 1c 	mov	&0x1c90,r13	
    ccdc:	5d 02       	rlam	#1,	r13	
    ccde:	1d 52 70 20 	add	&0x2070,r13	
    cce2:	5b 42 44 1f 	mov.b	&0x1f44,r11	
    cce6:	0e 43       	clr	r14		
    cce8:	0c 4e       	mov	r14,	r12	
    ccea:	3c f0 ff 00 	and	#255,	r12	;#0x00ff
    ccee:	5c 02       	rlam	#1,	r12	
    ccf0:	3c 50 20 07 	add	#1824,	r12	;#0x0720
    ccf4:	2a 4c       	mov	@r12,	r10	
    ccf6:	0c 4e       	mov	r14,	r12	
    ccf8:	5c 02       	rlam	#1,	r12	
    ccfa:	0c 5d       	add	r13,	r12	
    ccfc:	8c 4a 00 00 	mov	r10,	0(r12)	;0x0000(r12)
    cd00:	1e 53       	inc	r14		
    cd02:	0e 9b       	cmp	r11,	r14	
    cd04:	f1 2b       	jnc	$-28     	;abs 0xcce8
    cd06:	0e 4b       	mov	r11,	r14	
    cd08:	1e 52 90 1c 	add	&0x1c90,r14	
    cd0c:	82 4e 90 1c 	mov	r14,	&0x1c90	
    cd10:	4f 93       	tst.b	r15		
    cd12:	03 20       	jnz	$+8      	;abs 0xcd1a
    cd14:	82 9e 72 1e 	cmp	r14,	&0x1e72	
    cd18:	61 20       	jnz	$+196    	;abs 0xcddc
    cd1a:	b0 12 78 5f 	call	#0x5f78	
    cd1e:	82 43 90 1c 	mov	#0,	&0x1c90	;r3 As==00
    cd22:	5c 3c       	jmp	$+186    	;abs 0xcddc
    cd24:	1c 42 90 1c 	mov	&0x1c90,r12	
    cd28:	0b 4c       	mov	r12,	r11	
    cd2a:	5b 02       	rlam	#1,	r11	
    cd2c:	1b 52 70 20 	add	&0x2070,r11	
    cd30:	1e 42 72 1e 	mov	&0x1e72,r14	
    cd34:	0e 8c       	sub	r12,	r14	
    cd36:	0c 4e       	mov	r14,	r12	
    cd38:	3e 90 11 00 	cmp	#17,	r14	;#0x0011
    cd3c:	02 28       	jnc	$+6      	;abs 0xcd42
    cd3e:	3c 40 10 00 	mov	#16,	r12	;#0x0010
    cd42:	0e 43       	clr	r14		
    cd44:	0d 4e       	mov	r14,	r13	
    cd46:	3d f0 ff 00 	and	#255,	r13	;#0x00ff
    cd4a:	5d 02       	rlam	#1,	r13	
    cd4c:	3d 50 20 07 	add	#1824,	r13	;#0x0720
    cd50:	2a 4d       	mov	@r13,	r10	
    cd52:	0d 4e       	mov	r14,	r13	
    cd54:	5d 02       	rlam	#1,	r13	
    cd56:	0d 5b       	add	r11,	r13	
    cd58:	8d 4a 00 00 	mov	r10,	0(r13)	;0x0000(r13)
    cd5c:	1e 53       	inc	r14		
    cd5e:	0e 9c       	cmp	r12,	r14	
    cd60:	f1 2b       	jnc	$-28     	;abs 0xcd44
    cd62:	1c 52 90 1c 	add	&0x1c90,r12	
    cd66:	82 4c 90 1c 	mov	r12,	&0x1c90	
    cd6a:	4f 93       	tst.b	r15		
    cd6c:	04 20       	jnz	$+10     	;abs 0xcd76
    cd6e:	1f 42 72 1e 	mov	&0x1e72,r15	
    cd72:	0f 9c       	cmp	r12,	r15	
    cd74:	09 20       	jnz	$+20     	;abs 0xcd88
    cd76:	b0 12 78 5f 	call	#0x5f78	
    cd7a:	82 43 90 1c 	mov	#0,	&0x1c90	;r3 As==00
    cd7e:	5f 42 8f 1c 	mov.b	&0x1c8f,r15	
    cd82:	b0 12 7a 94 	call	#0x947a	
    cd86:	2a 3c       	jmp	$+86     	;abs 0xcddc
    cd88:	0f 8c       	sub	r12,	r15	
    cd8a:	3f 90 10 00 	cmp	#16,	r15	;#0x0010
    cd8e:	26 2c       	jc	$+78     	;abs 0xcddc
    cd90:	4f 43       	clr.b	r15		
    cd92:	b0 12 16 4c 	call	#0x4c16	
    cd96:	4e 4f       	mov.b	r15,	r14	
    cd98:	7e d0 80 ff 	bis.b	#-128,	r14	;#0xff80
    cd9c:	5f 42 72 1e 	mov.b	&0x1e72,r15	
    cda0:	5f 82 90 1c 	sub.b	&0x1c90,r15	
    cda4:	b0 12 82 4b 	call	#0x4b82	
    cda8:	19 3c       	jmp	$+52     	;abs 0xcddc
    cdaa:	1d 42 70 20 	mov	&0x2070,r13	
    cdae:	4e 43       	clr.b	r14		
    cdb0:	4f 4e       	mov.b	r14,	r15	
    cdb2:	5f 02       	rlam	#1,	r15	
    cdb4:	3f 50 20 07 	add	#1824,	r15	;#0x0720
    cdb8:	ad 4f 00 00 	mov	@r15,	0(r13)	;0x0000(r13)
    cdbc:	2d 53       	incd	r13		
    cdbe:	5e 53       	inc.b	r14		
    cdc0:	4f 4e       	mov.b	r14,	r15	
    cdc2:	1f 92 72 1e 	cmp	&0x1e72,r15	
    cdc6:	f4 2b       	jnc	$-22     	;abs 0xcdb0
    cdc8:	5f 42 8f 1c 	mov.b	&0x1c8f,r15	
    cdcc:	b0 12 7a 94 	call	#0x947a	
    cdd0:	82 4f 70 20 	mov	r15,	&0x2070	
    cdd4:	0f 93       	tst	r15		
    cdd6:	02 20       	jnz	$+6      	;abs 0xcddc
    cdd8:	b0 12 78 5f 	call	#0x5f78	
    cddc:	21 52       	add	#4,	r1	;r2 As==10
    cdde:	5a 17       	popm	#6,	r15	
    cde0:	b1 c0 f0 00 00 00 	bic	#240,	0(r1)	;#0x00f0, 0x0000(r1)
    cde6:	00 13       	reti			

Disassembly of section .vectors:

0000ff80 <__ivtbl_64>:
    ff80:	ff ff ff ff ff ff ff ff ff ff ff ff ff ff ff ff     ................
    ff90:	ff ff ff ff ff ff ff ff ff ff ff ff ff ff ff ff     ................
    ffa0:	ff ff ff ff ff ff ff ff ff ff ff ff ff ff ff ff     ................
    ffb0:	ff ff ff ff ff ff ff ff ff ff ff ff ff ff ff ff     ................
    ffc0:	d0 49 d0 49 d0 49 d0 49 d0 49 d0 49 d0 49 d0 49     .I.I.I.I.I.I.I.I
    ffd0:	d0 49 d0 49 c2 cb b2 ca a2 ca 7a c7 c2 c7 24 cb     .I.I......z...$.
    ffe0:	72 ca 62 ca d0 49 d0 49 c6 c9 b6 c9 60 cc 56 c7     r.b..I.I....`.V.
    fff0:	9e c7 d0 49 18 ca 08 ca d0 49 e2 ca d0 49 00 44     ...I.....I...I.D
